///////////////////////////////////////////////////////////////////////////////
//                                                                            /
// IAR C/C++ Compiler V8.10.3.10338/W32 for 8051        24/Nov/2016  15:46:10 /
// Copyright 2004-2011 IAR Systems AB.                                        /
//                                                                            /
//    Core               =  plain                                             /
//    Code model         =  banked                                            /
//    Data model         =  large                                             /
//    Calling convention =  xdata reentrant                                   /
//    Constant location  =  data_rom                                          /
//    Dptr setup         =  1,16                                              /
//    Source file        =  C:\Users\icecreamco\Desktop\GAP\EndDvice -        /
//                          拨码开关地址版\Components\hal\target\CC2530EB\hal /
//                          _sleep.c                                          /
//    Command line       =  -f "C:\Users\icecreamco\Desktop\GAP\EndDvice -    /
//                          拨码开关地址版\Projects\zstack\Samples\SampleApp\ /
//                          CC2530DB\..\..\..\Tools\CC2530DB\f8wEndev.cfg"    /
//                          (-DCPU32MHZ -DROOT=__near_func                    /
//                          -DMAC_CFG_TX_DATA_MAX=3 -DMAC_CFG_TX_MAX=6        /
//                          -DMAC_CFG_RX_MAX=3) -f "C:\Users\icecreamco\Deskt /
//                          op\GAP\EndDvice - 拨码开关地址版\Projects\zstack\ /
//                          Samples\SampleApp\CC2530DB\..\..\..\Tools\CC2530D /
//                          B\f8wConfig.cfg" (-DZIGBEEPRO -DSECURE=0          /
//                          -DZG_SECURE_DYNAMIC=0 -DREFLECTOR                 /
//                          -DDEFAULT_CHANLIST=0x00000800                     /
//                          -DZDAPP_CONFIG_PAN_ID=0x2222                      /
//                          -DNWK_START_DELAY=100 -DEXTENDED_JOINING_RANDOM_M /
//                          ASK=0x007F -DBEACON_REQUEST_DELAY=500             /
//                          -DBEACON_REQ_DELAY_MASK=0x00FF                    /
//                          -DLINK_STATUS_JITTER_MASK=0x007F                  /
//                          -DROUTE_EXPIRY_TIME=30 -DAPSC_ACK_WAIT_DURATION_P /
//                          OLLED=3000 -DNWK_INDIRECT_MSG_TIMEOUT=7           /
//                          -DMAX_RREQ_ENTRIES=8 -DAPSC_MAX_FRAME_RETRIES=3   /
//                          -DNWK_MAX_DATA_RETRIES=2                          /
//                          -DMAX_POLL_FAILURE_RETRIES=2 -DMAX_BCAST=9        /
//                          -DAPS_MAX_GROUPS=16 -DMAX_RTG_ENTRIES=40          /
//                          -DNWK_MAX_BINDING_ENTRIES=4                       /
//                          -DMAX_BINDING_CLUSTER_IDS=4                       /
//                          "-DDEFAULT_KEY={0x01, 0x03, 0x05, 0x07, 0x09,     /
//                          0x0B, 0x0D, 0x0F, 0x00, 0x02, 0x04, 0x06, 0x08,   /
//                          0x0A, 0x0C, 0x0D}" -DMAC_MAX_FRAME_SIZE=116       /
//                          -DZDNWKMGR_MIN_TRANSMISSIONS=20 "-DCONST=const    /
//                          __code" -DGENERIC=__generic                       /
//                          -DRFD_RCVC_ALWAYS_ON=FALSE -DPOLL_RATE=1000       /
//                          -DQUEUED_POLL_RATE=100 -DRESPONSE_POLL_RATE=100)  /
//                          -DREJOIN_POLL_RATE=440 "C:\Users\icecreamco\Deskt /
//                          op\GAP\EndDvice - 拨码开关地址版\Components\hal\t /
//                          arget\CC2530EB\hal_sleep.c" -D xNWK_AUTO_POLL -D  /
//                          POWER_SAVING -D AUTO_RESET -D xMT_TASK -D         /
//                          xMT_SYS_FUNC -D xMT_ZDO_FUNC -D                   /
//                          xLCD_SUPPORTED=DEBUG -lC                          /
//                          "C:\Users\icecreamco\Desktop\GAP\EndDvice -       /
//                          拨码开关地址版\Projects\zstack\Samples\SampleApp\ /
//                          CC2530DB\EndDeviceEB\List\" -lA                   /
//                          "C:\Users\icecreamco\Desktop\GAP\EndDvice -       /
//                          拨码开关地址版\Projects\zstack\Samples\SampleApp\ /
//                          CC2530DB\EndDeviceEB\List\" --diag_suppress       /
//                          Pe001,Pa010 -o "C:\Users\icecreamco\Desktop\GAP\E /
//                          ndDvice - 拨码开关地址版\Projects\zstack\Samples\ /
//                          SampleApp\CC2530DB\EndDeviceEB\Obj\" -e           /
//                          --no_code_motion --debug --core=plain             /
//                          --dptr=16,1 --data_model=large                    /
//                          --code_model=banked --calling_convention=xdata_re /
//                          entrant --place_constants=data_rom                /
//                          --nr_virtual_regs 16 -I                           /
//                          "C:\Users\icecreamco\Desktop\GAP\EndDvice -       /
//                          拨码开关地址版\Projects\zstack\Samples\SampleApp\ /
//                          CC2530DB\" -I "C:\Users\icecreamco\Desktop\GAP\En /
//                          dDvice - 拨码开关地址版\Projects\zstack\Samples\S /
//                          ampleApp\CC2530DB\..\Source\" -I                  /
//                          "C:\Users\icecreamco\Desktop\GAP\EndDvice -       /
//                          拨码开关地址版\Projects\zstack\Samples\SampleApp\ /
//                          CC2530DB\..\..\..\ZMain\TI2530DB\" -I             /
//                          "C:\Users\icecreamco\Desktop\GAP\EndDvice -       /
//                          拨码开关地址版\Projects\zstack\Samples\SampleApp\ /
//                          CC2530DB\..\..\..\..\..\Components\hal\include\"  /
//                          -I "C:\Users\icecreamco\Desktop\GAP\EndDvice -    /
//                          拨码开关地址版\Projects\zstack\Samples\SampleApp\ /
//                          CC2530DB\..\..\..\..\..\Components\hal\target\CC2 /
//                          530EB\" -I "C:\Users\icecreamco\Desktop\GAP\EndDv /
//                          ice - 拨码开关地址版\Projects\zstack\Samples\Samp /
//                          leApp\CC2530DB\..\..\..\..\..\Components\mac\incl /
//                          ude\" -I "C:\Users\icecreamco\Desktop\GAP\EndDvic /
//                          e - 拨码开关地址版\Projects\zstack\Samples\Sample /
//                          App\CC2530DB\..\..\..\..\..\Components\mac\high_l /
//                          evel\" -I "C:\Users\icecreamco\Desktop\GAP\EndDvi /
//                          ce - 拨码开关地址版\Projects\zstack\Samples\Sampl /
//                          eApp\CC2530DB\..\..\..\..\..\Components\mac\low_l /
//                          evel\srf04\" -I "C:\Users\icecreamco\Desktop\GAP\ /
//                          EndDvice - 拨码开关地址版\Projects\zstack\Samples /
//                          \SampleApp\CC2530DB\..\..\..\..\..\Components\mac /
//                          \low_level\srf04\single_chip\" -I                 /
//                          "C:\Users\icecreamco\Desktop\GAP\EndDvice -       /
//                          拨码开关地址版\Projects\zstack\Samples\SampleApp\ /
//                          CC2530DB\..\..\..\..\..\Components\mt\" -I        /
//                          "C:\Users\icecreamco\Desktop\GAP\EndDvice -       /
//                          拨码开关地址版\Projects\zstack\Samples\SampleApp\ /
//                          CC2530DB\..\..\..\..\..\Components\osal\include\" /
//                           -I "C:\Users\icecreamco\Desktop\GAP\EndDvice -   /
//                          拨码开关地址版\Projects\zstack\Samples\SampleApp\ /
//                          CC2530DB\..\..\..\..\..\Components\services\saddr /
//                          \" -I "C:\Users\icecreamco\Desktop\GAP\EndDvice   /
//                          - 拨码开关地址版\Projects\zstack\Samples\SampleAp /
//                          p\CC2530DB\..\..\..\..\..\Components\services\sda /
//                          ta\" -I "C:\Users\icecreamco\Desktop\GAP\EndDvice /
//                           - 拨码开关地址版\Projects\zstack\Samples\SampleA /
//                          pp\CC2530DB\..\..\..\..\..\Components\stack\af\"  /
//                          -I "C:\Users\icecreamco\Desktop\GAP\EndDvice -    /
//                          拨码开关地址版\Projects\zstack\Samples\SampleApp\ /
//                          CC2530DB\..\..\..\..\..\Components\stack\nwk\"    /
//                          -I "C:\Users\icecreamco\Desktop\GAP\EndDvice -    /
//                          拨码开关地址版\Projects\zstack\Samples\SampleApp\ /
//                          CC2530DB\..\..\..\..\..\Components\stack\sapi\"   /
//                          -I "C:\Users\icecreamco\Desktop\GAP\EndDvice -    /
//                          拨码开关地址版\Projects\zstack\Samples\SampleApp\ /
//                          CC2530DB\..\..\..\..\..\Components\stack\sec\"    /
//                          -I "C:\Users\icecreamco\Desktop\GAP\EndDvice -    /
//                          拨码开关地址版\Projects\zstack\Samples\SampleApp\ /
//                          CC2530DB\..\..\..\..\..\Components\stack\sys\"    /
//                          -I "C:\Users\icecreamco\Desktop\GAP\EndDvice -    /
//                          拨码开关地址版\Projects\zstack\Samples\SampleApp\ /
//                          CC2530DB\..\..\..\..\..\Components\stack\zdo\"    /
//                          -I "C:\Users\icecreamco\Desktop\GAP\EndDvice -    /
//                          拨码开关地址版\Projects\zstack\Samples\SampleApp\ /
//                          CC2530DB\..\..\..\..\..\Components\zmac\" -I      /
//                          "C:\Users\icecreamco\Desktop\GAP\EndDvice -       /
//                          拨码开关地址版\Projects\zstack\Samples\SampleApp\ /
//                          CC2530DB\..\..\..\..\..\Components\zmac\f8w\"     /
//                          -Ohz --require_prototypes                         /
//    List file          =  C:\Users\icecreamco\Desktop\GAP\EndDvice -        /
//                          拨码开关地址版\Projects\zstack\Samples\SampleApp\ /
//                          CC2530DB\EndDeviceEB\List\hal_sleep.s51           /
//                                                                            /
//                                                                            /
///////////////////////////////////////////////////////////////////////////////

        NAME hal_sleep

        RTMODEL "__SystemLibrary", "CLib"
        RTMODEL "__calling_convention", "xdata_reentrant"
        RTMODEL "__code_model", "banked"
        RTMODEL "__core", "plain"
        RTMODEL "__data_model", "large"
        RTMODEL "__dptr_size", "16"
        RTMODEL "__extended_stack", "disabled"
        RTMODEL "__location_for_constants", "data"
        RTMODEL "__number_of_dptrs", "1"
        RTMODEL "__rt_version", "1"

        RSEG DOVERLAY:DATA:NOROOT(0)
        RSEG IOVERLAY:IDATA:NOROOT(0)
        RSEG ISTACK:IDATA:NOROOT(0)
        RSEG PSTACK:XDATA:NOROOT(0)
        RSEG XSTACK:XDATA:NOROOT(0)

        EXTERN ?ALLOC_XSTACK8
        EXTERN ?BANKED_ENTER_XDATA
        EXTERN ?BANKED_LEAVE_XDATA
        EXTERN ?BDISPATCH
        EXTERN ?BRET
        EXTERN ?DEALLOC_XSTACK8
        EXTERN ?L_ADD
        EXTERN ?L_ADD_TO_X
        EXTERN ?L_ADD_X
        EXTERN ?L_MOV_TO_X
        EXTERN ?L_MOV_X
        EXTERN ?L_MUL
        EXTERN ?L_SUB
        EXTERN ?UL_DIV_MOD
        EXTERN ?UL_GE_X
        EXTERN ?UL_GT
        EXTERN ?UL_GT_X
        EXTERN ?UL_SHR
        EXTERN ?V0
        EXTERN ?XLOAD_R2345
        EXTERN ?XSP
        EXTERN ?XSTACK_DISP0_8
        EXTERN ?XSTORE_R2345
        EXTERN __INIT_DATA_I
        EXTERN __INIT_XDATA_I
        EXTERN __INIT_XDATA_Z

        PUBLIC ??TimerElapsed?relay
        FUNCTION ??TimerElapsed?relay,0203H
        PUBLIC ??halRestoreSleepLevel?relay
        FUNCTION ??halRestoreSleepLevel?relay,0203H
        PUBLIC ??halSetMaxSleepLoopTime?relay
        FUNCTION ??halSetMaxSleepLoopTime?relay,0203H
        PUBLIC ??halSetSleepMode?relay
        FUNCTION ??halSetSleepMode?relay,0203H
        PUBLIC ??halSleep?relay
        FUNCTION ??halSleep?relay,0203H
        PUBLIC ??halSleepSetTimer?relay
        FUNCTION ??halSleepSetTimer?relay,0203H
        PUBWEAK `??halSleepTimerIsr??INTVEC 43`
        PUBWEAK IEN2
        PUBWEAK PCON
        PUBWEAK SLEEPCMD
        PUBWEAK ST0
        PUBWEAK ST1
        PUBWEAK ST2
        PUBWEAK STLOAD
        PUBLIC Time_Interval
        PUBLIC TimerElapsed
        FUNCTION TimerElapsed,0203H
        ARGFRAME XSTACK, 0, STACK
        PUBWEAK _A_IEN0
        PUBWEAK _A_IEN1
        PUBWEAK _A_IRCON
        PUBWEAK __Constant_1d4c0
        PUBWEAK __Constant_1f
        PUBWEAK __Constant_29f
        PUBWEAK __Constant_2d
        PUBWEAK __Constant_36ee80
        PUBWEAK __Constant_64
        PUBWEAK __Constant_fde8
        PUBWEAK __Constant_ffffffe9
        PUBWEAK __Constant_fffffffe
        PUBLIC halRestoreSleepLevel
        FUNCTION halRestoreSleepLevel,0203H
        ARGFRAME XSTACK, 0, STACK
        PUBLIC halSetMaxSleepLoopTime
        FUNCTION halSetMaxSleepLoopTime,0203H
        ARGFRAME XSTACK, 0, STACK
        LOCFRAME XSTACK, 12, STACK
        PUBLIC halSetSleepMode
        FUNCTION halSetSleepMode,0203H
        ARGFRAME XSTACK, 20, STACK
        ARGFRAME IOVERLAY, 0, STATIC
        ARGFRAME DOVERLAY, 0, STATIC
        PUBLIC halSleep
        FUNCTION halSleep,021203H
        ARGFRAME XSTACK, 0, STACK
        LOCFRAME XSTACK, 20, STACK
        PUBLIC halSleepPconValue
        PUBLIC halSleepSetTimer
        FUNCTION halSleepSetTimer,0203H
        ARGFRAME XSTACK, 20, STACK
        ARGFRAME IOVERLAY, 0, STATIC
        ARGFRAME DOVERLAY, 0, STATIC
        LOCFRAME ISTACK, 1, STACK
        LOCFRAME XSTACK, 20, STACK
        PUBLIC halSleepTimerIsr
        FUNCTION halSleepTimerIsr,0233H
        ARGFRAME XSTACK, 0, STACK
        LOCFRAME ISTACK, 3, STACK
        PUBLIC sleepMode
        PUBLIC startSleepTime
        
        CFI Names cfiNames0
        CFI StackFrame CFA_SP SP IDATA
        CFI StackFrame CFA_PSP16 PSP16 XDATA
        CFI StackFrame CFA_XSP16 XSP16 XDATA
        CFI StaticOverlayFrame CFA_IOVERLAY IOVERLAY
        CFI StaticOverlayFrame CFA_DOVERLAY DOVERLAY
        CFI Resource `PSW.CY`:1, `B.BR0`:1, `B.BR1`:1, `B.BR2`:1, `B.BR3`:1
        CFI Resource `B.BR4`:1, `B.BR5`:1, `B.BR6`:1, `B.BR7`:1, `VB.BR8`:1
        CFI Resource `VB.BR9`:1, `VB.BR10`:1, `VB.BR11`:1, `VB.BR12`:1
        CFI Resource `VB.BR13`:1, `VB.BR14`:1, `VB.BR15`:1, VB:8, B:8, A:8
        CFI Resource PSW:8, DPL0:8, DPH0:8, R0:8, R1:8, R2:8, R3:8, R4:8, R5:8
        CFI Resource R6:8, R7:8, V0:8, V1:8, V2:8, V3:8, V4:8, V5:8, V6:8, V7:8
        CFI Resource V8:8, V9:8, V10:8, V11:8, V12:8, V13:8, V14:8, V15:8, SP:8
        CFI Resource PSPH:8, PSPL:8, PSP16:16, XSPH:8, XSPL:8, XSP16:16
        CFI VirtualResource ?RET:24
        CFI Resource ?BRET_EXT:8
        CFI VirtualResource ?RET_HIGH:8, ?RET_LOW:8
        CFI ResourceParts PSP16 PSPH, PSPL
        CFI ResourceParts XSP16 XSPH, XSPL
        CFI ResourceParts ?RET ?BRET_EXT, ?RET_HIGH, ?RET_LOW
        CFI EndNames cfiNames0
        
        CFI Common cfiCommon0 Using cfiNames0
        CFI CodeAlign 1
        CFI DataAlign -1
        CFI ReturnAddress ?RET CODE
        CFI CFA_DOVERLAY Used
        CFI CFA_IOVERLAY Used
        CFI CFA_SP SP+-3
        CFI CFA_PSP16 PSP16+0
        CFI CFA_XSP16 XSP16+0
        CFI `PSW.CY` SameValue
        CFI `B.BR0` SameValue
        CFI `B.BR1` SameValue
        CFI `B.BR2` SameValue
        CFI `B.BR3` SameValue
        CFI `B.BR4` SameValue
        CFI `B.BR5` SameValue
        CFI `B.BR6` SameValue
        CFI `B.BR7` SameValue
        CFI `VB.BR8` SameValue
        CFI `VB.BR9` SameValue
        CFI `VB.BR10` SameValue
        CFI `VB.BR11` SameValue
        CFI `VB.BR12` SameValue
        CFI `VB.BR13` SameValue
        CFI `VB.BR14` SameValue
        CFI `VB.BR15` SameValue
        CFI VB SameValue
        CFI B Undefined
        CFI A Undefined
        CFI PSW SameValue
        CFI DPL0 SameValue
        CFI DPH0 SameValue
        CFI R0 Undefined
        CFI R1 Undefined
        CFI R2 Undefined
        CFI R3 Undefined
        CFI R4 Undefined
        CFI R5 Undefined
        CFI R6 SameValue
        CFI R7 SameValue
        CFI V0 SameValue
        CFI V1 SameValue
        CFI V2 SameValue
        CFI V3 SameValue
        CFI V4 SameValue
        CFI V5 SameValue
        CFI V6 SameValue
        CFI V7 SameValue
        CFI V8 SameValue
        CFI V9 SameValue
        CFI V10 SameValue
        CFI V11 SameValue
        CFI V12 SameValue
        CFI V13 SameValue
        CFI V14 SameValue
        CFI V15 SameValue
        CFI PSPH Undefined
        CFI PSPL Undefined
        CFI XSPH Undefined
        CFI XSPL Undefined
        CFI ?RET Concat
        CFI ?BRET_EXT Frame(CFA_SP, 3)
        CFI ?RET_HIGH Frame(CFA_SP, 2)
        CFI ?RET_LOW Frame(CFA_SP, 1)
        CFI EndCommon cfiCommon0
        
        
        CFI Common cfiCommon1 Using cfiNames0
        CFI CodeAlign 1
        CFI DataAlign -1
        CFI ReturnAddress ?RET CODE
        CFI CFA_DOVERLAY Used
        CFI CFA_IOVERLAY Used
        CFI CFA_SP SP+-2
        CFI CFA_PSP16 PSP16+0
        CFI CFA_XSP16 XSP16+0
        CFI `PSW.CY` SameValue
        CFI `B.BR0` SameValue
        CFI `B.BR1` SameValue
        CFI `B.BR2` SameValue
        CFI `B.BR3` SameValue
        CFI `B.BR4` SameValue
        CFI `B.BR5` SameValue
        CFI `B.BR6` SameValue
        CFI `B.BR7` SameValue
        CFI `VB.BR8` SameValue
        CFI `VB.BR9` SameValue
        CFI `VB.BR10` SameValue
        CFI `VB.BR11` SameValue
        CFI `VB.BR12` SameValue
        CFI `VB.BR13` SameValue
        CFI `VB.BR14` SameValue
        CFI `VB.BR15` SameValue
        CFI VB SameValue
        CFI B SameValue
        CFI A SameValue
        CFI PSW SameValue
        CFI DPL0 SameValue
        CFI DPH0 SameValue
        CFI R0 SameValue
        CFI R1 SameValue
        CFI R2 SameValue
        CFI R3 SameValue
        CFI R4 SameValue
        CFI R5 SameValue
        CFI R6 SameValue
        CFI R7 SameValue
        CFI V0 SameValue
        CFI V1 SameValue
        CFI V2 SameValue
        CFI V3 SameValue
        CFI V4 SameValue
        CFI V5 SameValue
        CFI V6 SameValue
        CFI V7 SameValue
        CFI V8 SameValue
        CFI V9 SameValue
        CFI V10 SameValue
        CFI V11 SameValue
        CFI V12 SameValue
        CFI V13 SameValue
        CFI V14 SameValue
        CFI V15 SameValue
        CFI PSPH Undefined
        CFI PSPL Undefined
        CFI XSPH Undefined
        CFI XSPL Undefined
        CFI ?RET Concat
        CFI ?BRET_EXT SameValue
        CFI ?RET_HIGH Frame(CFA_SP, 2)
        CFI ?RET_LOW Frame(CFA_SP, 1)
        CFI EndCommon cfiCommon1
        
MAC_PwrNextTimeout  SYMBOL "MAC_PwrNextTimeout"
halAssertHandler    SYMBOL "halAssertHandler"
MAC_PwrOffReq       SYMBOL "MAC_PwrOffReq"
HalKeyEnterSleep    SYMBOL "HalKeyEnterSleep"
HalLedEnterSleep    SYMBOL "HalLedEnterSleep"
HalLedExitSleep     SYMBOL "HalLedExitSleep"
HalKeyExitSleep     SYMBOL "HalKeyExitSleep"
MAC_PwrOnReq        SYMBOL "MAC_PwrOnReq"
macMcuTimer2OverflowWorkaround SYMBOL "macMcuTimer2OverflowWorkaround"
??HalKeyEnterSleep?relay SYMBOL "?relay", HalKeyEnterSleep
??HalKeyExitSleep?relay SYMBOL "?relay", HalKeyExitSleep
??HalLedEnterSleep?relay SYMBOL "?relay", HalLedEnterSleep
??HalLedExitSleep?relay SYMBOL "?relay", HalLedExitSleep
??MAC_PwrNextTimeout?relay SYMBOL "?relay", MAC_PwrNextTimeout
??MAC_PwrOffReq?relay SYMBOL "?relay", MAC_PwrOffReq
??MAC_PwrOnReq?relay SYMBOL "?relay", MAC_PwrOnReq
??halAssertHandler?relay SYMBOL "?relay", halAssertHandler
??macMcuTimer2OverflowWorkaround?relay SYMBOL "?relay", macMcuTimer2OverflowWorkaround
TimerElapsed        SYMBOL "TimerElapsed"
??TimerElapsed?relay SYMBOL "?relay", TimerElapsed
halRestoreSleepLevel SYMBOL "halRestoreSleepLevel"
??halRestoreSleepLevel?relay SYMBOL "?relay", halRestoreSleepLevel
halSetMaxSleepLoopTime SYMBOL "halSetMaxSleepLoopTime"
??halSetMaxSleepLoopTime?relay SYMBOL "?relay", halSetMaxSleepLoopTime
halSetSleepMode     SYMBOL "halSetSleepMode"
??halSetSleepMode?relay SYMBOL "?relay", halSetSleepMode
halSleep            SYMBOL "halSleep"
??halSleep?relay    SYMBOL "?relay", halSleep
halSleepSetTimer    SYMBOL "halSleepSetTimer"
??halSleepSetTimer?relay SYMBOL "?relay", halSleepSetTimer
halSleepTimerIsr    SYMBOL "halSleepTimerIsr"
`??halSleepTimerIsr??INTVEC 43` SYMBOL "??INTVEC 43", halSleepTimerIsr

        EXTERN MAC_PwrNextTimeout
        FUNCTION MAC_PwrNextTimeout,0202H
        ARGFRAME ISTACK, 0, STACK
        ARGFRAME PSTACK, 0, STACK
        ARGFRAME XSTACK, 20, STACK
        ARGFRAME IOVERLAY, 0, STATIC
        ARGFRAME DOVERLAY, 0, STATIC
        EXTERN halAssertHandler
        FUNCTION halAssertHandler,0202H
        ARGFRAME ISTACK, 0, STACK
        ARGFRAME PSTACK, 0, STACK
        ARGFRAME XSTACK, 20, STACK
        ARGFRAME IOVERLAY, 0, STATIC
        ARGFRAME DOVERLAY, 0, STATIC
        EXTERN MAC_PwrOffReq
        FUNCTION MAC_PwrOffReq,0202H
        ARGFRAME ISTACK, 0, STACK
        ARGFRAME PSTACK, 0, STACK
        ARGFRAME XSTACK, 20, STACK
        ARGFRAME IOVERLAY, 0, STATIC
        ARGFRAME DOVERLAY, 0, STATIC
        EXTERN HalKeyEnterSleep
        FUNCTION HalKeyEnterSleep,0202H
        ARGFRAME ISTACK, 0, STACK
        ARGFRAME PSTACK, 0, STACK
        ARGFRAME XSTACK, 20, STACK
        ARGFRAME IOVERLAY, 0, STATIC
        ARGFRAME DOVERLAY, 0, STATIC
        EXTERN HalLedEnterSleep
        FUNCTION HalLedEnterSleep,0202H
        ARGFRAME ISTACK, 0, STACK
        ARGFRAME PSTACK, 0, STACK
        ARGFRAME XSTACK, 20, STACK
        ARGFRAME IOVERLAY, 0, STATIC
        ARGFRAME DOVERLAY, 0, STATIC
        EXTERN HalLedExitSleep
        FUNCTION HalLedExitSleep,0202H
        ARGFRAME ISTACK, 0, STACK
        ARGFRAME PSTACK, 0, STACK
        ARGFRAME XSTACK, 20, STACK
        ARGFRAME IOVERLAY, 0, STATIC
        ARGFRAME DOVERLAY, 0, STATIC
        EXTERN HalKeyExitSleep
        FUNCTION HalKeyExitSleep,0202H
        ARGFRAME ISTACK, 0, STACK
        ARGFRAME PSTACK, 0, STACK
        ARGFRAME XSTACK, 20, STACK
        ARGFRAME IOVERLAY, 0, STATIC
        ARGFRAME DOVERLAY, 0, STATIC
        EXTERN MAC_PwrOnReq
        FUNCTION MAC_PwrOnReq,0202H
        ARGFRAME ISTACK, 0, STACK
        ARGFRAME PSTACK, 0, STACK
        ARGFRAME XSTACK, 20, STACK
        ARGFRAME IOVERLAY, 0, STATIC
        ARGFRAME DOVERLAY, 0, STATIC
        EXTERN macMcuTimer2OverflowWorkaround
        FUNCTION macMcuTimer2OverflowWorkaround,0202H
        ARGFRAME ISTACK, 0, STACK
        ARGFRAME PSTACK, 0, STACK
        ARGFRAME XSTACK, 20, STACK
        ARGFRAME IOVERLAY, 0, STATIC
        ARGFRAME DOVERLAY, 0, STATIC
        EXTERN ??HalKeyEnterSleep?relay
        FUNCTION ??HalKeyEnterSleep?relay,00H
        EXTERN ??HalKeyExitSleep?relay
        FUNCTION ??HalKeyExitSleep?relay,00H
        EXTERN ??HalLedEnterSleep?relay
        FUNCTION ??HalLedEnterSleep?relay,00H
        EXTERN ??HalLedExitSleep?relay
        FUNCTION ??HalLedExitSleep?relay,00H
        EXTERN ??MAC_PwrNextTimeout?relay
        FUNCTION ??MAC_PwrNextTimeout?relay,00H
        EXTERN ??MAC_PwrOffReq?relay
        FUNCTION ??MAC_PwrOffReq?relay,00H
        EXTERN ??MAC_PwrOnReq?relay
        FUNCTION ??MAC_PwrOnReq?relay,00H
        EXTERN ??halAssertHandler?relay
        FUNCTION ??halAssertHandler?relay,00H
        EXTERN ??macMcuTimer2OverflowWorkaround?relay
        FUNCTION ??macMcuTimer2OverflowWorkaround?relay,00H
        EXTERN CountF
        EXTERN Mode
        EXTERN SleepTime
        EXTERN SleepTime_MS
        EXTERN TCount
        EXTERN TX_Flag
        EXTERN delayt
        EXTERN osal_systemClock

// C:\Users\icecreamco\Desktop\GAP\EndDvice - 拨码开关地址版\Components\hal\target\CC2530EB\hal_sleep.c
//    1 /**************************************************************************************************
//    2   Filename:       hal_sleep.c
//    3   Revised:        $Date: 2012-03-07 11:55:12 -0800 (Wed, 07 Mar 2012) $
//    4   Revision:       $Revision: 29664 $
//    5 
//    6   Description:    This module contains the HAL power management procedures for the CC2530.
//    7 
//    8 
//    9   Copyright 2006-2012 Texas Instruments Incorporated. All rights reserved.
//   10 
//   11   IMPORTANT: Your use of this Software is limited to those specific rights
//   12   granted under the terms of a software license agreement between the user
//   13   who downloaded the software, his/her employer (which must be your employer)
//   14   and Texas Instruments Incorporated (the "License").  You may not use this
//   15   Software unless you agree to abide by the terms of the License. The License
//   16   limits your use, and you acknowledge, that the Software may not be modified,
//   17   copied or distributed unless embedded on a Texas Instruments microcontroller
//   18   or used solely and exclusively in conjunction with a Texas Instruments radio
//   19   frequency transceiver, which is integrated into your product.  Other than for
//   20   the foregoing purpose, you may not use, reproduce, copy, prepare derivative
//   21   works of, modify, distribute, perform, display or sell this Software and/or
//   22   its documentation for any purpose.
//   23 
//   24   YOU FURTHER ACKNOWLEDGE AND AGREE THAT THE SOFTWARE AND DOCUMENTATION ARE
//   25   PROVIDED AS IS?WITHOUT WARRANTY OF ANY KIND, EITHER EXPRESS OR IMPLIED,
//   26   INCLUDING WITHOUT LIMITATION, ANY WARRANTY OF MERCHANTABILITY, TITLE,
//   27   NON-INFRINGEMENT AND FITNESS FOR A PARTICULAR PURPOSE. IN NO EVENT SHALL
//   28   TEXAS INSTRUMENTS OR ITS LICENSORS BE LIABLE OR OBLIGATED UNDER CONTRACT,
//   29   NEGLIGENCE, STRICT LIABILITY, CONTRIBUTION, BREACH OF WARRANTY, OR OTHER
//   30   LEGAL EQUITABLE THEORY ANY DIRECT OR INDIRECT DAMAGES OR EXPENSES
//   31   INCLUDING BUT NOT LIMITED TO ANY INCIDENTAL, SPECIAL, INDIRECT, PUNITIVE
//   32   OR CONSEQUENTIAL DAMAGES, LOST PROFITS OR LOST DATA, COST OF PROCUREMENT
//   33   OF SUBSTITUTE GOODS, TECHNOLOGY, SERVICES, OR ANY CLAIMS BY THIRD PARTIES
//   34   (INCLUDING BUT NOT LIMITED TO ANY DEFENSE THEREOF), OR OTHER SIMILAR COSTS.
//   35 
//   36   Should you have any questions regarding your right to use this Software,
//   37   contact Texas Instruments Incorporated at www.TI.com.
//   38 **************************************************************************************************/
//   39 
//   40 /* ------------------------------------------------------------------------------------------------
//   41  *                                          Includes
//   42  * ------------------------------------------------------------------------------------------------
//   43  */
//   44 #include "hal_types.h"
//   45 #include "hal_mcu.h"

        ASEGN SFR_AN:DATA:NOROOT,087H
// unsigned char volatile __sfr PCON
PCON:
        DATA8
        DS 1

        ASEGN SFR_AN:DATA:NOROOT,095H
// unsigned char volatile __sfr ST0
ST0:
        DATA8
        DS 1

        ASEGN SFR_AN:DATA:NOROOT,096H
// unsigned char volatile __sfr ST1
ST1:
        DATA8
        DS 1

        ASEGN SFR_AN:DATA:NOROOT,097H
// unsigned char volatile __sfr ST2
ST2:
        DATA8
        DS 1

        ASEGN SFR_AN:DATA:NOROOT,09aH
// unsigned char volatile __sfr IEN2
IEN2:
        DATA8
        DS 1

        ASEGN SFR_AN:DATA:NOROOT,0a8H
// union <unnamed> volatile __sfr _A_IEN0
_A_IEN0:
        DATA8
        DS 1

        ASEGN SFR_AN:DATA:NOROOT,0adH
// unsigned char volatile __sfr STLOAD
STLOAD:
        DATA8
        DS 1

        ASEGN SFR_AN:DATA:NOROOT,0b8H
// union <unnamed> volatile __sfr _A_IEN1
_A_IEN1:
        DATA8
        DS 1

        ASEGN SFR_AN:DATA:NOROOT,0beH
// unsigned char volatile __sfr SLEEPCMD
SLEEPCMD:
        DATA8
        DS 1

        ASEGN SFR_AN:DATA:NOROOT,0c0H
// union <unnamed> volatile __sfr _A_IRCON
_A_IRCON:
        DATA8
        DS 1
//   46 #include "hal_board.h"
//   47 #include "hal_sleep.h"
//   48 #include "hal_led.h"
//   49 #include "hal_key.h"
//   50 #include "mac_api.h"
//   51 #include "OSAL.h"
//   52 #include "OSAL_Timers.h"
//   53 #include "OSAL_Clock.h"
//   54 #include "OSAL_Tasks.h"
//   55 #include "OSAL_PwrMgr.h"
//   56 #include "OnBoard.h"
//   57 #include "hal_drivers.h"
//   58 #include "hal_assert.h"
//   59 #include "mac_mcu.h"
//   60 #include "SampleApp.h"
//   61 #include "ZDApp.h"
//   62 #include "ZDObject.h"
//   63 #ifndef ZG_BUILD_ENDDEVICE_TYPE
//   64 # define ZG_BUILD_ENDDEVICE_TYPE FALSE
//   65 #endif
//   66 
//   67 #if ZG_BUILD_ENDDEVICE_TYPE && defined (NWK_AUTO_POLL)
//   68 #include "nwk_globals.h"
//   69 #include "ZGlobals.h"
//   70 #endif
//   71 

        RSEG XDATA_Z:XDATA:NOROOT(0)
        DATA8
//   72 uint8 sleepMode = FREE_SLEEP;						// 开机联网睡眠或是采集睡眠
sleepMode:
        DS 1
        REQUIRE __INIT_XDATA_Z

        RSEG XDATA_I:XDATA:NOROOT(0)
//   73 uint32 startSleepTime = DEFAULT_START_SLEEP_TIME;				// 开机联网失败的睡眠时间
startSleepTime:
        DATA32
        DS 4
        REQUIRE `?<Initializer for startSleepTime>`
        REQUIRE __INIT_XDATA_I

        RSEG XDATA_Z:XDATA:NOROOT(0)
        DATA32
//   74 uint32 Time_Interval = 0;         //数据采集间隔
Time_Interval:
        DS 4
        REQUIRE __INIT_XDATA_Z
//   75 #define MAXSLEEPTIME 65000
//   76 /* ------------------------------------------------------------------------------------------------
//   77  *                                           Macros
//   78  * ------------------------------------------------------------------------------------------------
//   79  */
//   80 
//   81 /* POWER CONSERVATION DEFINITIONS
//   82  * Sleep mode H/W definitions (enabled with POWER_SAVING compile option)
//   83  */
//   84 #define CC2530_PM0            0  /* PM0, Clock oscillators on, voltage regulator on */
//   85 #define CC2530_PM1            1  /* PM1, 32.768 kHz oscillators on, voltage regulator on */
//   86 #define CC2530_PM2            2  /* PM2, 32.768 kHz oscillators on, voltage regulator off */
//   87 #define CC2530_PM3            3  /* PM3, All clock oscillators off, voltage regulator off */
//   88 
//   89 /* HAL power management mode is set according to the power management state. The default
//   90  * setting is HAL_SLEEP_OFF. The actual value is tailored to different HW platform. Both
//   91  * HAL_SLEEP_TIMER and HAL_SLEEP_DEEP selections will:
//   92  *   1. turn off the system clock, and
//   93  *   2. halt the MCU.
//   94  * HAL_SLEEP_TIMER can be woken up by sleep timer interrupt, I/O interrupt and reset.
//   95  * HAL_SLEEP_DEEP can be woken up by I/O interrupt and reset.
//   96  */
//   97 #define HAL_SLEEP_OFF         CC2530_PM0
//   98 #define HAL_SLEEP_TIMER       CC2530_PM2
//   99 #define HAL_SLEEP_DEEP        CC2530_PM3
//  100 
//  101 /* MAX_SLEEP_TIME calculation:
//  102  *   Sleep timer maximum duration = 0xFFFF7F / 32768 Hz = 511.996 seconds
//  103  *   Round it to 510 seconds or 510000 ms
//  104  */
//  105 #define MAX_SLEEP_TIME                   510000             /* maximum time to sleep allowed by ST */
//  106 #define TICKS_SUBTRACTED                 2
//  107 
//  108 /* minimum time to sleep, this macro is to:
//  109  * 1. avoid thrashing in-and-out of sleep with short OSAL timer (~2ms)
//  110  * 2. define minimum safe sleep period
//  111  */
//  112 #if !defined (PM_MIN_SLEEP_TIME)
//  113 #define PM_MIN_SLEEP_TIME                14                 /* default to minimum safe sleep time minimum CAP */
//  114 #endif
//  115 
//  116 /* The PCON instruction must be 4-byte aligned. The following code may cause excessive power
//  117  * consumption if not aligned. See linker file ".xcl" for actual placement.
//  118  */
//  119 #pragma location = "SLEEP_CODE"
//  120 void halSetSleepMode(void);
//  121 
//  122 /* This value is used to adjust the sleep timer compare value such that the sleep timer
//  123  * compare takes into account the amount of processing time spent in function halSleep().
//  124  * The first value is determined by measuring the number of sleep timer ticks it from
//  125  * the beginning of the function to entering sleep mode or more precisely, when
//  126  * MAC_PwrNextTimeout() is called.  The second value is determined by measuring the number
//  127  * of sleep timer ticks from exit of sleep mode to the call to MAC_PwrOnReq() where the
//  128  * MAC timer is restarted.
//  129  */
//  130 #define HAL_SLEEP_ADJ_TICKS   (11 + 12)
//  131 
//  132 #ifndef HAL_SLEEP_DEBUG_POWER_MODE
//  133 /* set CC2530 power mode; always use PM2 */
//  134 #define HAL_SLEEP_PREP_POWER_MODE(mode)     st( SLEEPCMD &= ~PMODE; /* clear mode bits */    \ 
//  135                                                 SLEEPCMD |= mode;   /* set mode bits   */    \ 
//  136                                                 while (!(STLOAD & LDRDY));                   \ 
//  137                                                 halSleepPconValue = PCON_IDLE;               \ 
//  138                                               )
//  139 #define HAL_SLEEP_SET_POWER_MODE()          halSetSleepMode()
//  140 #else
//  141 /* Debug: don't set power mode, just block until sleep timer interrupt */
//  142 #define HAL_SLEEP_PREP_POWER_MODE(mode)     /* nothing */
//  143 #define HAL_SLEEP_SET_POWER_MODE()          st( while(halSleepInt == FALSE); \ 
//  144                                                 halSleepInt = FALSE;         \ 
//  145                                                 HAL_DISABLE_INTERRUPTS();    \ 
//  146                                               )
//  147 #endif
//  148 
//  149 /* sleep and external interrupt port masks */
//  150 #define STIE_BV                             BV(5)
//  151 #define P0IE_BV                             BV(5)
//  152 #define P1IE_BV                             BV(4)
//  153 #define P2IE_BV                             BV(1)
//  154 
//  155 /* sleep timer interrupt control */
//  156 #define HAL_SLEEP_TIMER_ENABLE_INT()        st(IEN0 |= STIE_BV;)     /* enable sleep timer interrupt */
//  157 #define HAL_SLEEP_TIMER_DISABLE_INT()       st(IEN0 &= ~STIE_BV;)    /* disable sleep timer interrupt */
//  158 #define HAL_SLEEP_TIMER_CLEAR_INT()         st(STIF = 0;)            /* clear sleep interrupt flag */
//  159 
//  160 /* backup interrupt enable registers before sleep */
//  161 #define HAL_SLEEP_IE_BACKUP_AND_DISABLE(ien0, ien1, ien2) st(ien0  = IEN0;    /* backup IEN0 register */ \ 
//  162                                                              ien1  = IEN1;    /* backup IEN1 register */ \ 
//  163                                                              ien2  = IEN2;    /* backup IEN2 register */ \ 
//  164                                                              IEN0 &= STIE_BV; /* disable IEN0 except STIE */ \ 
//  165                                                              IEN1 &= P0IE_BV; /* disable IEN1 except P0IE */ \ 
//  166                                                              IEN2 &= (P1IE_BV|P2IE_BV);) /* disable IEN2 except P1IE, P2IE */
//  167 
//  168 /* restore interrupt enable registers before sleep */
//  169 #define HAL_SLEEP_IE_RESTORE(ien0, ien1, ien2) st(IEN0 = ien0;   /* restore IEN0 register */ \ 
//  170                                                   IEN1 = ien1;   /* restore IEN1 register */ \ 
//  171                                                   IEN2 = ien2;)  /* restore IEN2 register */
//  172 
//  173 /* convert msec to 320 usec units with round */
//  174 #define HAL_SLEEP_MS_TO_320US(ms)           (((((uint32) (ms)) * 100) + 31) / 32)
//  175 
//  176 /* for optimized indexing of uint32's */
//  177 #if HAL_MCU_LITTLE_ENDIAN()
//  178 #define UINT32_NDX0   0
//  179 #define UINT32_NDX1   1
//  180 #define UINT32_NDX2   2
//  181 #define UINT32_NDX3   3
//  182 #else
//  183 #define UINT32_NDX0   3
//  184 #define UINT32_NDX1   2
//  185 #define UINT32_NDX2   1
//  186 #define UINT32_NDX3   0
//  187 #endif
//  188 

        RSEG XDATA_I:XDATA:NOROOT(0)
//  189 static uint32 maxSleepLoopTime =  HAL_SLEEP_MS_TO_320US(MAX_SLEEP_TIME);
maxSleepLoopTime:
        DATA32
        DS 4
        REQUIRE `?<Initializer for maxSleepLoopTime>`
        REQUIRE __INIT_XDATA_I
//  190 
//  191 /* ------------------------------------------------------------------------------------------------
//  192  *                                        Global Variables
//  193  * ------------------------------------------------------------------------------------------------
//  194  */
//  195 /* PCON register value to program when setting power mode */

        RSEG DATA_I:DATA:NOROOT(0)
//  196 volatile __data uint8 halSleepPconValue = PCON_IDLE;
halSleepPconValue:
        DATA8
        DS 1
        REQUIRE `?<Initializer for halSleepPconValue>`
        REQUIRE __INIT_DATA_I
//  197 
//  198 /* ------------------------------------------------------------------------------------------------
//  199  *                                        Local Variables
//  200  * ------------------------------------------------------------------------------------------------
//  201  */
//  202 
//  203 /* HAL power management mode is set according to the power management state.
//  204  */

        RSEG XDATA_Z:XDATA:NOROOT(0)
        DATA8
//  205 static uint8 halPwrMgtMode = HAL_SLEEP_OFF;
halPwrMgtMode:
        DS 1
        REQUIRE __INIT_XDATA_Z
//  206 
//  207 #ifdef HAL_SLEEP_DEBUG_POWER_MODE
//  208 static bool halSleepInt = FALSE;
//  209 #endif
//  210 
//  211 /* ------------------------------------------------------------------------------------------------
//  212  *                                      Function Prototypes
//  213  * ------------------------------------------------------------------------------------------------
//  214  */
//  215 
//  216 void halSleepSetTimer(uint32 timeout);
//  217 
//  218 /**************************************************************************************************
//  219  * @fn          halSleep
//  220  *
//  221  * @brief       This function put the CC2530 to sleep. The PCON instruction must be 4-byte aligned.
//  222  *              The following code may cause excessive power consumption if not aligned. See linker
//  223  *              file ".xcl" for actual placement.
//  224  *
//  225  * input parameters
//  226  *
//  227  * @param       None.
//  228  *
//  229  * output parameters
//  230  *
//  231  * None.
//  232  *
//  233  * @return      None.
//  234  **************************************************************************************************
//  235  */

        RSEG SLEEP_CODE:CODE:NOROOT(0)
//  236 void halSetSleepMode(void)
halSetSleepMode:
        CFI Block cfiBlock0 Using cfiCommon0
        CFI Function halSetSleepMode
        CODE
//  237 {
        ; Saved register size: 0
        ; Auto size: 0
//  238   PCON = halSleepPconValue;
        MOV     0x87,halSleepPconValue
//  239   HAL_DISABLE_INTERRUPTS();
        CLR     0xa8.7
//  240 }
        LJMP    ?BRET
        CFI EndBlock cfiBlock0
        REQUIRE PCON
        REQUIRE _A_IEN0
//  241 
//  242 /**************************************************************************************************
//  243  * @fn          halSetMaxSleepLoopTime
//  244  *
//  245  * @brief       This function is to used to setup the maximum sleep loop time. This sleep loop time 
//  246  *              should be lesser than T2 rollover so that a maximum of only one rollover occurs 
//  247  *              when cc2530 is in sleep. This function should be called whenever rolloverTime is 
//  248  *              changed using the function macBackoffTimerSetRollover(macTimerRollover);
//  249  *
//  250  * input parameters
//  251  *
//  252  * @param       rolloverTime.
//  253  *
//  254  * output parameters
//  255  *
//  256  * None.
//  257  *
//  258  * @return      None.
//  259  **************************************************************************************************
//  260  */

        RSEG BANKED_CODE:CODE:NOROOT(0)
//  261 void halSetMaxSleepLoopTime(uint32 rolloverTime)
halSetMaxSleepLoopTime:
        CFI Block cfiBlock1 Using cfiCommon0
        CFI Function halSetMaxSleepLoopTime
        CODE
//  262 {
        MOV     A,#-0xc
        LCALL   ?BANKED_ENTER_XDATA
        CFI DPH0 load(1, XDATA, add(CFA_XSP16, literal(-1)))
        CFI DPL0 load(1, XDATA, add(CFA_XSP16, literal(-2)))
        CFI ?BRET_EXT load(1, XDATA, add(CFA_XSP16, literal(-3)))
        CFI ?RET_HIGH load(1, XDATA, add(CFA_XSP16, literal(-4)))
        CFI ?RET_LOW load(1, XDATA, add(CFA_XSP16, literal(-5)))
        CFI R7 load(1, XDATA, add(CFA_XSP16, literal(-6)))
        CFI V3 load(1, XDATA, add(CFA_XSP16, literal(-7)))
        CFI V2 load(1, XDATA, add(CFA_XSP16, literal(-8)))
        CFI V1 load(1, XDATA, add(CFA_XSP16, literal(-9)))
        CFI V0 load(1, XDATA, add(CFA_XSP16, literal(-10)))
        CFI VB load(1, XDATA, add(CFA_XSP16, literal(-11)))
        CFI R6 load(1, XDATA, add(CFA_XSP16, literal(-12)))
        CFI CFA_SP SP+0
        CFI CFA_XSP16 add(XSP16, 12)
        ; Saved register size: 12
        ; Auto size: 0
        MOV     ?V0 + 0,R2
        MOV     ?V0 + 1,R3
        MOV     ?V0 + 2,R4
        MOV     ?V0 + 3,R5
//  263   if( rolloverTime > HAL_SLEEP_MS_TO_320US(MAX_SLEEP_TIME) )
//  264   {
//  265     maxSleepLoopTime = HAL_SLEEP_MS_TO_320US(MAX_SLEEP_TIME);
//  266   }
//  267   maxSleepLoopTime = (rolloverTime - TICKS_SUBTRACTED);
        MOV     DPTR,#__Constant_fffffffe
        MOV     R0,#?V0 + 0
        LCALL   ?L_ADD_X
        MOV     DPTR,#maxSleepLoopTime
        MOV     R0,#?V0 + 0
        LCALL   ?L_MOV_TO_X
//  268 }
        MOV     R7,#0x4
        LJMP    ?BANKED_LEAVE_XDATA
        CFI EndBlock cfiBlock1
//  269 
//  270 /**************************************************************************************************
//  271  * @fn          halSleep
//  272  *
//  273  * @brief       This function is called from the OSAL task loop using and existing OSAL
//  274  *              interface.  It sets the low power mode of the MAC and the CC2530.
//  275  *
//  276  * input parameters
//  277  *
//  278  * @param       osal_timeout - Next OSAL timer timeout.
//  279  *
//  280  * output parameters
//  281  *
//  282  * None.
//  283  *
//  284  * @return      None.
//  285  **************************************************************************************************
//  286  */

        RSEG BANKED_CODE:CODE:NOROOT(0)
//  287 void halSleep( uint16 osal_timeout )
halSleep:
        CFI Block cfiBlock2 Using cfiCommon0
        CFI Function halSleep
        CODE
//  288 {
        FUNCALL halSleep, MAC_PwrNextTimeout
        LOCFRAME ISTACK, 0, STACK
        LOCFRAME PSTACK, 0, STACK
        LOCFRAME XSTACK, 20, STACK
        LOCFRAME IOVERLAY, 0, STATIC
        LOCFRAME DOVERLAY, 0, STATIC
        ARGFRAME ISTACK, 0, STACK
        ARGFRAME PSTACK, 0, STACK
        ARGFRAME XSTACK, 20, STACK
        ARGFRAME IOVERLAY, 0, STATIC
        ARGFRAME DOVERLAY, 0, STATIC
        FUNCALL halSleep, MAC_PwrNextTimeout
        LOCFRAME ISTACK, 0, STACK
        LOCFRAME PSTACK, 0, STACK
        LOCFRAME XSTACK, 20, STACK
        LOCFRAME IOVERLAY, 0, STATIC
        LOCFRAME DOVERLAY, 0, STATIC
        ARGFRAME ISTACK, 0, STACK
        ARGFRAME PSTACK, 0, STACK
        ARGFRAME XSTACK, 20, STACK
        ARGFRAME IOVERLAY, 0, STATIC
        ARGFRAME DOVERLAY, 0, STATIC
        FUNCALL halSleep, halAssertHandler
        LOCFRAME ISTACK, 0, STACK
        LOCFRAME PSTACK, 0, STACK
        LOCFRAME XSTACK, 20, STACK
        LOCFRAME IOVERLAY, 0, STATIC
        LOCFRAME DOVERLAY, 0, STATIC
        ARGFRAME ISTACK, 0, STACK
        ARGFRAME PSTACK, 0, STACK
        ARGFRAME XSTACK, 20, STACK
        ARGFRAME IOVERLAY, 0, STATIC
        ARGFRAME DOVERLAY, 0, STATIC
        FUNCALL halSleep, MAC_PwrOffReq
        LOCFRAME ISTACK, 0, STACK
        LOCFRAME PSTACK, 0, STACK
        LOCFRAME XSTACK, 20, STACK
        LOCFRAME IOVERLAY, 0, STATIC
        LOCFRAME DOVERLAY, 0, STATIC
        ARGFRAME ISTACK, 0, STACK
        ARGFRAME PSTACK, 0, STACK
        ARGFRAME XSTACK, 20, STACK
        ARGFRAME IOVERLAY, 0, STATIC
        ARGFRAME DOVERLAY, 0, STATIC
        FUNCALL halSleep, HalKeyEnterSleep
        LOCFRAME ISTACK, 0, STACK
        LOCFRAME PSTACK, 0, STACK
        LOCFRAME XSTACK, 20, STACK
        LOCFRAME IOVERLAY, 0, STATIC
        LOCFRAME DOVERLAY, 0, STATIC
        ARGFRAME ISTACK, 0, STACK
        ARGFRAME PSTACK, 0, STACK
        ARGFRAME XSTACK, 20, STACK
        ARGFRAME IOVERLAY, 0, STATIC
        ARGFRAME DOVERLAY, 0, STATIC
        FUNCALL halSleep, HalLedEnterSleep
        LOCFRAME ISTACK, 0, STACK
        LOCFRAME PSTACK, 0, STACK
        LOCFRAME XSTACK, 20, STACK
        LOCFRAME IOVERLAY, 0, STATIC
        LOCFRAME DOVERLAY, 0, STATIC
        ARGFRAME ISTACK, 0, STACK
        ARGFRAME PSTACK, 0, STACK
        ARGFRAME XSTACK, 20, STACK
        ARGFRAME IOVERLAY, 0, STATIC
        ARGFRAME DOVERLAY, 0, STATIC
        FUNCALL halSleep, halSleepSetTimer
        LOCFRAME ISTACK, 0, STACK
        LOCFRAME PSTACK, 0, STACK
        LOCFRAME XSTACK, 20, STACK
        LOCFRAME IOVERLAY, 0, STATIC
        LOCFRAME DOVERLAY, 0, STATIC
        ARGFRAME ISTACK, 0, STACK
        ARGFRAME PSTACK, 0, STACK
        ARGFRAME XSTACK, 20, STACK
        ARGFRAME IOVERLAY, 0, STATIC
        ARGFRAME DOVERLAY, 0, STATIC
        FUNCALL halSleep, halSetSleepMode
        LOCFRAME ISTACK, 0, STACK
        LOCFRAME PSTACK, 0, STACK
        LOCFRAME XSTACK, 20, STACK
        LOCFRAME IOVERLAY, 0, STATIC
        LOCFRAME DOVERLAY, 0, STATIC
        ARGFRAME ISTACK, 0, STACK
        ARGFRAME PSTACK, 0, STACK
        ARGFRAME XSTACK, 20, STACK
        ARGFRAME IOVERLAY, 0, STATIC
        ARGFRAME DOVERLAY, 0, STATIC
        FUNCALL halSleep, HalLedExitSleep
        LOCFRAME ISTACK, 0, STACK
        LOCFRAME PSTACK, 0, STACK
        LOCFRAME XSTACK, 20, STACK
        LOCFRAME IOVERLAY, 0, STATIC
        LOCFRAME DOVERLAY, 0, STATIC
        ARGFRAME ISTACK, 0, STACK
        ARGFRAME PSTACK, 0, STACK
        ARGFRAME XSTACK, 20, STACK
        ARGFRAME IOVERLAY, 0, STATIC
        ARGFRAME DOVERLAY, 0, STATIC
        FUNCALL halSleep, HalKeyExitSleep
        LOCFRAME ISTACK, 0, STACK
        LOCFRAME PSTACK, 0, STACK
        LOCFRAME XSTACK, 20, STACK
        LOCFRAME IOVERLAY, 0, STATIC
        LOCFRAME DOVERLAY, 0, STATIC
        ARGFRAME ISTACK, 0, STACK
        ARGFRAME PSTACK, 0, STACK
        ARGFRAME XSTACK, 20, STACK
        ARGFRAME IOVERLAY, 0, STATIC
        ARGFRAME DOVERLAY, 0, STATIC
        FUNCALL halSleep, MAC_PwrOnReq
        LOCFRAME ISTACK, 0, STACK
        LOCFRAME PSTACK, 0, STACK
        LOCFRAME XSTACK, 20, STACK
        LOCFRAME IOVERLAY, 0, STATIC
        LOCFRAME DOVERLAY, 0, STATIC
        ARGFRAME ISTACK, 0, STACK
        ARGFRAME PSTACK, 0, STACK
        ARGFRAME XSTACK, 20, STACK
        ARGFRAME IOVERLAY, 0, STATIC
        ARGFRAME DOVERLAY, 0, STATIC
        FUNCALL halSleep, macMcuTimer2OverflowWorkaround
        LOCFRAME ISTACK, 0, STACK
        LOCFRAME PSTACK, 0, STACK
        LOCFRAME XSTACK, 20, STACK
        LOCFRAME IOVERLAY, 0, STATIC
        LOCFRAME DOVERLAY, 0, STATIC
        ARGFRAME ISTACK, 0, STACK
        ARGFRAME PSTACK, 0, STACK
        ARGFRAME XSTACK, 20, STACK
        ARGFRAME IOVERLAY, 0, STATIC
        ARGFRAME DOVERLAY, 0, STATIC
        MOV     A,#-0x14
        LCALL   ?BANKED_ENTER_XDATA
        CFI DPH0 load(1, XDATA, add(CFA_XSP16, literal(-1)))
        CFI DPL0 load(1, XDATA, add(CFA_XSP16, literal(-2)))
        CFI ?BRET_EXT load(1, XDATA, add(CFA_XSP16, literal(-3)))
        CFI ?RET_HIGH load(1, XDATA, add(CFA_XSP16, literal(-4)))
        CFI ?RET_LOW load(1, XDATA, add(CFA_XSP16, literal(-5)))
        CFI R7 load(1, XDATA, add(CFA_XSP16, literal(-6)))
        CFI V11 load(1, XDATA, add(CFA_XSP16, literal(-7)))
        CFI V10 load(1, XDATA, add(CFA_XSP16, literal(-8)))
        CFI V9 load(1, XDATA, add(CFA_XSP16, literal(-9)))
        CFI V8 load(1, XDATA, add(CFA_XSP16, literal(-10)))
        CFI V7 load(1, XDATA, add(CFA_XSP16, literal(-11)))
        CFI V6 load(1, XDATA, add(CFA_XSP16, literal(-12)))
        CFI V5 load(1, XDATA, add(CFA_XSP16, literal(-13)))
        CFI V4 load(1, XDATA, add(CFA_XSP16, literal(-14)))
        CFI V3 load(1, XDATA, add(CFA_XSP16, literal(-15)))
        CFI V2 load(1, XDATA, add(CFA_XSP16, literal(-16)))
        CFI V1 load(1, XDATA, add(CFA_XSP16, literal(-17)))
        CFI V0 load(1, XDATA, add(CFA_XSP16, literal(-18)))
        CFI VB load(1, XDATA, add(CFA_XSP16, literal(-19)))
        CFI R6 load(1, XDATA, add(CFA_XSP16, literal(-20)))
        CFI CFA_SP SP+0
        CFI CFA_XSP16 add(XSP16, 20)
        ; Saved register size: 20
        ; Auto size: 0
//  289   uint32        timeout;
//  290   uint32        macTimeout = 0;
//  291 
//  292   /* get next OSAL timer expiration converted to 320 usec units */
//  293   timeout = HAL_SLEEP_MS_TO_320US(osal_timeout);
        MOV     ?V0 + 0,R2
        MOV     ?V0 + 1,R3
        CLR     A
        MOV     ?V0 + 2,A
        MOV     ?V0 + 3,A
        MOV     DPTR,#__Constant_64
        MOV     R0,#?V0 + 4
        LCALL   ?L_MOV_X
        MOV     R0,#?V0 + 0
        MOV     R1,#?V0 + 4
        LCALL   ?L_MUL
        MOV     DPTR,#__Constant_1f
        MOV     R0,#?V0 + 0
        LCALL   ?L_ADD_X
        MOV     A,#0x5
        MOV     R0,#?V0 + 0
        LCALL   ?UL_SHR
//  294   if (timeout == 0)
        LCALL   ?Subroutine0 & 0xFFFF
??CrossCallReturnLabel_0:
        JNZ     ??halSleep_0
//  295   {
//  296     timeout = MAC_PwrNextTimeout();
        ; Setup parameters for call to function MAC_PwrNextTimeout
        LCALL   ??MAC_PwrNextTimeout?relay
        SJMP    ??halSleep_1
//  297   }
//  298   else
//  299   {
//  300     /* get next MAC timer expiration */
//  301     macTimeout = MAC_PwrNextTimeout();
??halSleep_0:
        ; Setup parameters for call to function MAC_PwrNextTimeout
        LCALL   ??MAC_PwrNextTimeout?relay
        MOV     ?V0 + 4,R2
        MOV     ?V0 + 5,R3
        MOV     ?V0 + 6,R4
        MOV     ?V0 + 7,R5
//  302 
//  303     /* get lesser of two timeouts */
//  304     if ((macTimeout != 0) && (macTimeout < timeout))
        MOV     A,R2
        ORL     A,?V0 + 5
        ORL     A,?V0 + 6
        ORL     A,?V0 + 7
        JZ      ??halSleep_2
        MOV     R0,#?V0 + 0
        MOV     R1,#?V0 + 4
        LCALL   ?UL_GT
        JNC     ??halSleep_2
//  305     {
//  306       timeout = macTimeout;
??halSleep_1:
        MOV     ?V0 + 0,R2
        MOV     ?V0 + 1,R3
        MOV     ?V0 + 2,R4
        MOV     ?V0 + 3,R5
//  307     }
//  308   }
//  309 
//  310   /* HAL_SLEEP_PM2 is entered only if the timeout is zero and
//  311    * the device is a stimulated device.
//  312    */
//  313 	//halPwrMgtMode = (timeout == 0) ? HAL_SLEEP_DEEP : HAL_SLEEP_TIMER;
//  314   halPwrMgtMode = HAL_SLEEP_TIMER;
??halSleep_2:
        MOV     DPTR,#halPwrMgtMode
        MOV     A,#0x2
        MOVX    @DPTR,A
//  315   
//  316   /* DEEP sleep can only be entered when zgPollRate == 0.
//  317    * This is to eliminate any possibility of entering PM3 between
//  318    * two network timers.
//  319    */
//  320 #if ZG_BUILD_ENDDEVICE_TYPE && defined (NWK_AUTO_POLL)
//  321   if ((timeout > HAL_SLEEP_MS_TO_320US(PM_MIN_SLEEP_TIME)) ||
//  322       (timeout == 0 && zgPollRate == 0))
//  323 #else
//  324   if ((timeout > HAL_SLEEP_MS_TO_320US(PM_MIN_SLEEP_TIME)) ||
//  325       (timeout == 0))
        MOV     DPTR,#__Constant_2d
        MOV     R0,#?V0 + 0
        LCALL   ?UL_GE_X
        JC      ??halSleep_3
        LCALL   ?Subroutine0 & 0xFFFF
??CrossCallReturnLabel_1:
        JZ      $+5
        LJMP    ??halSleep_4 & 0xFFFF
//  326 #endif
//  327   {
//  328     halIntState_t ien0, ien1, ien2;
//  329 
//  330     HAL_ASSERT(HAL_INTERRUPTS_ARE_ENABLED());
??halSleep_3:
        MOV     C,0xa8.7
        JC      ??halSleep_5
        ; Setup parameters for call to function halAssertHandler
        LCALL   ??halAssertHandler?relay
//  331     HAL_DISABLE_INTERRUPTS();
??halSleep_5:
        CLR     0xa8.7
//  332 
//  333     /* always use "deep sleep" to turn off radio VREG on CC2530 */
//  334     if (halSleepPconValue != 0 && MAC_PwrOffReq(MAC_PWR_SLEEP_DEEP) == MAC_SUCCESS)
        MOV     A,halSleepPconValue
        JNZ     $+5
        LJMP    ??halSleep_6 & 0xFFFF
        ; Setup parameters for call to function MAC_PwrOffReq
        MOV     R1,#0x2
        LCALL   ??MAC_PwrOffReq?relay
        MOV     A,R1
        JZ      $+5
        LJMP    ??halSleep_6 & 0xFFFF
//  335     {
//  336       /* The PCON value is not zero. There is no interrupt overriding the 
//  337        * sleep decision. Also, the radio granted the sleep request.
//  338        */
//  339 
//  340 #if ((defined HAL_KEY) && (HAL_KEY == TRUE))
//  341       /* get peripherals ready for sleep */
//  342       HalKeyEnterSleep();
        ; Setup parameters for call to function HalKeyEnterSleep
        LCALL   ??HalKeyEnterSleep?relay
//  343 #endif
//  344 
//  345 #ifdef HAL_SLEEP_DEBUG_LED
//  346       HAL_TURN_OFF_LED3();
//  347 #else
//  348       /* use this to turn LEDs off during sleep */
//  349       HalLedEnterSleep();
        ; Setup parameters for call to function HalLedEnterSleep
        LCALL   ??HalLedEnterSleep?relay
//  350 #endif
//  351 
//  352       if(timeout > maxSleepLoopTime)
        MOV     DPTR,#maxSleepLoopTime
        MOV     R0,#?V0 + 0
        LCALL   ?UL_GT_X
        JNC     ??halSleep_7
//  353       {
//  354         timeout = maxSleepLoopTime;
        MOV     DPTR,#maxSleepLoopTime
        MOV     R0,#?V0 + 0
        LCALL   ?L_MOV_X
//  355       }  
//  356 
//  357       /* enable sleep timer interrupt */
//  358 //***********************设置睡眠时间*****************************************//
//  359       if (timeout != 0)
??halSleep_7:
        LCALL   ?Subroutine0 & 0xFFFF
??CrossCallReturnLabel_2:
        JNZ     $+5
        LJMP    ??halSleep_8 & 0xFFFF
//  360       {
//  361           if(CountF == 1)                                //如果计算睡眠时间标志位为1 计算睡眠时间
        MOV     DPTR,#CountF
        MOVX    A,@DPTR
        XRL     A,#0x1
        JZ      $+5
        LJMP    ??halSleep_9 & 0xFFFF
//  362           {
//  363             	CountF = 0;                                  //消除标志位
        CLR     A
        MOVX    @DPTR,A
//  364 				if(sleepMode == DATA_SLEEP) {
        MOV     DPTR,#sleepMode
        MOVX    A,@DPTR
        XRL     A,#0x2
        JNZ     ??halSleep_10
//  365 				  	if(Mode == 'M')                              //调试模式采集间隔为2min
        MOV     DPTR,#Mode
        MOVX    A,@DPTR
        XRL     A,#0x4d
        JNZ     ??halSleep_11
//  366               			Time_Interval = 120000;
        MOV     DPTR,#__Constant_1d4c0
        SJMP    ??halSleep_12
//  367             		else if(Mode == 'C')                        //正常模式采集间隔为1h
??halSleep_11:
        MOVX    A,@DPTR
        XRL     A,#0x43
        JNZ     ??halSleep_13
//  368               			Time_Interval = 3600000; 
        MOV     DPTR,#__Constant_36ee80
??halSleep_12:
        LCALL   ?XLOAD_R2345
        MOV     DPTR,#Time_Interval
        LCALL   ?XSTORE_R2345
//  369 					
//  370 					SleepTime = Time_Interval-(osal_systemClock % Time_Interval) + (uint32)delayt;
??halSleep_13:
        MOV     DPTR,#Time_Interval
        MOV     R0,#?V0 + 4
        LCALL   ?L_MOV_X
        MOV     DPTR,#osal_systemClock
        MOV     R0,#?V0 + 0
        LCALL   ?L_MOV_X
        MOV     DPTR,#Time_Interval
        MOV     R0,#?V0 + 8
        LCALL   ?L_MOV_X
        MOV     R0,#?V0 + 0
        MOV     R1,#?V0 + 8
        LCALL   ?UL_DIV_MOD
        MOV     R0,#?V0 + 4
        MOV     R1,#?V0 + 8
        LCALL   ?L_SUB
        MOV     DPTR,#delayt
        MOVX    A,@DPTR
        MOV     ?V0 + 0,A
        INC     DPTR
        MOVX    A,@DPTR
        MOV     ?V0 + 1,A
        CLR     A
        MOV     ?V0 + 2,A
        MOV     ?V0 + 3,A
        MOV     R0,#?V0 + 4
        MOV     R1,#?V0 + 0
        LCALL   ?L_ADD
        MOV     DPTR,#SleepTime
        MOV     R0,#?V0 + 4
        LCALL   ?L_MOV_TO_X
        SJMP    ??halSleep_14
//  371 				} else if (sleepMode == START_SLEEP) {
??halSleep_10:
        MOVX    A,@DPTR
        XRL     A,#0x1
        JNZ     ??halSleep_14
//  372 				  	SleepTime = startSleepTime;
        MOV     DPTR,#startSleepTime
        LCALL   ?XLOAD_R2345
        MOV     DPTR,#SleepTime
        LCALL   ?XSTORE_R2345
//  373 				}             
//  374                       
//  375             	TCount = (uint8)(SleepTime / MAXSLEEPTIME);    //最大睡眠时间的个数
??halSleep_14:
        MOV     DPTR,#SleepTime
        MOV     R0,#?V0 + 0
        LCALL   ?L_MOV_X
        MOV     DPTR,#__Constant_fde8
        MOV     R0,#?V0 + 4
        LCALL   ?L_MOV_X
        MOV     R0,#?V0 + 0
        MOV     R1,#?V0 + 4
        LCALL   ?UL_DIV_MOD
        MOV     A,?V0 + 0
        MOV     DPTR,#TCount
        MOVX    @DPTR,A
//  376             	SleepTime = (uint32)(SleepTime % MAXSLEEPTIME);//剩余的睡眠时间
        MOV     DPTR,#SleepTime
        MOV     R0,#?V0 + 0
        LCALL   ?L_MOV_X
        MOV     DPTR,#__Constant_fde8
        MOV     R0,#?V0 + 4
        LCALL   ?L_MOV_X
        MOV     R0,#?V0 + 0
        MOV     R1,#?V0 + 4
        LCALL   ?UL_DIV_MOD
        MOV     DPTR,#SleepTime
        MOV     R0,#?V0 + 4
        LCALL   ?L_MOV_TO_X
//  377           }
//  378 		  
//  379           if(TCount > 0) {
??halSleep_9:
        MOV     DPTR,#TCount
        MOVX    A,@DPTR
        JZ      ??halSleep_15
//  380                TCount--;
        DEC     A
        MOVX    @DPTR,A
//  381                SleepTime_MS = MAXSLEEPTIME;
        MOV     DPTR,#__Constant_fde8
        LCALL   ?XLOAD_R2345
        MOV     DPTR,#SleepTime_MS
        LCALL   ?XSTORE_R2345
        SJMP    ??halSleep_16
//  382           } else {
//  383                SleepTime_MS = SleepTime;
??halSleep_15:
        MOV     DPTR,#SleepTime
        LCALL   ?XLOAD_R2345
        MOV     DPTR,#SleepTime_MS
        LCALL   ?XSTORE_R2345
//  384                CountF = 1;
        MOV     DPTR,#CountF
        MOV     A,#0x1
        MOVX    @DPTR,A
//  385 			   if(sleepMode == DATA_SLEEP) {	// 若是数据睡眠，则到了采集发送的时间
        MOV     DPTR,#sleepMode
        MOVX    A,@DPTR
        XRL     A,#0x2
        JNZ     ??halSleep_16
//  386 			   		TX_Flag=1;
        MOV     DPTR,#TX_Flag
        MOV     A,#0x1
        MOVX    @DPTR,A
//  387 			   }
//  388           }
//  389 //****************设置睡眠定时器 单位为MS*************************************//
//  390          halSleepSetTimer(HAL_SLEEP_MS_TO_320US(SleepTime_MS));
??halSleep_16:
        ; Setup parameters for call to function halSleepSetTimer
        MOV     DPTR,#SleepTime_MS
        MOV     R0,#?V0 + 0
        LCALL   ?L_MOV_X
        MOV     DPTR,#__Constant_64
        MOV     R0,#?V0 + 4
        LCALL   ?L_MOV_X
        MOV     R0,#?V0 + 0
        MOV     R1,#?V0 + 4
        LCALL   ?L_MUL
        MOV     DPTR,#__Constant_1f
        MOV     R0,#?V0 + 0
        LCALL   ?L_ADD_X
        MOV     A,#0x5
        MOV     R0,#?V0 + 0
        LCALL   ?UL_SHR
        MOV     R2,?V0 + 0
        MOV     R3,?V0 + 1
        MOV     R4,?V0 + 2
        MOV     R5,?V0 + 3
        LCALL   ??halSleepSetTimer?relay
//  391         
//  392          /* set up sleep timer interrupt */
//  393         HAL_SLEEP_TIMER_CLEAR_INT();
        CLR     0xc0.7
//  394         HAL_SLEEP_TIMER_ENABLE_INT();
        SETB    0xa8.5
//  395       }
//  396 
//  397 #ifdef HAL_SLEEP_DEBUG_LED
//  398       if (halPwrMgtMode == CC2530_PM1)
//  399       {
//  400         HAL_TURN_ON_LED1();
//  401       }
//  402       else
//  403       {
//  404         HAL_TURN_OFF_LED1();
//  405       }
//  406 #endif
//  407 
//  408       /* Prep CC2530 power mode */
//  409       HAL_SLEEP_PREP_POWER_MODE(halPwrMgtMode);
??halSleep_8:
        ANL     0xbe,#0xfc
        MOV     DPTR,#halPwrMgtMode
        MOVX    A,@DPTR
        ORL     0xbe,A
??halSleep_17:
        MOV     A,0xad
        MOV     C,0xE0 /* A   */.0
        JNC     ??halSleep_17
        MOV     halSleepPconValue,#0x1
//  410 
//  411       /* save interrupt enable registers and disable all interrupts */
//  412       HAL_SLEEP_IE_BACKUP_AND_DISABLE(ien0, ien1, ien2);
        MOV     A,0xa8
        MOV     R6,A
        MOV     A,0xb8
        MOV     R7,A
        MOV     A,0x9a
        MOV     ?V0 + 0,A
        ANL     0xa8,#0x20
        ANL     0xb8,#0x20
        ANL     0x9a,#0x12
//  413       HAL_ENABLE_INTERRUPTS();
        SETB    0xa8.7
//  414 
//  415       /* set CC2530 power mode, interrupt is disabled after this function
//  416        * Note that an ISR (that could wake up from power mode) which runs
//  417        * between the previous instruction enabling interrupts and before
//  418        * power mode is set would switch the halSleepPconValue so that
//  419        * power mode shall not be entered in such a case. 
//  420        */
//  421       HAL_SLEEP_SET_POWER_MODE();
        ; Setup parameters for call to function halSetSleepMode
        LCALL   ??halSetSleepMode?relay
//  422 
//  423       /* the interrupt is disabled - see halSetSleepMode() */
//  424 
//  425       /* restore interrupt enable registers */
//  426       HAL_SLEEP_IE_RESTORE(ien0, ien1, ien2);
        MOV     0xa8,R6
        MOV     0xb8,R7
        MOV     0x9a,?V0 + 0
//  427 
//  428       /* disable sleep timer interrupt */
//  429       HAL_SLEEP_TIMER_DISABLE_INT();
        CLR     0xa8.5
//  430 
//  431 #ifdef HAL_SLEEP_DEBUG_LED
//  432       HAL_TURN_ON_LED3();
//  433 #else
//  434       /* use this to turn LEDs back on after sleep */
//  435       HalLedExitSleep();
        ; Setup parameters for call to function HalLedExitSleep
        LCALL   ??HalLedExitSleep?relay
//  436 #endif
//  437 
//  438 #if ((defined HAL_KEY) && (HAL_KEY == TRUE))
//  439       /* handle peripherals */
//  440       (void)HalKeyExitSleep();
        ; Setup parameters for call to function HalKeyExitSleep
        LCALL   ??HalKeyExitSleep?relay
//  441 #endif
//  442 
//  443       /* power on the MAC; blocks until completion */
//  444       MAC_PwrOnReq();
        ; Setup parameters for call to function MAC_PwrOnReq
        LCALL   ??MAC_PwrOnReq?relay
//  445 
//  446       HAL_ENABLE_INTERRUPTS();
        SETB    0xa8.7
//  447 
//  448       /* For CC2530, T2 interrupt wont be generated when the current count is greater than
//  449        * the comparator. The interrupt is only generated when the current count is equal to
//  450        * the comparator. When the CC2530 is waking up from sleep, there is a small window
//  451        * that the count may be grater than the comparator, therefore, missing the interrupt.
//  452        * This workaround will call the T2 ISR when the current T2 count is greater than the
//  453        * comparator. The problem only occurs when POWER_SAVING is turned on, i.e. the 32KHz
//  454        * drives the chip in sleep and SYNC start is used.
//  455        */
//  456       macMcuTimer2OverflowWorkaround();
        ; Setup parameters for call to function macMcuTimer2OverflowWorkaround
        LCALL   ??macMcuTimer2OverflowWorkaround?relay
        SJMP    ??halSleep_4
//  457     }
//  458     else
//  459     {
//  460       /* An interrupt may have changed the sleep decision. Do not sleep at all. Turn on
//  461        * the interrupt, exit normally, and the next sleep will be allowed.
//  462        */
//  463       HAL_ENABLE_INTERRUPTS();
??halSleep_6:
        SETB    0xa8.7
//  464     }
//  465   }
//  466 }
??halSleep_4:
        MOV     R7,#0xc
        LJMP    ?BANKED_LEAVE_XDATA
        CFI EndBlock cfiBlock2
        REQUIRE _A_IEN0
        REQUIRE _A_IRCON
        REQUIRE SLEEPCMD
        REQUIRE STLOAD
        REQUIRE _A_IEN1
        REQUIRE IEN2

        RSEG BANKED_CODE:CODE:NOROOT(0)
?Subroutine0:
        CFI Block cfiCond3 Using cfiCommon0
        CFI NoFunction
        CFI Conditional ??CrossCallReturnLabel_0
        CFI R6 load(1, XDATA, add(CFA_XSP16, literal(-20)))
        CFI VB load(1, XDATA, add(CFA_XSP16, literal(-19)))
        CFI V0 load(1, XDATA, add(CFA_XSP16, literal(-18)))
        CFI V1 load(1, XDATA, add(CFA_XSP16, literal(-17)))
        CFI V2 load(1, XDATA, add(CFA_XSP16, literal(-16)))
        CFI V3 load(1, XDATA, add(CFA_XSP16, literal(-15)))
        CFI V4 load(1, XDATA, add(CFA_XSP16, literal(-14)))
        CFI V5 load(1, XDATA, add(CFA_XSP16, literal(-13)))
        CFI V6 load(1, XDATA, add(CFA_XSP16, literal(-12)))
        CFI V7 load(1, XDATA, add(CFA_XSP16, literal(-11)))
        CFI V8 load(1, XDATA, add(CFA_XSP16, literal(-10)))
        CFI V9 load(1, XDATA, add(CFA_XSP16, literal(-9)))
        CFI V10 load(1, XDATA, add(CFA_XSP16, literal(-8)))
        CFI V11 load(1, XDATA, add(CFA_XSP16, literal(-7)))
        CFI R7 load(1, XDATA, add(CFA_XSP16, literal(-6)))
        CFI ?RET_LOW load(1, XDATA, add(CFA_XSP16, literal(-5)))
        CFI ?RET_HIGH load(1, XDATA, add(CFA_XSP16, literal(-4)))
        CFI ?BRET_EXT load(1, XDATA, add(CFA_XSP16, literal(-3)))
        CFI DPL0 load(1, XDATA, add(CFA_XSP16, literal(-2)))
        CFI DPH0 load(1, XDATA, add(CFA_XSP16, literal(-1)))
        CFI CFA_SP SP+0
        CFI CFA_XSP16 add(XSP16, 20)
        CFI Block cfiCond4 Using cfiCommon0
        CFI (cfiCond4) NoFunction
        CFI (cfiCond4) Conditional ??CrossCallReturnLabel_1
        CFI (cfiCond4) R6 load(1, XDATA, add(CFA_XSP16, literal(-20)))
        CFI (cfiCond4) VB load(1, XDATA, add(CFA_XSP16, literal(-19)))
        CFI (cfiCond4) V0 load(1, XDATA, add(CFA_XSP16, literal(-18)))
        CFI (cfiCond4) V1 load(1, XDATA, add(CFA_XSP16, literal(-17)))
        CFI (cfiCond4) V2 load(1, XDATA, add(CFA_XSP16, literal(-16)))
        CFI (cfiCond4) V3 load(1, XDATA, add(CFA_XSP16, literal(-15)))
        CFI (cfiCond4) V4 load(1, XDATA, add(CFA_XSP16, literal(-14)))
        CFI (cfiCond4) V5 load(1, XDATA, add(CFA_XSP16, literal(-13)))
        CFI (cfiCond4) V6 load(1, XDATA, add(CFA_XSP16, literal(-12)))
        CFI (cfiCond4) V7 load(1, XDATA, add(CFA_XSP16, literal(-11)))
        CFI (cfiCond4) V8 load(1, XDATA, add(CFA_XSP16, literal(-10)))
        CFI (cfiCond4) V9 load(1, XDATA, add(CFA_XSP16, literal(-9)))
        CFI (cfiCond4) V10 load(1, XDATA, add(CFA_XSP16, literal(-8)))
        CFI (cfiCond4) V11 load(1, XDATA, add(CFA_XSP16, literal(-7)))
        CFI (cfiCond4) R7 load(1, XDATA, add(CFA_XSP16, literal(-6)))
        CFI (cfiCond4) ?RET_LOW load(1, XDATA, add(CFA_XSP16, literal(-5)))
        CFI (cfiCond4) ?RET_HIGH load(1, XDATA, add(CFA_XSP16, literal(-4)))
        CFI (cfiCond4) ?BRET_EXT load(1, XDATA, add(CFA_XSP16, literal(-3)))
        CFI (cfiCond4) DPL0 load(1, XDATA, add(CFA_XSP16, literal(-2)))
        CFI (cfiCond4) DPH0 load(1, XDATA, add(CFA_XSP16, literal(-1)))
        CFI (cfiCond4) CFA_SP SP+0
        CFI (cfiCond4) CFA_XSP16 add(XSP16, 20)
        CFI Block cfiCond5 Using cfiCommon0
        CFI (cfiCond5) NoFunction
        CFI (cfiCond5) Conditional ??CrossCallReturnLabel_2
        CFI (cfiCond5) R6 load(1, XDATA, add(CFA_XSP16, literal(-20)))
        CFI (cfiCond5) VB load(1, XDATA, add(CFA_XSP16, literal(-19)))
        CFI (cfiCond5) V0 load(1, XDATA, add(CFA_XSP16, literal(-18)))
        CFI (cfiCond5) V1 load(1, XDATA, add(CFA_XSP16, literal(-17)))
        CFI (cfiCond5) V2 load(1, XDATA, add(CFA_XSP16, literal(-16)))
        CFI (cfiCond5) V3 load(1, XDATA, add(CFA_XSP16, literal(-15)))
        CFI (cfiCond5) V4 load(1, XDATA, add(CFA_XSP16, literal(-14)))
        CFI (cfiCond5) V5 load(1, XDATA, add(CFA_XSP16, literal(-13)))
        CFI (cfiCond5) V6 load(1, XDATA, add(CFA_XSP16, literal(-12)))
        CFI (cfiCond5) V7 load(1, XDATA, add(CFA_XSP16, literal(-11)))
        CFI (cfiCond5) V8 load(1, XDATA, add(CFA_XSP16, literal(-10)))
        CFI (cfiCond5) V9 load(1, XDATA, add(CFA_XSP16, literal(-9)))
        CFI (cfiCond5) V10 load(1, XDATA, add(CFA_XSP16, literal(-8)))
        CFI (cfiCond5) V11 load(1, XDATA, add(CFA_XSP16, literal(-7)))
        CFI (cfiCond5) R7 load(1, XDATA, add(CFA_XSP16, literal(-6)))
        CFI (cfiCond5) ?RET_LOW load(1, XDATA, add(CFA_XSP16, literal(-5)))
        CFI (cfiCond5) ?RET_HIGH load(1, XDATA, add(CFA_XSP16, literal(-4)))
        CFI (cfiCond5) ?BRET_EXT load(1, XDATA, add(CFA_XSP16, literal(-3)))
        CFI (cfiCond5) DPL0 load(1, XDATA, add(CFA_XSP16, literal(-2)))
        CFI (cfiCond5) DPH0 load(1, XDATA, add(CFA_XSP16, literal(-1)))
        CFI (cfiCond5) CFA_SP SP+0
        CFI (cfiCond5) CFA_XSP16 add(XSP16, 20)
        CFI Block cfiPicker6 Using cfiCommon1
        CFI (cfiPicker6) NoFunction
        CFI (cfiPicker6) Picker
        MOV     A,?V0 + 0
        ORL     A,?V0 + 1
        ORL     A,?V0 + 2
        ORL     A,?V0 + 3
        RET
        CFI EndBlock cfiCond3
        CFI EndBlock cfiCond4
        CFI EndBlock cfiCond5
        CFI EndBlock cfiPicker6
//  467 
//  468 /**************************************************************************************************
//  469  * @fn          halSleepSetTimer
//  470  *
//  471  * @brief       This function sets the CC2530 sleep timer compare value.  First it reads and
//  472  *              stores the value of the sleep timer; this value is used later to update OSAL
//  473  *              timers.  Then the timeout value is converted from 320 usec units to 32 kHz
//  474  *              period units and the compare value is set to the timeout.
//  475  *
//  476  * input parameters
//  477  *
//  478  * @param       timeout - Timeout value in 320 usec units.  The sleep timer compare is set to
//  479  *                        this value.
//  480  *
//  481  * output parameters
//  482  *
//  483  * None.
//  484  *
//  485  * @return      None.
//  486  **************************************************************************************************
//  487  */

        RSEG BANKED_CODE:CODE:NOROOT(0)
//  488 void halSleepSetTimer(uint32 timeout)
halSleepSetTimer:
        CFI Block cfiBlock7 Using cfiCommon0
        CFI Function halSleepSetTimer
        CODE
//  489 {
        MOV     A,#-0x10
        LCALL   ?BANKED_ENTER_XDATA
        CFI DPH0 load(1, XDATA, add(CFA_XSP16, literal(-1)))
        CFI DPL0 load(1, XDATA, add(CFA_XSP16, literal(-2)))
        CFI ?BRET_EXT load(1, XDATA, add(CFA_XSP16, literal(-3)))
        CFI ?RET_HIGH load(1, XDATA, add(CFA_XSP16, literal(-4)))
        CFI ?RET_LOW load(1, XDATA, add(CFA_XSP16, literal(-5)))
        CFI R7 load(1, XDATA, add(CFA_XSP16, literal(-6)))
        CFI V7 load(1, XDATA, add(CFA_XSP16, literal(-7)))
        CFI V6 load(1, XDATA, add(CFA_XSP16, literal(-8)))
        CFI V5 load(1, XDATA, add(CFA_XSP16, literal(-9)))
        CFI V4 load(1, XDATA, add(CFA_XSP16, literal(-10)))
        CFI V3 load(1, XDATA, add(CFA_XSP16, literal(-11)))
        CFI V2 load(1, XDATA, add(CFA_XSP16, literal(-12)))
        CFI V1 load(1, XDATA, add(CFA_XSP16, literal(-13)))
        CFI V0 load(1, XDATA, add(CFA_XSP16, literal(-14)))
        CFI VB load(1, XDATA, add(CFA_XSP16, literal(-15)))
        CFI R6 load(1, XDATA, add(CFA_XSP16, literal(-16)))
        CFI CFA_SP SP+0
        CFI CFA_XSP16 add(XSP16, 16)
        ; Saved register size: 16
        ; Auto size: 4
        MOV     A,#-0x4
        LCALL   ?ALLOC_XSTACK8
        CFI CFA_XSP16 add(XSP16, 20)
        MOV     ?V0 + 0,R2
        MOV     ?V0 + 1,R3
        MOV     ?V0 + 2,R4
        MOV     ?V0 + 3,R5
//  490   uint32 ticks;
//  491 
//  492   /* read the sleep timer; ST0 must be read first */
//  493   ((uint8 *) &ticks)[UINT32_NDX0] = ST0;
        MOV     A,0x95
        MOV     DPL,?XSP + 0
        MOV     DPH,?XSP + 1
        MOVX    @DPTR,A
//  494   ((uint8 *) &ticks)[UINT32_NDX1] = ST1;
        MOV     A,0x96
        PUSH    A
        CFI CFA_SP SP+-1
        MOV     A,#0x1
        LCALL   ?XSTACK_DISP0_8
        POP     A
        CFI CFA_SP SP+0
        MOVX    @DPTR,A
//  495   ((uint8 *) &ticks)[UINT32_NDX2] = ST2;
        MOV     A,0x97
        PUSH    A
        CFI CFA_SP SP+-1
        MOV     A,#0x2
        LCALL   ?XSTACK_DISP0_8
        POP     A
        CFI CFA_SP SP+0
        MOVX    @DPTR,A
//  496   ((uint8 *) &ticks)[UINT32_NDX3] = 0;
        MOV     A,#0x3
        LCALL   ?XSTACK_DISP0_8
        CLR     A
        MOVX    @DPTR,A
//  497 
//  498   /* Compute sleep timer compare value.  The ratio of 32 kHz ticks to 320 usec ticks
//  499    * is 32768/3125 = 10.48576.  This is nearly 671/64 = 10.484375.
//  500    */
//  501   ticks += (timeout * 671) / 64;
//  502 
//  503   /* subtract the processing time spent in function halSleep() */
//  504   ticks -= HAL_SLEEP_ADJ_TICKS;
        MOV     DPTR,#__Constant_29f
        MOV     R0,#?V0 + 4
        LCALL   ?L_MOV_X
        MOV     R0,#?V0 + 0
        MOV     R1,#?V0 + 4
        LCALL   ?L_MUL
        MOV     A,#0x6
        MOV     R0,#?V0 + 0
        LCALL   ?UL_SHR
        MOV     DPTR,#__Constant_ffffffe9
        MOV     R0,#?V0 + 0
        LCALL   ?L_ADD_X
        MOV     DPL,?XSP + 0
        MOV     DPH,?XSP + 1
        MOV     R0,#?V0 + 0
        LCALL   ?L_ADD_TO_X
//  505 
//  506   /* set sleep timer compare; ST0 must be written last */
//  507   ST2 = ((uint8 *) &ticks)[UINT32_NDX2];
        MOV     A,#0x2
        LCALL   ?XSTACK_DISP0_8
        MOVX    A,@DPTR
        MOV     0x97,A
//  508   ST1 = ((uint8 *) &ticks)[UINT32_NDX1];
        MOV     A,#0x1
        LCALL   ?XSTACK_DISP0_8
        MOVX    A,@DPTR
        MOV     0x96,A
//  509   ST0 = ((uint8 *) &ticks)[UINT32_NDX0];
        MOV     DPL,?XSP + 0
        MOV     DPH,?XSP + 1
        MOVX    A,@DPTR
        MOV     0x95,A
//  510 }
        MOV     A,#0x4
        LCALL   ?DEALLOC_XSTACK8
        CFI CFA_XSP16 add(XSP16, 16)
        MOV     R7,#0x8
        LJMP    ?BANKED_LEAVE_XDATA
        CFI EndBlock cfiBlock7
        REQUIRE ST0
        REQUIRE ST1
        REQUIRE ST2
//  511 
//  512 /**************************************************************************************************
//  513  * @fn          TimerElapsed
//  514  *
//  515  * @brief       Determine the number of OSAL timer ticks elapsed during sleep.
//  516  *              Deprecated for CC2530 and CC2430 SoC.
//  517  *
//  518  * input parameters
//  519  *
//  520  * @param       None.
//  521  *
//  522  * output parameters
//  523  *
//  524  * None.
//  525  *
//  526  * @return      Number of timer ticks elapsed during sleep.
//  527  **************************************************************************************************
//  528  */

        RSEG BANKED_CODE:CODE:NOROOT(0)
//  529 uint32 TimerElapsed( void )
TimerElapsed:
        CFI Block cfiBlock8 Using cfiCommon0
        CFI Function TimerElapsed
        CODE
//  530 {
        ; Saved register size: 0
        ; Auto size: 0
//  531   /* Stubs */
//  532   return (0);
        MOV     R2,#0x0
        MOV     R3,#0x0
        MOV     R4,#0x0
        MOV     R5,#0x0
        LJMP    ?BRET
        CFI EndBlock cfiBlock8
//  533 }
//  534 
//  535 /**************************************************************************************************
//  536  * @fn          halRestoreSleepLevel
//  537  *
//  538  * @brief       Restore the deepest timer sleep level.
//  539  *
//  540  * input parameters
//  541  *
//  542  * @param       None
//  543  *
//  544  * output parameters
//  545  *
//  546  *              None.
//  547  *
//  548  * @return      None.
//  549  **************************************************************************************************
//  550  */

        RSEG BANKED_CODE:CODE:NOROOT(0)
//  551 void halRestoreSleepLevel( void )
halRestoreSleepLevel:
        CFI Block cfiBlock9 Using cfiCommon0
        CFI Function halRestoreSleepLevel
        CODE
//  552 {
        ; Saved register size: 0
        ; Auto size: 0
//  553   /* Stubs */
//  554 }
        LJMP    ?BRET
        CFI EndBlock cfiBlock9
//  555 
//  556 /**************************************************************************************************
//  557  * @fn          halSleepTimerIsr
//  558  *
//  559  * @brief       Sleep timer ISR.
//  560  *
//  561  * input parameters
//  562  *
//  563  * None.
//  564  *
//  565  * output parameters
//  566  *
//  567  * None.
//  568  *
//  569  * @return      None.
//  570  **************************************************************************************************
//  571  */

        RSEG NEAR_CODE:CODE:NOROOT(0)
//  572 HAL_ISR_FUNCTION(halSleepTimerIsr, ST_VECTOR)
halSleepTimerIsr:
        CFI Block cfiBlock10 Using cfiCommon1
        CFI Function halSleepTimerIsr
        CODE
//  573 {
        PUSH    A
        CFI A Frame(CFA_SP, 3)
        CFI CFA_SP SP+-3
        PUSH    PSW
        CFI PSW Frame(CFA_SP, 4)
        CFI CFA_SP SP+-4
        MOV     A,R0
        CFI R0 A
        PUSH    A
        CFI R0 Frame(CFA_SP, 5)
        CFI CFA_SP SP+-5
        ; Saved register size: 3
        ; Auto size: 0
//  574   HAL_ENTER_ISR();
        MOV     A,0xa8
        SETB    0xa8.7
//  575   HAL_SLEEP_TIMER_CLEAR_INT();
        CLR     0xc0.7
//  576 
//  577 #ifdef HAL_SLEEP_DEBUG_POWER_MODE
//  578   halSleepInt = TRUE;
//  579 #endif
//  580   
//  581   CLEAR_SLEEP_MODE();
        MOV     halSleepPconValue,#0x0
//  582   HAL_EXIT_ISR();
        MOV     C,0xE0 /* A   */.7
        MOV     0xa8.7,C
//  583 }
        POP     A
        CFI R0 A
        CFI CFA_SP SP+-4
        MOV     R0,A
        CFI R0 SameValue
        POP     PSW
        CFI PSW SameValue
        CFI CFA_SP SP+-3
        POP     A
        CFI A SameValue
        CFI CFA_SP SP+-2
        RETI
        CFI EndBlock cfiBlock10
        REQUIRE _A_IEN0
        REQUIRE _A_IRCON

        COMMON INTVEC:CODE:ROOT(0)
        ORG 43
`??halSleepTimerIsr??INTVEC 43`:
        LJMP       (halSleepTimerIsr)

        RSEG XDATA_ID:CODE:NOROOT(0)
`?<Initializer for startSleepTime>`:
        DATA32
        DD 5000

        RSEG XDATA_ID:CODE:NOROOT(0)
`?<Initializer for maxSleepLoopTime>`:
        DATA32
        DD 1593750

        RSEG DATA_ID:CODE:NOROOT(0)
`?<Initializer for halSleepPconValue>`:
        DATA8
        DB 1

        RSEG XDATA_ROM_C:CONST:REORDER:NOROOT(0)
        DATA32
__Constant_fffffffe:
        DD 4294967294

        RSEG XDATA_ROM_C:CONST:REORDER:NOROOT(0)
        DATA32
__Constant_64:
        DD 100

        RSEG XDATA_ROM_C:CONST:REORDER:NOROOT(0)
        DATA32
__Constant_1f:
        DD 31

        RSEG XDATA_ROM_C:CONST:REORDER:NOROOT(0)
        DATA32
__Constant_2d:
        DD 45

        RSEG XDATA_ROM_C:CONST:REORDER:NOROOT(0)
        DATA32
__Constant_1d4c0:
        DD 120000

        RSEG XDATA_ROM_C:CONST:REORDER:NOROOT(0)
        DATA32
__Constant_36ee80:
        DD 3600000

        RSEG XDATA_ROM_C:CONST:REORDER:NOROOT(0)
        DATA32
__Constant_fde8:
        DD 65000

        RSEG XDATA_ROM_C:CONST:REORDER:NOROOT(0)
        DATA32
__Constant_29f:
        DD 671

        RSEG XDATA_ROM_C:CONST:REORDER:NOROOT(0)
        DATA32
__Constant_ffffffe9:
        DD 4294967273

        RSEG BANK_RELAYS:CODE:REORDER:NOROOT(0)
??halSetSleepMode?relay:
        LCALL   ?BDISPATCH
        DATA
        DC24    halSetSleepMode

        RSEG BANK_RELAYS:CODE:REORDER:NOROOT(0)
??halSetMaxSleepLoopTime?relay:
        LCALL   ?BDISPATCH
        DATA
        DC24    halSetMaxSleepLoopTime

        RSEG BANK_RELAYS:CODE:REORDER:NOROOT(0)
??halSleep?relay:
        LCALL   ?BDISPATCH
        DATA
        DC24    halSleep

        RSEG BANK_RELAYS:CODE:REORDER:NOROOT(0)
??halSleepSetTimer?relay:
        LCALL   ?BDISPATCH
        DATA
        DC24    halSleepSetTimer

        RSEG BANK_RELAYS:CODE:REORDER:NOROOT(0)
??TimerElapsed?relay:
        LCALL   ?BDISPATCH
        DATA
        DC24    TimerElapsed

        RSEG BANK_RELAYS:CODE:REORDER:NOROOT(0)
??halRestoreSleepLevel?relay:
        LCALL   ?BDISPATCH
        DATA
        DC24    halRestoreSleepLevel

        END
//  584 
// 
// 744 bytes in segment BANKED_CODE
//  36 bytes in segment BANK_RELAYS
//   1 byte  in segment DATA_I
//   1 byte  in segment DATA_ID
//   3 bytes in segment INTVEC
//  28 bytes in segment NEAR_CODE
//  10 bytes in segment SFR_AN
//   8 bytes in segment SLEEP_CODE
//   8 bytes in segment XDATA_I
//   8 bytes in segment XDATA_ID
//  36 bytes in segment XDATA_ROM_C
//   6 bytes in segment XDATA_Z
// 
// 825 bytes of CODE  memory (+  3 bytes shared)
//   0 bytes of CONST memory (+ 36 bytes shared)
//   1 byte  of DATA  memory (+ 10 bytes shared)
//  14 bytes of XDATA memory
//
//Errors: none
//Warnings: none
