###############################################################################
#                                                                             #
# IAR C/C++ Compiler V8.10.3.10338/W32 for 8051         15/Nov/2016  16:50:53 #
# Copyright 2004-2011 IAR Systems AB.                                         #
#                                                                             #
#    Core               =  plain                                              #
#    Code model         =  banked                                             #
#    Data model         =  large                                              #
#    Calling convention =  xdata reentrant                                    #
#    Constant location  =  data_rom                                           #
#    Dptr setup         =  1,16                                               #
#    Source file        =  C:\Users\icecreamco\Desktop\GAP\EndDvice -         #
#                          拨码开关地址版\Projects\zstack\Samples\SampleApp\S #
#                          ource\SampleApp.c                                  #
#    Command line       =  -f "C:\Users\icecreamco\Desktop\GAP\EndDvice -     #
#                          拨码开关地址版\Projects\zstack\Samples\SampleApp\C #
#                          C2530DB\..\..\..\Tools\CC2530DB\f8wEndev.cfg"      #
#                          (-DCPU32MHZ -DROOT=__near_func                     #
#                          -DMAC_CFG_TX_DATA_MAX=3 -DMAC_CFG_TX_MAX=6         #
#                          -DMAC_CFG_RX_MAX=3) -f "C:\Users\icecreamco\Deskto #
#                          p\GAP\EndDvice - 拨码开关地址版\Projects\zstack\Sa #
#                          mples\SampleApp\CC2530DB\..\..\..\Tools\CC2530DB\f #
#                          8wConfig.cfg" (-DZIGBEEPRO -DSECURE=0              #
#                          -DZG_SECURE_DYNAMIC=0 -DREFLECTOR                  #
#                          -DDEFAULT_CHANLIST=0x00000800                      #
#                          -DZDAPP_CONFIG_PAN_ID=0x0808                       #
#                          -DNWK_START_DELAY=100 -DEXTENDED_JOINING_RANDOM_MA #
#                          SK=0x007F -DBEACON_REQUEST_DELAY=500               #
#                          -DBEACON_REQ_DELAY_MASK=0x00FF                     #
#                          -DLINK_STATUS_JITTER_MASK=0x007F                   #
#                          -DROUTE_EXPIRY_TIME=30 -DAPSC_ACK_WAIT_DURATION_PO #
#                          LLED=3000 -DNWK_INDIRECT_MSG_TIMEOUT=7             #
#                          -DMAX_RREQ_ENTRIES=8 -DAPSC_MAX_FRAME_RETRIES=3    #
#                          -DNWK_MAX_DATA_RETRIES=2                           #
#                          -DMAX_POLL_FAILURE_RETRIES=2 -DMAX_BCAST=9         #
#                          -DAPS_MAX_GROUPS=16 -DMAX_RTG_ENTRIES=40           #
#                          -DNWK_MAX_BINDING_ENTRIES=4                        #
#                          -DMAX_BINDING_CLUSTER_IDS=4 "-DDEFAULT_KEY={0x01,  #
#                          0x03, 0x05, 0x07, 0x09, 0x0B, 0x0D, 0x0F, 0x00,    #
#                          0x02, 0x04, 0x06, 0x08, 0x0A, 0x0C, 0x0D}"         #
#                          -DMAC_MAX_FRAME_SIZE=116                           #
#                          -DZDNWKMGR_MIN_TRANSMISSIONS=20 "-DCONST=const     #
#                          __code" -DGENERIC=__generic                        #
#                          -DRFD_RCVC_ALWAYS_ON=FALSE -DPOLL_RATE=1000        #
#                          -DQUEUED_POLL_RATE=100 -DRESPONSE_POLL_RATE=100)   #
#                          -DREJOIN_POLL_RATE=440 "C:\Users\icecreamco\Deskto #
#                          p\GAP\EndDvice - 拨码开关地址版\Projects\zstack\Sa #
#                          mples\SampleApp\Source\SampleApp.c" -D             #
#                          xNWK_AUTO_POLL -D POWER_SAVING -D AUTO_RESET -D    #
#                          xMT_TASK -D xMT_SYS_FUNC -D xMT_ZDO_FUNC -D        #
#                          xLCD_SUPPORTED=DEBUG -lC                           #
#                          "C:\Users\icecreamco\Desktop\GAP\EndDvice -        #
#                          拨码开关地址版\Projects\zstack\Samples\SampleApp\C #
#                          C2530DB\EndDeviceEB\List\" -lA                     #
#                          "C:\Users\icecreamco\Desktop\GAP\EndDvice -        #
#                          拨码开关地址版\Projects\zstack\Samples\SampleApp\C #
#                          C2530DB\EndDeviceEB\List\" --diag_suppress         #
#                          Pe001,Pa010 -o "C:\Users\icecreamco\Desktop\GAP\En #
#                          dDvice - 拨码开关地址版\Projects\zstack\Samples\Sa #
#                          mpleApp\CC2530DB\EndDeviceEB\Obj\" -e              #
#                          --no_code_motion --debug --core=plain --dptr=16,1  #
#                          --data_model=large --code_model=banked             #
#                          --calling_convention=xdata_reentrant               #
#                          --place_constants=data_rom --nr_virtual_regs 16    #
#                          -I "C:\Users\icecreamco\Desktop\GAP\EndDvice -     #
#                          拨码开关地址版\Projects\zstack\Samples\SampleApp\C #
#                          C2530DB\" -I "C:\Users\icecreamco\Desktop\GAP\EndD #
#                          vice - 拨码开关地址版\Projects\zstack\Samples\Samp #
#                          leApp\CC2530DB\..\Source\" -I                      #
#                          "C:\Users\icecreamco\Desktop\GAP\EndDvice -        #
#                          拨码开关地址版\Projects\zstack\Samples\SampleApp\C #
#                          C2530DB\..\..\..\ZMain\TI2530DB\" -I               #
#                          "C:\Users\icecreamco\Desktop\GAP\EndDvice -        #
#                          拨码开关地址版\Projects\zstack\Samples\SampleApp\C #
#                          C2530DB\..\..\..\..\..\Components\hal\include\"    #
#                          -I "C:\Users\icecreamco\Desktop\GAP\EndDvice -     #
#                          拨码开关地址版\Projects\zstack\Samples\SampleApp\C #
#                          C2530DB\..\..\..\..\..\Components\hal\target\CC253 #
#                          0EB\" -I "C:\Users\icecreamco\Desktop\GAP\EndDvice #
#                           - 拨码开关地址版\Projects\zstack\Samples\SampleAp #
#                          p\CC2530DB\..\..\..\..\..\Components\mac\include\" #
#                           -I "C:\Users\icecreamco\Desktop\GAP\EndDvice -    #
#                          拨码开关地址版\Projects\zstack\Samples\SampleApp\C #
#                          C2530DB\..\..\..\..\..\Components\mac\high_level\" #
#                           -I "C:\Users\icecreamco\Desktop\GAP\EndDvice -    #
#                          拨码开关地址版\Projects\zstack\Samples\SampleApp\C #
#                          C2530DB\..\..\..\..\..\Components\mac\low_level\sr #
#                          f04\" -I "C:\Users\icecreamco\Desktop\GAP\EndDvice #
#                           - 拨码开关地址版\Projects\zstack\Samples\SampleAp #
#                          p\CC2530DB\..\..\..\..\..\Components\mac\low_level #
#                          \srf04\single_chip\" -I "C:\Users\icecreamco\Deskt #
#                          op\GAP\EndDvice - 拨码开关地址版\Projects\zstack\S #
#                          amples\SampleApp\CC2530DB\..\..\..\..\..\Component #
#                          s\mt\" -I "C:\Users\icecreamco\Desktop\GAP\EndDvic #
#                          e - 拨码开关地址版\Projects\zstack\Samples\SampleA #
#                          pp\CC2530DB\..\..\..\..\..\Components\osal\include #
#                          \" -I "C:\Users\icecreamco\Desktop\GAP\EndDvice -  #
#                          拨码开关地址版\Projects\zstack\Samples\SampleApp\C #
#                          C2530DB\..\..\..\..\..\Components\services\saddr\" #
#                           -I "C:\Users\icecreamco\Desktop\GAP\EndDvice -    #
#                          拨码开关地址版\Projects\zstack\Samples\SampleApp\C #
#                          C2530DB\..\..\..\..\..\Components\services\sdata\" #
#                           -I "C:\Users\icecreamco\Desktop\GAP\EndDvice -    #
#                          拨码开关地址版\Projects\zstack\Samples\SampleApp\C #
#                          C2530DB\..\..\..\..\..\Components\stack\af\" -I    #
#                          "C:\Users\icecreamco\Desktop\GAP\EndDvice -        #
#                          拨码开关地址版\Projects\zstack\Samples\SampleApp\C #
#                          C2530DB\..\..\..\..\..\Components\stack\nwk\" -I   #
#                          "C:\Users\icecreamco\Desktop\GAP\EndDvice -        #
#                          拨码开关地址版\Projects\zstack\Samples\SampleApp\C #
#                          C2530DB\..\..\..\..\..\Components\stack\sapi\" -I  #
#                          "C:\Users\icecreamco\Desktop\GAP\EndDvice -        #
#                          拨码开关地址版\Projects\zstack\Samples\SampleApp\C #
#                          C2530DB\..\..\..\..\..\Components\stack\sec\" -I   #
#                          "C:\Users\icecreamco\Desktop\GAP\EndDvice -        #
#                          拨码开关地址版\Projects\zstack\Samples\SampleApp\C #
#                          C2530DB\..\..\..\..\..\Components\stack\sys\" -I   #
#                          "C:\Users\icecreamco\Desktop\GAP\EndDvice -        #
#                          拨码开关地址版\Projects\zstack\Samples\SampleApp\C #
#                          C2530DB\..\..\..\..\..\Components\stack\zdo\" -I   #
#                          "C:\Users\icecreamco\Desktop\GAP\EndDvice -        #
#                          拨码开关地址版\Projects\zstack\Samples\SampleApp\C #
#                          C2530DB\..\..\..\..\..\Components\zmac\" -I        #
#                          "C:\Users\icecreamco\Desktop\GAP\EndDvice -        #
#                          拨码开关地址版\Projects\zstack\Samples\SampleApp\C #
#                          C2530DB\..\..\..\..\..\Components\zmac\f8w\" -Ohz  #
#                          --require_prototypes                               #
#    List file          =  C:\Users\icecreamco\Desktop\GAP\EndDvice -         #
#                          拨码开关地址版\Projects\zstack\Samples\SampleApp\C #
#                          C2530DB\EndDeviceEB\List\SampleApp.lst             #
#    Object file        =  C:\Users\icecreamco\Desktop\GAP\EndDvice -         #
#                          拨码开关地址版\Projects\zstack\Samples\SampleApp\C #
#                          C2530DB\EndDeviceEB\Obj\SampleApp.r51              #
#                                                                             #
#                                                                             #
###############################################################################

C:\Users\icecreamco\Desktop\GAP\EndDvice - 拨码开关地址版\Projects\zstack\Samples\SampleApp\Source\SampleApp.c
      1          /**************************************************************************************************
      2            Filename:       SampleApp.c
      3            Revised:        $Date: 2009-03-18 15:56:27 -0700 (Wed, 18 Mar 2009) $
      4            Revision:       $Revision: 19453 $
      5          
      6            Description:    Sample Application (no Profile).
      7          
      8          
      9            Copyright 2007 Texas Instruments Incorporated. All rights reserved.
     10          
     11            IMPORTANT: Your use of this Software is limited to those specific rights
     12            granted under the terms of a software license agreement between the user
     13            who downloaded the software, his/her employer (which must be your employer)
     14            and Texas Instruments Incorporated (the "License").  You may not use this
     15            Software unless you agree to abide by the terms of the License. The License
     16            limits your use, and you acknowledge, that the Software may not be modified,
     17            copied or distributed unless embedded on a Texas Instruments microcontroller
     18            or used solely and exclusively in conjunction with a Texas Instruments radio
     19            frequency transceiver, which is integrated into your product.  Other than for
     20            the foregoing purpose, you may not use, reproduce, copy, prepare derivative
     21            works of, modify, distribute, perform, display or sell this Software and/or
     22            its documentation for any purpose.
     23          
     24            YOU FURTHER ACKNOWLEDGE AND AGREE THAT THE SOFTWARE AND DOCUMENTATION ARE
     25            PROVIDED AS IS?WITHOUT WARRANTY OF ANY KIND, EITHER EXPRESS OR IMPLIED,
     26            INCLUDING WITHOUT LIMITATION, ANY WARRANTY OF MERCHANTABILITY, TITLE,
     27            NON-INFRINGEMENT AND FITNESS FOR A PARTICULAR PURPOSE. IN NO EVENT SHALL
     28            TEXAS INSTRUMENTS OR ITS LICENSORS BE LIABLE OR OBLIGATED UNDER CONTRACT,
     29            NEGLIGENCE, STRICT LIABILITY, CONTRIBUTION, BREACH OF WARRANTY, OR OTHER
     30            LEGAL EQUITABLE THEORY ANY DIRECT OR INDIRECT DAMAGES OR EXPENSES
     31            INCLUDING BUT NOT LIMITED TO ANY INCIDENTAL, SPECIAL, INDIRECT, PUNITIVE
     32            OR CONSEQUENTIAL DAMAGES, LOST PROFITS OR LOST DATA, COST OF PROCUREMENT
     33            OF SUBSTITUTE GOODS, TECHNOLOGY, SERVICES, OR ANY CLAIMS BY THIRD PARTIES
     34            (INCLUDING BUT NOT LIMITED TO ANY DEFENSE THEREOF), OR OTHER SIMILAR COSTS.
     35          
     36            Should you have any questions regarding your right to use this Software,
     37            contact Texas Instruments Incorporated at www.TI.com.
     38          **************************************************************************************************/
     39          
     40          /*********************************************************************
     41            This application isn't intended to do anything useful, it is
     42            intended to be a simple example of an application's structure.
     43          
     44            This application sends it's messages either as broadcast or
     45            broadcast filtered group messages.  The other (more normal)
     46            message addressing is unicast.  Most of the other sample
     47            applications are written to support the unicast message model.
     48          
     49            Key control:
     50              SW1:  Sends a flash command to all devices in Group 1.
     51              SW2:  Adds/Removes (toggles) this device in and out
     52                    of Group 1.  This will enable and disable the
     53                    reception of the flash command.
     54          *********************************************************************/
     55          
     56          /*********************************************************************
     57           * INCLUDES
     58           */
     59          #include "OSAL.h"
     60          #include "OSAL_Clock.h"
     61          #include "OSAL_PwrMgr.h"
     62          #include "OSAL_Timers.h"
     63          #include "ZGlobals.h"
     64          #include "AF.h"
     65          #include "aps_groups.h"
     66          #include "ZDApp.h"
     67          
     68          #include "SampleApp.h"
     69          #include "SampleAppHw.h"
     70          
     71          #include "OnBoard.h"

   \                                 In  segment SFR_AN, at 0x80
   \   union <unnamed> volatile __sfr _A_P0
   \                     _A_P0:
   \   000000                DS 1

   \                                 In  segment SFR_AN, at 0x8f
   \   unsigned char volatile __sfr P0INP
   \                     P0INP:
   \   000000                DS 1

   \                                 In  segment SFR_AN, at 0x90
   \   union <unnamed> volatile __sfr _A_P1
   \                     _A_P1:
   \   000000                DS 1

   \                                 In  segment SFR_AN, at 0xf3
   \   unsigned char volatile __sfr P0SEL
   \                     P0SEL:
   \   000000                DS 1

   \                                 In  segment SFR_AN, at 0xf4
   \   unsigned char volatile __sfr P1SEL
   \                     P1SEL:
   \   000000                DS 1

   \                                 In  segment SFR_AN, at 0xf6
   \   unsigned char volatile __sfr P1INP
   \                     P1INP:
   \   000000                DS 1

   \                                 In  segment SFR_AN, at 0xf7
   \   unsigned char volatile __sfr P2INP
   \                     P2INP:
   \   000000                DS 1

   \                                 In  segment SFR_AN, at 0xfd
   \   unsigned char volatile __sfr P0DIR
   \                     P0DIR:
   \   000000                DS 1

   \                                 In  segment SFR_AN, at 0xfe
   \   unsigned char volatile __sfr P1DIR
   \                     P1DIR:
   \   000000                DS 1

   \                                 In  segment SFR_AN, at 0xff
   \   unsigned char volatile __sfr P2DIR
   \                     P2DIR:
   \   000000                DS 1
     72          #include "ioCC2530.h"
     73          /* HAL */
     74          #include "hal_lcd.h"
     75          #include "hal_led.h"
     76          #include "hal_key.h"
     77          
     78          #include "MT_UART.h"
     79          #include "hal_uart.h"
     80          #include "SHT20.h"
     81          #include "lux.h"
     82          #include "string.h"
     83          #include "math.h"
     84          #include "Mac_low_level.h"
     85          /*********************************************************************
     86           * MACROS
     87           */
     88          
     89          /*********************************************************************
     90           * CONSTANTS
     91           */
     92          
     93          /*********************************************************************
     94           * TYPEDEFS
     95           */
     96          
     97          /*********************************************************************
     98           * GLOBAL VARIABLES
     99           */
    100          
    101          // This list should be filled with Application specific Cluster IDs.

   \                                 In  segment XDATA_ROM_C, align 1
    102          const cId_t SampleApp_ClusterList[SAMPLEAPP_MAX_CLUSTERS] =
   \                     SampleApp_ClusterList:
   \   000000   0100         DW 1
   \   000002   0200         DW 2
    103          {
    104            SAMPLEAPP_PERIODIC_CLUSTERID,
    105            SAMPLEAPP_FLASH_CLUSTERID
    106          };
    107          

   \                                 In  segment XDATA_ROM_C, align 1
    108          const SimpleDescriptionFormat_t SampleApp_SimpleDesc =
   \                     SampleApp_SimpleDesc:
   \   000000   14           DB 20
   \   000001   080F         DW 3848
   \   000003   0100         DW 1
   \   000005   00           DB 0
   \   000006   02           DB 2
   \   000007   ....         DW SampleApp_ClusterList
   \   000009   02           DB 2
   \   00000A   ....         DW SampleApp_ClusterList
    109          {
    110            SAMPLEAPP_ENDPOINT,              //  int Endpoint;
    111            SAMPLEAPP_PROFID,                //  uint16 AppProfId[2];
    112            SAMPLEAPP_DEVICEID,              //  uint16 AppDeviceId[2];
    113            SAMPLEAPP_DEVICE_VERSION,        //  int   AppDevVer:4;
    114            SAMPLEAPP_FLAGS,                 //  int   AppFlags:4;
    115            SAMPLEAPP_MAX_CLUSTERS,          //  uint8  AppNumInClusters;
    116            (cId_t *)SampleApp_ClusterList,  //  uint8 *pAppInClusterList;
    117            SAMPLEAPP_MAX_CLUSTERS,          //  uint8  AppNumInClusters;
    118            (cId_t *)SampleApp_ClusterList   //  uint8 *pAppInClusterList;
    119          };
    120          
    121          // This is the Endpoint/Interface description.  It is defined here, but
    122          // filled-in in SampleApp_Init().  Another way to go would be to fill
    123          // in the structure here and make it a "const" (in code space).  The
    124          // way it's defined in this sample app it is define in RAM.

   \                                 In  segment XDATA_Z, align 1, keep-with-next
    125          endPointDesc_t SampleApp_epDesc;
   \                     SampleApp_epDesc:
   \   000000                DS 6
   \   000006                REQUIRE __INIT_XDATA_Z
    126          
    127          /*********************************************************************
    128           * EXTERNAL VARIABLES
    129           */
    130          
    131          /*********************************************************************
    132           * EXTERNAL FUNCTIONS
    133           */
    134          
    135          /*********************************************************************
    136           * LOCAL VARIABLES
    137           */

   \                                 In  segment XDATA_Z, align 1, keep-with-next
    138          uint8 SampleApp_TaskID;   // Task ID for internal task/event processing
   \                     SampleApp_TaskID:
   \   000000                DS 1
   \   000001                REQUIRE __INIT_XDATA_Z
    139                                    // This variable will be received when
    140                                    // SampleApp_Init() is called.

   \                                 In  segment XDATA_Z, align 1, keep-with-next
    141          devStates_t SampleApp_NwkState;
   \                     SampleApp_NwkState:
   \   000000                DS 1
   \   000001                REQUIRE __INIT_XDATA_Z
    142          

   \                                 In  segment XDATA_Z, align 1, keep-with-next
    143          uint8 SampleApp_TransID;  // This is the unique message ID (counter)
   \                     SampleApp_TransID:
   \   000000                DS 1
   \   000001                REQUIRE __INIT_XDATA_Z
    144          

   \                                 In  segment XDATA_Z, align 1, keep-with-next
    145          afAddrType_t SampleApp_Periodic_DstAddr;
   \                     SampleApp_Periodic_DstAddr:
   \   000000                DS 12
   \   00000C                REQUIRE __INIT_XDATA_Z

   \                                 In  segment XDATA_Z, align 1, keep-with-next
    146          afAddrType_t SampleApp_Flash_DstAddr;
   \                     SampleApp_Flash_DstAddr:
   \   000000                DS 12
   \   00000C                REQUIRE __INIT_XDATA_Z

   \                                 In  segment XDATA_Z, align 1, keep-with-next
    147          afAddrType_t SampleApp_P2P_DstAddr;
   \                     SampleApp_P2P_DstAddr:
   \   000000                DS 12
   \   00000C                REQUIRE __INIT_XDATA_Z
    148          

   \                                 In  segment XDATA_Z, align 1, keep-with-next
    149          aps_Group_t SampleApp_Group;
   \                     SampleApp_Group:
   \   000000                DS 18
   \   000012                REQUIRE __INIT_XDATA_Z
    150          

   \                                 In  segment XDATA_Z, align 1, keep-with-next
    151          uint8 SampleAppPeriodicCounter = 0;
   \                     SampleAppPeriodicCounter:
   \   000000                DS 1
   \   000001                REQUIRE __INIT_XDATA_Z

   \                                 In  segment XDATA_Z, align 1, keep-with-next
    152          uint8 SampleAppFlashCounter = 0;
   \                     SampleAppFlashCounter:
   \   000000                DS 1
   \   000001                REQUIRE __INIT_XDATA_Z
    153          
    154          #define	POWER P1_0           //负载电源控制位

   \                                 In  segment XDATA_Z, align 1, keep-with-next
    155          uint8 pf;                    //时钟事件标志
   \                     pf:
   \   000000                DS 1
   \   000001                REQUIRE __INIT_XDATA_Z

   \                                 In  segment XDATA_Z, align 1, keep-with-next
    156          uint8 powf;                  //进入睡眠标志
   \                     powf:
   \   000000                DS 1
   \   000001                REQUIRE __INIT_XDATA_Z
    157          #define ABLen 10             //每个字母包含的节点个数

   \                                 In  segment XDATA_Z, align 1, keep-with-next
    158          uint32 SleepTime_MS = 0;     //每次睡眠的时间
   \                     SleepTime_MS:
   \   000000                DS 4
   \   000004                REQUIRE __INIT_XDATA_Z

   \                                 In  segment XDATA_Z, align 1, keep-with-next
    159          uint32 SleepTime = 0;        //总睡眠时间      
   \                     SleepTime:
   \   000000                DS 4
   \   000004                REQUIRE __INIT_XDATA_Z

   \                                 In  segment XDATA_Z, align 1, keep-with-next
    160          uint8 TX_Flag = 0;           //发送数据标志位
   \                     TX_Flag:
   \   000000                DS 1
   \   000001                REQUIRE __INIT_XDATA_Z

   \                                 In  segment XDATA_Z, align 1, keep-with-next
    161          uint8 TCount = 0;            //最大睡眠时间的次数
   \                     TCount:
   \   000000                DS 1
   \   000001                REQUIRE __INIT_XDATA_Z

   \                                 In  segment XDATA_Z, align 1, keep-with-next
    162          uint8 CountF = 0;            //计算睡眠时间标志位
   \                     CountF:
   \   000000                DS 1
   \   000001                REQUIRE __INIT_XDATA_Z

   \                                 In  segment XDATA_I, align 1, keep-with-next
    163          uint8 Mode = 'C';            //节点工作模式  C：正常  M：调试  
   \                     Mode:
   \   000000                DS 1
   \   000001                REQUIRE `?<Initializer for Mode>`
   \   000001                REQUIRE __INIT_XDATA_I

   \                                 In  segment XDATA_Z, align 1, keep-with-next
    164          uint8 ADDR,ADDR1,ADDR2,ADDR3;     //地址
   \                     ADDR:
   \   000000                DS 1
   \   000001                REQUIRE __INIT_XDATA_Z

   \                                 In  segment XDATA_Z, align 1, keep-with-next
   \                     ADDR1:
   \   000000                DS 1
   \   000001                REQUIRE __INIT_XDATA_Z

   \                                 In  segment XDATA_Z, align 1, keep-with-next
   \                     ADDR2:
   \   000000                DS 1
   \   000001                REQUIRE __INIT_XDATA_Z

   \                                 In  segment XDATA_Z, align 1, keep-with-next
   \                     ADDR3:
   \   000000                DS 1
   \   000001                REQUIRE __INIT_XDATA_Z

   \                                 In  segment XDATA_Z, align 1, keep-with-next
    165          uint16 delayt;               //发送延时
   \                     delayt:
   \   000000                DS 2
   \   000002                REQUIRE __INIT_XDATA_Z
    166          /*********************************************************************
    167           * LOCAL FUNCTIONS
    168           */
    169          void SampleApp_HandleKeys( uint8 shift, uint8 keys );
    170          void SampleApp_MessageMSGCB( afIncomingMSGPacket_t *pckt );
    171          void SampleApp_SendPeriodicMessage(uint8 ADR);
    172          void SampleApp_SendFlashMessage( uint16 flashTime );
    173          void SampleApp_Send_P2P_Message(uint8 select);
    174          
    175          /*********************************************************************
    176           * NETWORK LAYER CALLBACKS
    177           */
    178          
    179          /*********************************************************************
    180           * PUBLIC FUNCTIONS
    181           */
    182          
    183          /*********************************************************************
    184           * @fn      SampleApp_Init
    185           *
    186           * @brief   Initialization function for the Generic App Task.
    187           *          This is called during initialization and should contain
    188           *          any application specific initialization (ie. hardware
    189           *          initialization/setup, table initialization, power up
    190           *          notificaiton ... ).
    191           *
    192           * @param   task_id - the ID assigned by OSAL.  This ID should be
    193           *                    used to send messages and set timers.
    194           *
    195           * @return  none
    196           */

   \                                 In  segment BANKED_CODE, align 1, keep-with-next
    197          void SampleApp_Init( uint8 task_id )
   \                     SampleApp_Init:
    198          {
   \   000000   74F5         MOV     A,#-0xb
   \   000002   12....       LCALL   ?BANKED_ENTER_XDATA
   \   000005                ; Saved register size: 11
   \   000005                ; Auto size: 0
   \   000005   E9           MOV     A,R1
    199            SampleApp_TaskID = task_id;
   \   000006   90....       MOV     DPTR,#SampleApp_TaskID
   \   000009   F0           MOVX    @DPTR,A
    200            SampleApp_NwkState = DEV_INIT;
   \   00000A   90....       MOV     DPTR,#SampleApp_NwkState
   \   00000D   7401         MOV     A,#0x1
   \   00000F   F0           MOVX    @DPTR,A
    201            SampleApp_TransID = 0;
   \   000010   90....       MOV     DPTR,#SampleApp_TransID
   \   000013   E4           CLR     A
   \   000014   F0           MOVX    @DPTR,A
    202            
    203          //*****************设置发送功率***********************************************//  
    204            macRadioSetTxPower( 0XF5 ); 
   \   000015                ; Setup parameters for call to function macRadioSetTxPower
   \   000015   79F5         MOV     R1,#-0xb
   \   000017   12....       LCALL   ??macRadioSetTxPower?relay
    205            
    206            
    207          //*****************参数初始化*************************************************//
    208            TX_Flag = 0;             //发送数据标志位清零，即不发送
   \   00001A   90....       MOV     DPTR,#TX_Flag
   \   00001D   E4           CLR     A
   \   00001E   F0           MOVX    @DPTR,A
    209            TCount = 0;              //最大睡眠时间的次数清零
   \   00001F   90....       MOV     DPTR,#TCount
   \   000022   F0           MOVX    @DPTR,A
    210            CountF = 0;              //计算睡眠时间标志位清零
   \   000023   90....       MOV     DPTR,#CountF
   \   000026   F0           MOVX    @DPTR,A
    211            pf = 0;                  //时钟时件标志清零
   \   000027   90....       MOV     DPTR,#pf
   \   00002A   F0           MOVX    @DPTR,A
    212            powf = 0;                //进入睡眠标志位清零  不进入睡眠
   \   00002B   90....       MOV     DPTR,#powf
   \   00002E   F0           MOVX    @DPTR,A
    213            SleepTime_MS = 0;        //每次睡眠的时间清零
   \   00002F   90....       MOV     DPTR,#__Constant_0
   \   000032   12....       LCALL   ?XLOAD_R2345
   \   000035   90....       MOV     DPTR,#SleepTime_MS
   \   000038   12....       LCALL   ?XSTORE_R2345
    214            SleepTime = 0;           //总睡眠时间清零           
   \   00003B   90....       MOV     DPTR,#__Constant_0
   \   00003E   12....       LCALL   ?XLOAD_R2345
   \   000041   90....       MOV     DPTR,#SleepTime
   \   000044   12....       LCALL   ?XSTORE_R2345
    215          
    216          //*****************引脚初始化*************************************************//  
    217            P1SEL = 0X00;
   \   000047   75F400       MOV     0xf4,#0x0
    218            P1DIR |= 0X03;           //P1_0 P1_1设置为输出
   \   00004A   43FE03       ORL     0xfe,#0x3
    219            Delay_ms( 50 );          //延时50MS
   \   00004D                ; Setup parameters for call to function Delay_ms
   \   00004D   7A32         MOV     R2,#0x32
   \   00004F   7B00         MOV     R3,#0x0
   \   000051   12....       LCALL   ??Delay_ms?relay
    220            SWLED = 1;               //LED打开
   \   000054   D291         SETB    0x90.1
    221            POWER = 0;               //传感器关闭
   \   000056   12....       LCALL   ?Subroutine17 & 0xFFFF
    222            P1DIR &= ~0X01;          //P1_0设置为输入
    223            P1INP |= 0X01;          //P1_0设置为高阻态
    224          
    225            P1DIR &= ~0X30;          //设置P1_4 P1_5为输入
    226            P1DIR &= ~0X0C;          //设置P1_3 P1_2为输入
    227            P1INP |= 0X30;           //设置P1_4 P1_5为高阻态
    228            P1INP |= 0X0C;           //设置P1_3 P1_2为高阻态
    229           
    230            //读取节点地址//
    231            P0SEL = 0X00;
   \                     ??CrossCallReturnLabel_29:
   \   000059   75F300       MOV     0xf3,#0x0
    232            P0DIR = 0X00;            //设置P0为输入
   \   00005C   75FD00       MOV     0xfd,#0x0
    233            P0INP = 0X00;
   \   00005F   758F00       MOV     0x8f,#0x0
    234            Delay_ms( 1000 );          //延时1000MS
   \   000062                ; Setup parameters for call to function Delay_ms
   \   000062   7AE8         MOV     R2,#-0x18
   \   000064   7B03         MOV     R3,#0x3
   \   000066   12....       LCALL   ??Delay_ms?relay
    235            ADDR = P0;
   \   000069   E580         MOV     A,0x80
   \   00006B   90....       MOV     DPTR,#ADDR
   \   00006E   F0           MOVX    @DPTR,A
    236            if(ADDR == 0)
   \   00006F   7003         JNZ     ??SampleApp_Init_0
    237              ADDR = 1;
   \   000071   7401         MOV     A,#0x1
   \   000073   F0           MOVX    @DPTR,A
    238            delayt = Delaybet * ADDR;
   \                     ??SampleApp_Init_0:
   \   000074   E0           MOVX    A,@DPTR
   \   000075   FA           MOV     R2,A
   \   000076   F8           MOV     R0,A
   \   000077   75F0E4       MOV     B,#-0x1c
   \   00007A   A4           MUL     AB
   \   00007B   C8           XCH     A,R0
   \   00007C   ACF0         MOV     R4,B
   \   00007E   75F00C       MOV     B,#0xc
   \   000081   A4           MUL     AB
   \   000082   2C           ADD     A,R4
   \   000083   F9           MOV     R1,A
   \   000084   90....       MOV     DPTR,#delayt
   \   000087   E8           MOV     A,R0
   \   000088   F0           MOVX    @DPTR,A
   \   000089   A3           INC     DPTR
   \   00008A   E9           MOV     A,R1
   \   00008B   F0           MOVX    @DPTR,A
    239            ADDR1 = ((ADDR - 1) / ABLen) + 0x41;
   \   00008C   EA           MOV     A,R2
   \   00008D   24FF         ADD     A,#-0x1
   \   00008F   F8           MOV     R0,A
   \   000090   E4           CLR     A
   \   000091   34FF         ADDC    A,#-0x1
   \   000093   F9           MOV     R1,A
   \   000094   7A0A         MOV     R2,#0xa
   \   000096   7B00         MOV     R3,#0x0
   \   000098   12....       LCALL   ?S_DIV_MOD
   \   00009B   E8           MOV     A,R0
   \   00009C   2441         ADD     A,#0x41
   \   00009E   90....       MOV     DPTR,#ADDR1
   \   0000A1   12....       LCALL   ?Subroutine4 & 0xFFFF
    240            ADDR %= ABLen;
   \                     ??CrossCallReturnLabel_6:
   \   0000A4   F0           MOVX    @DPTR,A
    241            if(ADDR == 0)
   \   0000A5   7004         JNZ     ??SampleApp_Init_1
    242              ADDR = ABLen;
   \   0000A7   740A         MOV     A,#0xa
   \   0000A9   8006         SJMP    ??SampleApp_Init_2
    243            if(ADDR >= 100)
   \                     ??SampleApp_Init_1:
   \   0000AB   9464         SUBB    A,#0x64
   \   0000AD   4003         JC      ??SampleApp_Init_3
    244              ADDR = 99;
   \   0000AF   7463         MOV     A,#0x63
   \                     ??SampleApp_Init_2:
   \   0000B1   F0           MOVX    @DPTR,A
    245            ADDR2 = ADDR / 10 + 0x30;
   \                     ??SampleApp_Init_3:
   \   0000B2   75F00A       MOV     B,#0xa
   \   0000B5   E0           MOVX    A,@DPTR
   \   0000B6   84           DIV     AB
   \   0000B7   2430         ADD     A,#0x30
   \   0000B9   90....       MOV     DPTR,#ADDR2
   \   0000BC   12....       LCALL   ?Subroutine4 & 0xFFFF
    246            ADDR3 = ADDR % 10 + 0X30;
   \                     ??CrossCallReturnLabel_7:
   \   0000BF   2430         ADD     A,#0x30
   \   0000C1   90....       MOV     DPTR,#ADDR3
   \   0000C4   F0           MOVX    @DPTR,A
    247            P0INP = 0Xff;
   \   0000C5   758FFF       MOV     0x8f,#-0x1
    248            
    249            P2DIR &= ~0X04;
   \   0000C8   53FFFB       ANL     0xff,#0xfb
    250            P2INP |= 0X04;
   \   0000CB   43F704       ORL     0xf7,#0x4
    251            // Device hardware initialization can be added here or in main() (Zmain.c).
    252            // If the hardware is application specific - add it here.
    253            // If the hardware is other parts of the device add it in main().
    254          
    255           #if defined ( BUILD_ALL_DEVICES )
    256            // The "Demo" target is setup to have BUILD_ALL_DEVICES and HOLD_AUTO_START
    257            // We are looking at a jumper (defined in SampleAppHw.c) to be jumpered
    258            // together - if they are - we will start up a coordinator. Otherwise,
    259            // the device will start as a router.
    260            if ( readCoordinatorJumper() )
    261              zgDeviceLogicalType = ZG_DEVICETYPE_COORDINATOR;
    262            else
    263              zgDeviceLogicalType = ZG_DEVICETYPE_ROUTER;
    264          #endif // BUILD_ALL_DEVICES
    265          
    266          #if defined ( HOLD_AUTO_START )
    267            // HOLD_AUTO_START is a compile option that will surpress ZDApp
    268            //  from starting the device and wait for the application to
    269            //  start the device.
    270            ZDOInitDevice(0);
    271          #endif
    272          
    273            // Setup for the periodic message's destination address
    274            // Broadcast to everyone
    275            SampleApp_Periodic_DstAddr.addrMode = (afAddrMode_t)AddrBroadcast;
   \   0000CE   90....       MOV     DPTR,#SampleApp_Periodic_DstAddr + 8
   \   0000D1   740F         MOV     A,#0xf
   \   0000D3   F0           MOVX    @DPTR,A
    276            SampleApp_Periodic_DstAddr.endPoint = SAMPLEAPP_ENDPOINT;
   \   0000D4   A3           INC     DPTR
   \   0000D5   7414         MOV     A,#0x14
   \   0000D7   F0           MOVX    @DPTR,A
    277            SampleApp_Periodic_DstAddr.addr.shortAddr = 0xFFFF;
   \   0000D8   90....       MOV     DPTR,#SampleApp_Periodic_DstAddr
   \   0000DB   74FF         MOV     A,#-0x1
   \   0000DD   F0           MOVX    @DPTR,A
   \   0000DE   A3           INC     DPTR
   \   0000DF   F0           MOVX    @DPTR,A
    278          
    279            // Setup for the flash command's destination address - Group 1
    280            SampleApp_Flash_DstAddr.addrMode = (afAddrMode_t)afAddrGroup;
   \   0000E0   90....       MOV     DPTR,#SampleApp_Flash_DstAddr + 8
   \   0000E3   7401         MOV     A,#0x1
   \   0000E5   F0           MOVX    @DPTR,A
    281            SampleApp_Flash_DstAddr.endPoint = SAMPLEAPP_ENDPOINT;
   \   0000E6   A3           INC     DPTR
   \   0000E7   7414         MOV     A,#0x14
   \   0000E9   F0           MOVX    @DPTR,A
    282            SampleApp_Flash_DstAddr.addr.shortAddr = SAMPLEAPP_FLASH_GROUP;
   \   0000EA   90....       MOV     DPTR,#SampleApp_Flash_DstAddr
   \   0000ED   7401         MOV     A,#0x1
   \   0000EF   F0           MOVX    @DPTR,A
   \   0000F0   A3           INC     DPTR
   \   0000F1   E4           CLR     A
   \   0000F2   F0           MOVX    @DPTR,A
    283          
    284            SampleApp_P2P_DstAddr.addrMode = (afAddrMode_t)Addr16Bit;
   \   0000F3   90....       MOV     DPTR,#SampleApp_P2P_DstAddr + 8
   \   0000F6   7402         MOV     A,#0x2
   \   0000F8   F0           MOVX    @DPTR,A
    285            SampleApp_P2P_DstAddr.endPoint = SAMPLEAPP_ENDPOINT;
   \   0000F9   A3           INC     DPTR
   \   0000FA   7414         MOV     A,#0x14
   \   0000FC   F0           MOVX    @DPTR,A
    286            SampleApp_P2P_DstAddr.addr.shortAddr = 0x0000;
   \   0000FD   90....       MOV     DPTR,#SampleApp_P2P_DstAddr
   \   000100   E4           CLR     A
   \   000101   F0           MOVX    @DPTR,A
   \   000102   A3           INC     DPTR
   \   000103   F0           MOVX    @DPTR,A
    287            
    288            // Fill out the endpoint description.
    289            SampleApp_epDesc.endPoint = SAMPLEAPP_ENDPOINT;
   \   000104   90....       MOV     DPTR,#SampleApp_epDesc
   \   000107   7414         MOV     A,#0x14
   \   000109   F0           MOVX    @DPTR,A
    290            SampleApp_epDesc.task_id = &SampleApp_TaskID;
   \   00010A   A3           INC     DPTR
   \   00010B   74..         MOV     A,#SampleApp_TaskID & 0xff
   \   00010D   F0           MOVX    @DPTR,A
   \   00010E   A3           INC     DPTR
   \   00010F   74..         MOV     A,#(SampleApp_TaskID >> 8) & 0xff
   \   000111   F0           MOVX    @DPTR,A
    291            SampleApp_epDesc.simpleDesc
    292                      = (SimpleDescriptionFormat_t *)&SampleApp_SimpleDesc;
   \   000112   A3           INC     DPTR
   \   000113   74..         MOV     A,#SampleApp_SimpleDesc & 0xff
   \   000115   F0           MOVX    @DPTR,A
   \   000116   A3           INC     DPTR
   \   000117   74..         MOV     A,#(SampleApp_SimpleDesc >> 8) & 0xff
   \   000119   F0           MOVX    @DPTR,A
    293            SampleApp_epDesc.latencyReq = noLatencyReqs;
   \   00011A   A3           INC     DPTR
   \   00011B   E4           CLR     A
   \   00011C   F0           MOVX    @DPTR,A
    294          
    295            // Register the endpoint description with the AF
    296            afRegister( &SampleApp_epDesc );
   \   00011D                ; Setup parameters for call to function afRegister
   \   00011D   7A..         MOV     R2,#SampleApp_epDesc & 0xff
   \   00011F   7B..         MOV     R3,#(SampleApp_epDesc >> 8) & 0xff
   \   000121   12....       LCALL   ??afRegister?relay
    297          
    298            // Register for all key events - This app will handle all key events
    299            RegisterForKeys( SampleApp_TaskID );
   \   000124                ; Setup parameters for call to function RegisterForKeys
   \   000124   90....       MOV     DPTR,#SampleApp_TaskID
   \   000127   E0           MOVX    A,@DPTR
   \   000128   F9           MOV     R1,A
   \   000129   12....       LCALL   ??RegisterForKeys?relay
    300          
    301            // By default, all devices start out in Group 1
    302            SampleApp_Group.ID = 0x0001;
   \   00012C   90....       MOV     DPTR,#SampleApp_Group
   \   00012F   7401         MOV     A,#0x1
   \   000131   F0           MOVX    @DPTR,A
   \   000132   A3           INC     DPTR
   \   000133   E4           CLR     A
   \   000134   F0           MOVX    @DPTR,A
    303            osal_memcpy( SampleApp_Group.name, "Group 1", 7  );
   \   000135                ; Setup parameters for call to function osal_memcpy
   \   000135   75....       MOV     ?V0 + 0,#`?<Constant "Group 1">` & 0xff
   \   000138   75....       MOV     ?V0 + 1,#(`?<Constant "Group 1">` >> 8) & 0xff
   \   00013B   F5..         MOV     ?V0 + 2,A
   \   00013D   78..         MOV     R0,#?V0 + 0
   \   00013F   12....       LCALL   ?PUSH_XSTACK_I_THREE
   \   000142   7C07         MOV     R4,#0x7
   \   000144   7D00         MOV     R5,#0x0
   \   000146   7A..         MOV     R2,#(SampleApp_Group + 2) & 0xff
   \   000148   7B..         MOV     R3,#((SampleApp_Group + 2) >> 8) & 0xff
   \   00014A   12....       LCALL   ??Subroutine21_0 & 0xFFFF
   \                     ??CrossCallReturnLabel_49:
   \   00014D   12....       LCALL   ?DEALLOC_XSTACK8
    304            aps_AddGroup( SAMPLEAPP_ENDPOINT, &SampleApp_Group );
   \   000150                ; Setup parameters for call to function aps_AddGroup
   \   000150   7A..         MOV     R2,#SampleApp_Group & 0xff
   \   000152   7B..         MOV     R3,#(SampleApp_Group >> 8) & 0xff
   \   000154   7914         MOV     R1,#0x14
   \   000156   12....       LCALL   ??aps_AddGroup?relay
    305          
    306          #if defined ( LCD_SUPPORTED )
    307            HalLcdWriteString( "SampleApp", HAL_LCD_LINE_1 );
    308          #endif
    309          }
   \   000159   7F03         MOV     R7,#0x3
   \   00015B   02....       LJMP    ?BANKED_LEAVE_XDATA
   \   00015E                REQUIRE P1SEL
   \   00015E                REQUIRE P1DIR
   \   00015E                REQUIRE _A_P1
   \   00015E                REQUIRE P1INP
   \   00015E                REQUIRE P0SEL
   \   00015E                REQUIRE P0DIR
   \   00015E                REQUIRE P0INP
   \   00015E                REQUIRE _A_P0
   \   00015E                REQUIRE P2DIR
   \   00015E                REQUIRE P2INP

   \                                 In  segment BANKED_CODE, align 1, keep-with-next
   \                     ?Subroutine4:
   \   000000   F0           MOVX    @DPTR,A
   \   000001   90....       MOV     DPTR,#ADDR
   \   000004   E0           MOVX    A,@DPTR
   \   000005   75F00A       MOV     B,#0xa
   \   000008   84           DIV     AB
   \   000009   E5F0         MOV     A,B
   \   00000B   22           RET

   \                                 In  segment BANKED_CODE, align 1, keep-with-next
   \                     ?Subroutine17:
   \   000000   C290         CLR     0x90.0
   \   000002   53FEFE       ANL     0xfe,#0xfe
   \   000005   43F601       ORL     0xf6,#0x1
   \   000008   53FECF       ANL     0xfe,#0xcf
   \   00000B   53FEF3       ANL     0xfe,#0xf3
   \   00000E   43F630       ORL     0xf6,#0x30
   \   000011   43F60C       ORL     0xf6,#0xc
   \   000014   22           RET

   \                                 In  segment BANKED_CODE, align 1, keep-with-next
   \                     ??Subroutine21_0:
   \   000000   12....       LCALL   ??osal_memcpy?relay
   \   000003   7403         MOV     A,#0x3
   \   000005   22           RET
    310          
    311          /*********************************************************************
    312           * @fn      SampleApp_ProcessEvent
    313           *
    314           * @brief   Generic Application Task event processor.  This function
    315           *          is called to process all events for the task.  Events
    316           *          include timers, messages and any other user defined events.
    317           *
    318           * @param   task_id  - The OSAL assigned task ID.
    319           * @param   events - events to process.  This is a bit map and can
    320           *                   contain more than one event.
    321           *
    322           * @return  none
    323           */

   \                                 In  segment BANKED_CODE, align 1, keep-with-next
    324          uint16 SampleApp_ProcessEvent( uint8 task_id, uint16 events )
   \                     SampleApp_ProcessEvent:
    325          {
   \   000000   74F4         MOV     A,#-0xc
   \   000002   12....       LCALL   ?BANKED_ENTER_XDATA
   \   000005                ; Saved register size: 12
   \   000005                ; Auto size: 0
   \   000005   EA           MOV     A,R2
   \   000006   FE           MOV     R6,A
   \   000007   EB           MOV     A,R3
   \   000008   FF           MOV     R7,A
    326            afIncomingMSGPacket_t *MSGpkt;
    327            (void)task_id;  // Intentionally unreferenced parameter
    328          
    329            if ( events & SYS_EVENT_MSG )
   \   000009   5480         ANL     A,#0x80
   \   00000B   6077         JZ      ??SampleApp_ProcessEvent_0
    330            {
    331              MSGpkt = (afIncomingMSGPacket_t *)osal_msg_receive( SampleApp_TaskID );
   \   00000D                ; Setup parameters for call to function osal_msg_receive
   \   00000D   8029         SJMP    ??SampleApp_ProcessEvent_1
    332              while ( MSGpkt )
    333              {
    334                switch ( MSGpkt->hdr.event )
    335                {
    336                  // Received when a key is pressed
    337                  case KEY_CHANGE:
    338                    SampleApp_HandleKeys( ((keyChange_t *)MSGpkt)->state, ((keyChange_t *)MSGpkt)->keys );
    339                    break;
    340          
    341                  // Received when a messages is received (OTA) for this endpoint
    342          //*******************接收数据的数据处理部分***********************************//
    343                  case AF_INCOMING_MSG_CMD:
    344                    SampleApp_MessageMSGCB( MSGpkt );
    345                   break;
    346          
    347          //*******************节点状态改变的处理部分***********************************//
    348                  // Received whenever the device changes state in the network
    349                  case ZDO_STATE_CHANGE:
    350                    SampleApp_NwkState = (devStates_t)(MSGpkt->hdr.status);
   \                     ??SampleApp_ProcessEvent_2:
   \   00000F   A3           INC     DPTR
   \   000010   E0           MOVX    A,@DPTR
   \   000011   90....       MOV     DPTR,#SampleApp_NwkState
   \   000014   F0           MOVX    @DPTR,A
    351                    if (   (SampleApp_NwkState == DEV_ROUTER)
    352                        || (SampleApp_NwkState == DEV_END_DEVICE) 
    353                          )
   \   000015   6407         XRL     A,#0x7
   \   000017   6005         JZ      ??SampleApp_ProcessEvent_3
   \   000019   E0           MOVX    A,@DPTR
   \   00001A   6406         XRL     A,#0x6
   \   00001C   7013         JNZ     ??CrossCallReturnLabel_39
    354                    {
    355          //*******************定时器开启***********************************************//
    356                  // Start sending the periodic message in a regular interval.
    357                      pf = 0;                             //定时器事件标志位清零
   \                     ??SampleApp_ProcessEvent_3:
   \   00001E   90....       MOV     DPTR,#pf
   \   000021   E4           CLR     A
   \   000022   F0           MOVX    @DPTR,A
    358                      SWLED = 0;                          //LED关闭
   \   000023   C291         CLR     0x90.1
    359                      CountF = 1;                         //计算睡眠时间标志位开启
   \   000025   90....       MOV     DPTR,#CountF
   \   000028   04           INC     A
   \   000029   F0           MOVX    @DPTR,A
    360                      osal_start_timerEx( SampleApp_TaskID,
    361                                          SAMPLEAPP_SEND_PERIODIC_MSG_EVT,
    362                                          500 );          //定时500MS
   \   00002A                ; Setup parameters for call to function osal_start_timerEx
   \   00002A   7CF4         MOV     R4,#-0xc
   \   00002C   FD           MOV     R5,A
   \   00002D   FA           MOV     R2,A
   \   00002E   12....       LCALL   ??Subroutine20_0 & 0xFFFF
    363                    }
    364                    else
    365                    {
    366                      // Device is no longer in the network
    367                    }
    368                    break;
    369          
    370                  default:
    371                    break;
    372                }
    373          
    374                // Release the memory
    375                osal_msg_deallocate( (uint8 *)MSGpkt );
   \                     ??CrossCallReturnLabel_39:
   \   000031                ; Setup parameters for call to function osal_msg_deallocate
   \   000031   AA..         MOV     R2,?V0 + 0
   \   000033   AB..         MOV     R3,?V0 + 1
   \   000035   12....       LCALL   ??osal_msg_deallocate?relay
    376          
    377                // Next - if one is available
    378                MSGpkt = (afIncomingMSGPacket_t *)osal_msg_receive( SampleApp_TaskID );
   \   000038                ; Setup parameters for call to function osal_msg_receive
   \                     ??SampleApp_ProcessEvent_1:
   \   000038   90....       MOV     DPTR,#SampleApp_TaskID
   \   00003B   E0           MOVX    A,@DPTR
   \   00003C   F9           MOV     R1,A
   \   00003D   12....       LCALL   ??osal_msg_receive?relay
   \   000040   8A..         MOV     ?V0 + 0,R2
   \   000042   8B..         MOV     ?V0 + 1,R3
   \   000044   E5..         MOV     A,?V0 + 0
   \   000046   45..         ORL     A,?V0 + 1
   \   000048   6032         JZ      ??SampleApp_ProcessEvent_4
   \   00004A   85..82       MOV     DPL,?V0 + 0
   \   00004D   85..83       MOV     DPH,?V0 + 1
   \   000050   E0           MOVX    A,@DPTR
   \   000051   24E6         ADD     A,#-0x1a
   \   000053   601E         JZ      ??SampleApp_ProcessEvent_5
   \   000055   245A         ADD     A,#0x5a
   \   000057   6006         JZ      ??SampleApp_ProcessEvent_6
   \   000059   24EF         ADD     A,#-0x11
   \   00005B   60B2         JZ      ??SampleApp_ProcessEvent_2
   \   00005D   80D2         SJMP    ??CrossCallReturnLabel_39
   \                     ??SampleApp_ProcessEvent_6:
   \   00005F                ; Setup parameters for call to function SampleApp_HandleKeys
   \   00005F   A3           INC     DPTR
   \   000060   A3           INC     DPTR
   \   000061   A3           INC     DPTR
   \   000062   E0           MOVX    A,@DPTR
   \   000063   FA           MOV     R2,A
   \   000064   85..82       MOV     DPL,?V0 + 0
   \   000067   85..83       MOV     DPH,?V0 + 1
   \   00006A   A3           INC     DPTR
   \   00006B   A3           INC     DPTR
   \   00006C   E0           MOVX    A,@DPTR
   \   00006D   F9           MOV     R1,A
   \   00006E   12....       LCALL   ??SampleApp_HandleKeys?relay
   \   000071   80BE         SJMP    ??CrossCallReturnLabel_39
   \                     ??SampleApp_ProcessEvent_5:
   \   000073                ; Setup parameters for call to function SampleApp_MessageMSGCB
   \   000073   AA..         MOV     R2,?V0 + 0
   \   000075   AB..         MOV     R3,?V0 + 1
   \   000077   12....       LCALL   ??SampleApp_MessageMSGCB?relay
   \   00007A   80B5         SJMP    ??CrossCallReturnLabel_39
    379              }
    380          
    381              // return unprocessed events
    382              return (events ^ SYS_EVENT_MSG);
   \                     ??SampleApp_ProcessEvent_4:
   \   00007C   EE           MOV     A,R6
   \   00007D   FA           MOV     R2,A
   \   00007E   EF           MOV     A,R7
   \   00007F   6480         XRL     A,#0x80
   \                     ??SampleApp_ProcessEvent_7:
   \   000081   FB           MOV     R3,A
   \   000082   807B         SJMP    ??SampleApp_ProcessEvent_8
    383            }
    384          
    385            // Send a message out - This event is generated by a timer
    386            //  (setup in SampleApp_Init()).
    387          //*********************定时事件处理部分***************************************//
    388            if ( events & SAMPLEAPP_SEND_PERIODIC_MSG_EVT )
   \                     ??SampleApp_ProcessEvent_0:
   \   000084   EE           MOV     A,R6
   \   000085   A2E0         MOV     C,0xE0 /* A   */.0
   \   000087   5072         JNC     ??SampleApp_ProcessEvent_9
    389            { 
    390              if( pf == 0 )                            //pf为0  发送时间同步请求
   \   000089   90....       MOV     DPTR,#pf
   \   00008C   E0           MOVX    A,@DPTR
   \   00008D   703C         JNZ     ??SampleApp_ProcessEvent_10
    391              {
    392                SWLED = 1;                             //LED开启
   \   00008F   D291         SETB    0x90.1
    393                SampleApp_Send_P2P_Message( 0x02 );    //发送时间同步请求
   \   000091                ; Setup parameters for call to function SampleApp_Send_P2P_Message
   \   000091   7902         MOV     R1,#0x2
   \   000093   12....       LCALL   ??SampleApp_Send_P2P_Message?relay
    394                osal_start_timerEx( SampleApp_TaskID, SAMPLEAPP_SEND_PERIODIC_MSG_EVT,
    395                                    1100);             //1.1s后进入同步  roll_rate为1s
   \   000096                ; Setup parameters for call to function osal_start_timerEx
   \   000096   7C4C         MOV     R4,#0x4c
   \   000098   7D04         MOV     R5,#0x4
   \   00009A   12....       LCALL   ?Subroutine10 & 0xFFFF
    396              }
    397              else if( pf == 1 )                       //pf为1 同步成功 发送数据并进入低功耗模式     
    398              {
    399                SWLED = 0;                             //LED关闭
    400                
    401          //**************连上网直接发一次数据******************************************//
    402                P1INP &= ~0X30;                        //取消P1_5 P1_4的高阻态模式
    403                P1INP &= ~0X0C;                        //取消P1_3 P1_2的高阻态模式
    404                P1DIR |= 0X01;                         //设置P1_0为输出
    405                Delay_ms( 1 );
    406                POWER = 1;                             //打开负载电源
    407                Delay_ms( 1000 );                      //等待负载电压稳定
    408                SampleApp_Send_P2P_Message( 0x01 );    //发送采集数据  第一组
    409                SampleApp_Send_P2P_Message( 0x01 );    //发送采集数据  第二组
    410                POWER = 0;                             //关掉负载电源
    411                P1DIR &= ~0X01;                        //设置P1_0为输入
    412                P1INP |= 0X01;                       //设置P1_0为高阻态
    413                 
    414                P1DIR &= ~0X30;                        //设置P1_4 P1_5为输入
    415                P1DIR &= ~0X0C;                        //设置P1_3 P1_2为输入
    416                P1INP |= 0X30;                         //设置P1_4 P1_5为高阻态
    417                P1INP |= 0X0C;                         //设置P1_3 P1_2为高阻态          
    418          
    419          //***************设置rate   进入低功耗****************************************//
    420                NLME_SetPollRate( 0 );
    421                NLME_SetQueuedPollRate( 0 );
    422                NLME_SetResponseRate( 0 );       
    423                
    424                powf = 1;                               //打开睡眠标志                                      
    425                pf = 2;                                 //pf置2
    426              }
    427              if( pf == 2 )                             //pf为2 进入正常的发送-睡眠工作模式
   \                     ??CrossCallReturnLabel_37:
   \   00009D   90....       MOV     DPTR,#pf
   \   0000A0   E0           MOVX    A,@DPTR
   \   0000A1   6402         XRL     A,#0x2
   \   0000A3   701F         JNZ     ??CrossCallReturnLabel_38
    428              {
    429                if( TX_Flag == 1 )                      //如果发送标志位为1 则发送采集数据
   \                     ??SampleApp_ProcessEvent_11:
   \   0000A5   90....       MOV     DPTR,#TX_Flag
   \   0000A8   E0           MOVX    A,@DPTR
   \   0000A9   6401         XRL     A,#0x1
   \   0000AB   7009         JNZ     ??CrossCallReturnLabel_0
    430                {
    431                  TX_Flag = 0;                          //发送标志位清零
   \   0000AD   E4           CLR     A
   \   0000AE   F0           MOVX    @DPTR,A
    432          //*****************发送采集数据***********************************************//        
    433                  P1INP &= ~0X30;           
   \   0000AF   12....       LCALL   ?Subroutine14 & 0xFFFF
    434                  P1INP &= ~0X0C;
    435                  P1DIR |= 0X01;
    436                  Delay_ms( 1 );
    437                  POWER = 1;             
    438                  Delay_ms( 1000 );     
    439                  SampleApp_Send_P2P_Message( 0x01 );
    440                  SampleApp_Send_P2P_Message( 0x01 );
    441                  POWER = 0;
    442                  P1DIR &= ~0X01;
    443                  P1INP |= 0X01;
    444                   
    445                  P1DIR &= ~0X30;                    
    446                  P1DIR &= ~0X0C;
    447                  P1INP |= 0X30;
    448                  P1INP |= 0X0C;
    449                }
   \                     ??CrossCallReturnLabel_23:
   \   0000B2   FB           MOV     R3,A
   \   0000B3   12....       LCALL   ?Subroutine2 & 0xFFFF
    450                osal_start_timerEx( SampleApp_TaskID, SAMPLEAPP_SEND_PERIODIC_MSG_EVT,
    451                   (SAMPLEAPP_SEND_PERIODIC_MSG_TIMEOUT + (osal_rand() & 0x00FF)) );
   \                     ??CrossCallReturnLabel_0:
   \   0000B6                ; Setup parameters for call to function osal_rand
   \   0000B6   12....       LCALL   ??osal_rand?relay
   \   0000B9                ; Setup parameters for call to function osal_start_timerEx
   \   0000B9   EA           MOV     A,R2
   \   0000BA   2488         ADD     A,#-0x78
   \   0000BC   FC           MOV     R4,A
   \   0000BD   E4           CLR     A
   \   0000BE   3413         ADDC    A,#0x13
   \   0000C0   FD           MOV     R5,A
   \   0000C1   12....       LCALL   ?Subroutine10 & 0xFFFF
    452              }
    453              // return unprocessed events
    454              return (events ^ SAMPLEAPP_SEND_PERIODIC_MSG_EVT);
   \                     ??CrossCallReturnLabel_38:
   \   0000C4   EE           MOV     A,R6
   \   0000C5   6401         XRL     A,#0x1
   \   0000C7   FA           MOV     R2,A
   \   0000C8   EF           MOV     A,R7
   \   0000C9   80B6         SJMP    ??SampleApp_ProcessEvent_7
   \                     ??SampleApp_ProcessEvent_10:
   \   0000CB   6401         XRL     A,#0x1
   \   0000CD   70CE         JNZ     ??CrossCallReturnLabel_37
   \   0000CF   C291         CLR     0x90.1
   \   0000D1   12....       LCALL   ?Subroutine14 & 0xFFFF
   \                     ??CrossCallReturnLabel_24:
   \   0000D4   7B00         MOV     R3,#0x0
   \   0000D6   12....       LCALL   ?Subroutine2 & 0xFFFF
   \                     ??CrossCallReturnLabel_1:
   \   0000D9                ; Setup parameters for call to function NLME_SetPollRate
   \   0000D9   7A00         MOV     R2,#0x0
   \   0000DB   7B00         MOV     R3,#0x0
   \   0000DD   12....       LCALL   ??NLME_SetPollRate?relay
   \   0000E0                ; Setup parameters for call to function NLME_SetQueuedPollRate
   \   0000E0   7A00         MOV     R2,#0x0
   \   0000E2   7B00         MOV     R3,#0x0
   \   0000E4   12....       LCALL   ??NLME_SetQueuedPollRate?relay
   \   0000E7                ; Setup parameters for call to function NLME_SetResponseRate
   \   0000E7   7A00         MOV     R2,#0x0
   \   0000E9   7B00         MOV     R3,#0x0
   \   0000EB   12....       LCALL   ??NLME_SetResponseRate?relay
   \   0000EE   90....       MOV     DPTR,#powf
   \   0000F1   7401         MOV     A,#0x1
   \   0000F3   F0           MOVX    @DPTR,A
   \   0000F4   90....       MOV     DPTR,#pf
   \   0000F7   04           INC     A
   \   0000F8   F0           MOVX    @DPTR,A
   \   0000F9   80AA         SJMP    ??SampleApp_ProcessEvent_11
    455            }
    456            // Discard unknown events
    457            return 0;
   \                     ??SampleApp_ProcessEvent_9:
   \   0000FB   7A00         MOV     R2,#0x0
   \   0000FD   7B00         MOV     R3,#0x0
   \                     ??SampleApp_ProcessEvent_8:
   \   0000FF   7F04         MOV     R7,#0x4
   \   000101   02....       LJMP    ?BANKED_LEAVE_XDATA
   \   000104                REQUIRE _A_P1
   \   000104                REQUIRE P1INP
   \   000104                REQUIRE P1DIR
    458          }

   \                                 In  segment BANKED_CODE, align 1, keep-with-next
   \                     ?Subroutine14:
   \   000000   53F6CF       ANL     0xf6,#0xcf
   \   000003   53F6F3       ANL     0xf6,#0xf3
   \   000006   43FE01       ORL     0xfe,#0x1
   \   000009                ; Setup parameters for call to function Delay_ms
   \   000009                ; Setup parameters for call to function Delay_ms
   \   000009   7A01         MOV     R2,#0x1
   \   00000B   22           RET

   \                                 In  segment BANKED_CODE, align 1, keep-with-next
   \                     ?Subroutine10:
   \   000000   7A01         MOV     R2,#0x1
   \   000002                REQUIRE ??Subroutine20_0
   \   000002                ; // Fall through to label ??Subroutine20_0

   \                                 In  segment BANKED_CODE, align 1, keep-with-next
   \                     ??Subroutine20_0:
   \   000000   7B00         MOV     R3,#0x0
   \   000002   90....       MOV     DPTR,#SampleApp_TaskID
   \   000005   E0           MOVX    A,@DPTR
   \   000006   F9           MOV     R1,A
   \   000007   12....       LCALL   ??osal_start_timerEx?relay
   \   00000A   22           RET

   \                                 In  segment BANKED_CODE, align 1, keep-with-next
   \                     ?Subroutine2:
   \   000000   12....       LCALL   ??Delay_ms?relay
   \   000003   D290         SETB    0x90.0
   \   000005                ; Setup parameters for call to function Delay_ms
   \   000005                ; Setup parameters for call to function Delay_ms
   \   000005   7AE8         MOV     R2,#-0x18
   \   000007   7B03         MOV     R3,#0x3
   \   000009   12....       LCALL   ??Delay_ms?relay
   \   00000C                ; Setup parameters for call to function SampleApp_Send_P2P_Message
   \   00000C                ; Setup parameters for call to function SampleApp_Send_P2P_Message
   \   00000C   7901         MOV     R1,#0x1
   \   00000E   12....       LCALL   ??SampleApp_Send_P2P_Message?relay
   \   000011                ; Setup parameters for call to function SampleApp_Send_P2P_Message
   \   000011                ; Setup parameters for call to function SampleApp_Send_P2P_Message
   \   000011   7901         MOV     R1,#0x1
   \   000013   12....       LCALL   ??SampleApp_Send_P2P_Message?relay
   \   000016   12....       LCALL   ?Subroutine17 & 0xFFFF
   \                     ??CrossCallReturnLabel_30:
   \   000019   22           RET
    459          
    460          /*********************************************************************
    461           * Event Generation Functions
    462           */
    463          /*********************************************************************
    464           * @fn      SampleApp_HandleKeys
    465           *
    466           * @brief   Handles all key events for this device.
    467           *
    468           * @param   shift - true if in shift/alt.
    469           * @param   keys - bit field for key events. Valid entries:
    470           *                 HAL_KEY_SW_2
    471           *                 HAL_KEY_SW_1
    472           *
    473           * @return  none
    474           */

   \                                 In  segment BANKED_CODE, align 1, keep-with-next
    475          void SampleApp_HandleKeys( uint8 shift, uint8 keys )
   \                     SampleApp_HandleKeys:
    476          {
   \   000000   74F6         MOV     A,#-0xa
   \   000002   12....       LCALL   ?BANKED_ENTER_XDATA
   \   000005                ; Saved register size: 10
   \   000005                ; Auto size: 0
   \   000005   EA           MOV     A,R2
   \   000006   FE           MOV     R6,A
    477            (void)shift;  // Intentionally unreferenced parameter
    478            
    479            if ( keys & HAL_KEY_SW_1 )
   \   000007   A2E0         MOV     C,0xE0 /* A   */.0
   \   000009   5007         JNC     ??SampleApp_HandleKeys_0
    480            {
    481              /* This key sends the Flash Command is sent to Group 1.
    482               * This device will not receive the Flash Command from this
    483               * device (even if it belongs to group 1).
    484               */
    485              SampleApp_SendFlashMessage( SAMPLEAPP_FLASH_DURATION );
   \   00000B                ; Setup parameters for call to function SampleApp_SendFlashMessage
   \   00000B   7AE8         MOV     R2,#-0x18
   \   00000D   7B03         MOV     R3,#0x3
   \   00000F   12....       LCALL   ??SampleApp_SendFlashMessage?relay
    486            }
    487          
    488            if ( keys & HAL_KEY_SW_2 )
   \                     ??SampleApp_HandleKeys_0:
   \   000012   EE           MOV     A,R6
   \   000013   A2E1         MOV     C,0xE0 /* A   */.1
   \   000015   5024         JNC     ??SampleApp_HandleKeys_1
    489            {
    490              /* The Flashr Command is sent to Group 1.
    491               * This key toggles this device in and out of group 1.
    492               * If this device doesn't belong to group 1, this application
    493               * will not receive the Flash command sent to group 1.
    494               */
    495              aps_Group_t *grp;
    496              grp = aps_FindGroup( SAMPLEAPP_ENDPOINT, SAMPLEAPP_FLASH_GROUP );
    497              if ( grp )
   \   000017                ; Setup parameters for call to function aps_FindGroup
   \   000017   7A01         MOV     R2,#0x1
   \   000019   7B00         MOV     R3,#0x0
   \   00001B   7914         MOV     R1,#0x14
   \   00001D   12....       LCALL   ??aps_FindGroup?relay
   \   000020   8B..         MOV     ?V0 + 1,R3
   \   000022   EA           MOV     A,R2
   \   000023   45..         ORL     A,?V0 + 1
   \   000025   600B         JZ      ??SampleApp_HandleKeys_2
    498              {
    499                // Remove from the group
    500                aps_RemoveGroup( SAMPLEAPP_ENDPOINT, SAMPLEAPP_FLASH_GROUP );
   \   000027                ; Setup parameters for call to function aps_RemoveGroup
   \   000027   7A01         MOV     R2,#0x1
   \   000029   7B00         MOV     R3,#0x0
   \   00002B   7914         MOV     R1,#0x14
   \   00002D   12....       LCALL   ??aps_RemoveGroup?relay
   \   000030   8009         SJMP    ??SampleApp_HandleKeys_1
    501              }
    502              else
    503              {
    504                // Add to the flash group
    505                aps_AddGroup( SAMPLEAPP_ENDPOINT, &SampleApp_Group );
   \                     ??SampleApp_HandleKeys_2:
   \   000032                ; Setup parameters for call to function aps_AddGroup
   \   000032   7A..         MOV     R2,#SampleApp_Group & 0xff
   \   000034   7B..         MOV     R3,#(SampleApp_Group >> 8) & 0xff
   \   000036   7914         MOV     R1,#0x14
   \   000038   12....       LCALL   ??aps_AddGroup?relay
    506              }
    507            }
    508          }
   \                     ??SampleApp_HandleKeys_1:
   \   00003B   02....       LJMP    ??Subroutine22_0 & 0xFFFF

   \                                 In  segment BANKED_CODE, align 1, keep-with-next
   \                     ??Subroutine22_0:
   \   000000   7F02         MOV     R7,#0x2
   \   000002   02....       LJMP    ?BANKED_LEAVE_XDATA
    509          
    510          /*********************************************************************
    511           * LOCAL FUNCTIONS
    512           */
    513          
    514          /*********************************************************************
    515           * @fn      SampleApp_MessageMSGCB
    516           *
    517           * @brief   Data message processor callback.  This function processes
    518           *          any incoming data - probably from other devices.  So, based
    519           *          on cluster ID, perform the intended action.
    520           *
    521           * @param   none
    522           *
    523           * @return  none
    524           */

   \                                 In  segment BANKED_CODE, align 1, keep-with-next
    525          void SampleApp_MessageMSGCB( afIncomingMSGPacket_t *pkt )
   \                     SampleApp_MessageMSGCB:
    526          {
   \   000000   74F0         MOV     A,#-0x10
   \   000002   12....       LCALL   ?BANKED_ENTER_XDATA
   \   000005                ; Saved register size: 16
   \   000005                ; Auto size: 20
   \   000005   74EC         MOV     A,#-0x14
   \   000007   12....       LCALL   ?ALLOC_XSTACK8
   \   00000A   EA           MOV     A,R2
   \   00000B   FE           MOV     R6,A
   \   00000C   EB           MOV     A,R3
   \   00000D   FF           MOV     R7,A
    527            uint16 flashTime;
    528          //******************初始化参数************************************************//  
    529            uint8 data[10]={0};                                            //接收数据缓存数组
   \   00000E   85..82       MOV     DPL,?XSP + 0
   \   000011   85..83       MOV     DPH,?XSP + 1
   \   000014   AC82         MOV     R4,DPL
   \   000016   AD83         MOV     R5,DPH
   \   000018   7583..       MOV     DPH,#(`?<Constant {0}>` >> 8) & 0xff
   \   00001B   7582..       MOV     DPL,#`?<Constant {0}>` & 0xff
   \   00001E   740A         MOV     A,#0xa
   \   000020   12....       LCALL   ?MOVE_LONG8_XDATA_XDATA
    530            uint8 datacmp[10]={0};                                         //数据比较数组
   \   000023   740A         MOV     A,#0xa
   \   000025   12....       LCALL   ?XSTACK_DISP0_8
   \   000028   AC82         MOV     R4,DPL
   \   00002A   AD83         MOV     R5,DPH
   \   00002C   7583..       MOV     DPH,#(`?<Constant {0}>_1` >> 8) & 0xff
   \   00002F   7582..       MOV     DPL,#`?<Constant {0}>_1` & 0xff
   \   000032   740A         MOV     A,#0xa
   \   000034   12....       LCALL   ?MOVE_LONG8_XDATA_XDATA
    531            osal_memcpy(datacmp, "D", 1);                                  //数据首位为'D'
   \   000037                ; Setup parameters for call to function osal_memcpy
   \   000037   75....       MOV     ?V0 + 0,#`?<Constant "D">` & 0xff
   \   00003A   75....       MOV     ?V0 + 1,#(`?<Constant "D">` >> 8) & 0xff
   \   00003D   F5..         MOV     ?V0 + 2,A
   \   00003F   78..         MOV     R0,#?V0 + 0
   \   000041   12....       LCALL   ?PUSH_XSTACK_I_THREE
   \   000044   7C01         MOV     R4,#0x1
   \   000046   7D00         MOV     R5,#0x0
   \   000048   740D         MOV     A,#0xd
   \   00004A   12....       LCALL   ?XSTACK_DISP0_8
   \   00004D   12....       LCALL   ?Subroutine8 & 0xFFFF
   \                     ??CrossCallReturnLabel_40:
   \   000050   12....       LCALL   ?DEALLOC_XSTACK8
    532            datacmp[1]=ADDR1;                                              //数据2位为地址ADDR1
   \   000053   90....       MOV     DPTR,#ADDR1
   \   000056   E0           MOVX    A,@DPTR
   \   000057   C0E0         PUSH    A
   \   000059   740B         MOV     A,#0xb
   \   00005B   12....       LCALL   ?XSTACK_DISP0_8
   \   00005E   D0E0         POP     A
   \   000060   F0           MOVX    @DPTR,A
    533            datacmp[2]=ADDR2;                                              //数据3位为地址ADDR2
   \   000061   90....       MOV     DPTR,#ADDR2
   \   000064   E0           MOVX    A,@DPTR
   \   000065   C0E0         PUSH    A
   \   000067   740C         MOV     A,#0xc
   \   000069   12....       LCALL   ?XSTACK_DISP0_8
   \   00006C   D0E0         POP     A
   \   00006E   F0           MOVX    @DPTR,A
    534            datacmp[3]=ADDR3;                                              //数据4位为地址ADDR3
   \   00006F   90....       MOV     DPTR,#ADDR3
   \   000072   E0           MOVX    A,@DPTR
   \   000073   C0E0         PUSH    A
   \   000075   740D         MOV     A,#0xd
   \   000077   12....       LCALL   ?XSTACK_DISP0_8
   \   00007A   D0E0         POP     A
   \   00007C   F0           MOVX    @DPTR,A
    535            
    536            switch ( pkt->clusterId )
   \   00007D   8E82         MOV     DPL,R6
   \   00007F   8F83         MOV     DPH,R7
   \   000081   A3           INC     DPTR
   \   000082   A3           INC     DPTR
   \   000083   A3           INC     DPTR
   \   000084   A3           INC     DPTR
   \   000085   12....       LCALL   ?Subroutine9 & 0xFFFF
   \                     ??CrossCallReturnLabel_14:
   \   000088   12....       LCALL   ?US_SWITCH_DENSE
   \                     `?<Jumptable for SampleApp_MessageMSGCB>_0`:
   \   00008B   0100         DW        1
   \   00008D   01           DB        1
   \   00008E   ....         DW        ??SampleApp_MessageMSGCB_0
   \   000090   ....         DW        ??SampleApp_MessageMSGCB_1
   \   000092   ....         DW        ??SampleApp_MessageMSGCB_2
    537            {
    538          //*************数据处理部分***************************************************//
    539              case SAMPLEAPP_PERIODIC_CLUSTERID:                            
    540                osal_memcpy(data,pkt->cmd.Data,pkt->cmd.DataLength);       //将数据缓存至数组data   
   \                     ??SampleApp_MessageMSGCB_1:
   \   000094                ; Setup parameters for call to function osal_memcpy
   \   000094   12....       LCALL   ?Subroutine16 & 0xFFFF
   \                     ??CrossCallReturnLabel_27:
   \   000097   12....       LCALL   ?Subroutine9 & 0xFFFF
   \                     ??CrossCallReturnLabel_15:
   \   00009A   12....       LCALL   ?PUSH_XSTACK_I_THREE
   \   00009D   12....       LCALL   ?Subroutine15 & 0xFFFF
   \                     ??CrossCallReturnLabel_25:
   \   0000A0   FC           MOV     R4,A
   \   0000A1   A3           INC     DPTR
   \   0000A2   E0           MOVX    A,@DPTR
   \   0000A3   FD           MOV     R5,A
   \   0000A4   7403         MOV     A,#0x3
   \   0000A6   12....       LCALL   ?XSTACK_DISP0_8
   \   0000A9   12....       LCALL   ?Subroutine8 & 0xFFFF
   \                     ??CrossCallReturnLabel_41:
   \   0000AC   12....       LCALL   ?DEALLOC_XSTACK8
    541                if(osal_memcmp(datacmp,data,4) && (pkt->cmd.DataLength==9))//时钟同步和模式数据 9位
   \   0000AF                ; Setup parameters for call to function osal_memcmp
   \   0000AF   85..82       MOV     DPL,?XSP + 0
   \   0000B2   85..83       MOV     DPH,?XSP + 1
   \   0000B5   A982         MOV     R1,DPL
   \   0000B7   AA83         MOV     R2,DPH
   \   0000B9   89..         MOV     ?V0 + 0,R1
   \   0000BB   8A..         MOV     ?V0 + 1,R2
   \   0000BD   78..         MOV     R0,#?V0 + 0
   \   0000BF   12....       LCALL   ?PUSH_XSTACK_I_THREE
   \   0000C2   7C04         MOV     R4,#0x4
   \   0000C4   7D00         MOV     R5,#0x0
   \   0000C6   740D         MOV     A,#0xd
   \   0000C8   12....       LCALL   ?XSTACK_DISP0_8
   \   0000CB   A982         MOV     R1,DPL
   \   0000CD   AA83         MOV     R2,DPH
   \   0000CF   7B00         MOV     R3,#0x0
   \   0000D1   12....       LCALL   ??osal_memcmp?relay
   \   0000D4   7403         MOV     A,#0x3
   \   0000D6   12....       LCALL   ?DEALLOC_XSTACK8
   \   0000D9   E9           MOV     A,R1
   \   0000DA   7003         JNZ     $+5
   \   0000DC   02....       LJMP    ??SampleApp_MessageMSGCB_0 & 0xFFFF
   \   0000DF   12....       LCALL   ?Subroutine15 & 0xFFFF
   \                     ??CrossCallReturnLabel_26:
   \   0000E2   6409         XRL     A,#0x9
   \   0000E4   7002         JNZ     ??SampleApp_MessageMSGCB_3
   \   0000E6   A3           INC     DPTR
   \   0000E7   E0           MOVX    A,@DPTR
   \                     ??SampleApp_MessageMSGCB_3:
   \   0000E8   6003         JZ      $+5
   \   0000EA   02....       LJMP    ??SampleApp_MessageMSGCB_0 & 0xFFFF
    542                { 
    543                   osal_systemClock=(((uint32)data[4])<<24)+(((uint32)data[5])<<16)+(((uint32)data[6])<<8)+(data[7]);
   \   0000ED   7404         MOV     A,#0x4
   \   0000EF   12....       LCALL   ?XSTACK_DISP0_8
   \   0000F2   E0           MOVX    A,@DPTR
   \   0000F3   F5..         MOV     ?V0 + 0,A
   \   0000F5   E4           CLR     A
   \   0000F6   F5..         MOV     ?V0 + 1,A
   \   0000F8   F5..         MOV     ?V0 + 3,A
   \   0000FA   7418         MOV     A,#0x18
   \   0000FC   78..         MOV     R0,#?V0 + 0
   \   0000FE   12....       LCALL   ?L_SHL
   \   000101   7405         MOV     A,#0x5
   \   000103   12....       LCALL   ?XSTACK_DISP0_8
   \   000106   E0           MOVX    A,@DPTR
   \   000107   F5..         MOV     ?V0 + 4,A
   \   000109   E4           CLR     A
   \   00010A   F5..         MOV     ?V0 + 5,A
   \   00010C   F5..         MOV     ?V0 + 6,A
   \   00010E   F5..         MOV     ?V0 + 7,A
   \   000110   7410         MOV     A,#0x10
   \   000112   78..         MOV     R0,#?V0 + 4
   \   000114   12....       LCALL   ?L_SHL
   \   000117   78..         MOV     R0,#?V0 + 0
   \   000119   79..         MOV     R1,#?V0 + 4
   \   00011B   12....       LCALL   ?L_ADD
   \   00011E   7406         MOV     A,#0x6
   \   000120   12....       LCALL   ?XSTACK_DISP0_8
   \   000123   E0           MOVX    A,@DPTR
   \   000124   F5..         MOV     ?V0 + 4,A
   \   000126   E4           CLR     A
   \   000127   F5..         MOV     ?V0 + 6,A
   \   000129   7408         MOV     A,#0x8
   \   00012B   78..         MOV     R0,#?V0 + 4
   \   00012D   12....       LCALL   ?L_SHL
   \   000130   78..         MOV     R0,#?V0 + 0
   \   000132   79..         MOV     R1,#?V0 + 4
   \   000134   12....       LCALL   ?L_ADD
   \   000137   7407         MOV     A,#0x7
   \   000139   12....       LCALL   ?XSTACK_DISP0_8
   \   00013C   E0           MOVX    A,@DPTR
   \   00013D   F5..         MOV     ?V0 + 4,A
   \   00013F   E4           CLR     A
   \   000140   F5..         MOV     ?V0 + 5,A
   \   000142   78..         MOV     R0,#?V0 + 0
   \   000144   79..         MOV     R1,#?V0 + 4
   \   000146   12....       LCALL   ?L_ADD
   \   000149   90....       MOV     DPTR,#osal_systemClock
   \   00014C   78..         MOV     R0,#?V0 + 0
   \   00014E   12....       LCALL   ?L_MOV_TO_X
    544                   Mode=data[8];                                           //前8位为时钟数据 第9位为工作模式
   \   000151   7408         MOV     A,#0x8
   \   000153   12....       LCALL   ?XSTACK_DISP0_8
   \   000156   E0           MOVX    A,@DPTR
   \   000157   90....       MOV     DPTR,#Mode
   \   00015A   F0           MOVX    @DPTR,A
    545                   pf = 1;                                                 //时钟同步完成 pf置1
   \   00015B   90....       MOV     DPTR,#pf
   \   00015E   7401         MOV     A,#0x1
   \   000160   F0           MOVX    @DPTR,A
   \   000161   8034         SJMP    ??SampleApp_MessageMSGCB_0
    546                }
    547                break;
    548                
    549              case SAMPLEAPP_P2P_CLUSTERID:
    550          
    551                break;  
    552                
    553              case SAMPLEAPP_FLASH_CLUSTERID:
    554                flashTime = BUILD_UINT16(pkt->cmd.Data[1], pkt->cmd.Data[2] );
    555                HalLedBlink( HAL_LED_4, 4, 50, (flashTime / 4) );
   \                     ??SampleApp_MessageMSGCB_2:
   \   000163   12....       LCALL   ?Subroutine16 & 0xFFFF
   \                     ??CrossCallReturnLabel_28:
   \   000166   E0           MOVX    A,@DPTR
   \   000167   F8           MOV     R0,A
   \   000168   A3           INC     DPTR
   \   000169   E0           MOVX    A,@DPTR
   \   00016A   F9           MOV     R1,A
   \   00016B                ; Setup parameters for call to function HalLedBlink
   \   00016B   8882         MOV     DPL,R0
   \   00016D   8983         MOV     DPH,R1
   \   00016F   A3           INC     DPTR
   \   000170   E0           MOVX    A,@DPTR
   \   000171   FA           MOV     R2,A
   \   000172   8882         MOV     DPL,R0
   \   000174   8983         MOV     DPH,R1
   \   000176   A3           INC     DPTR
   \   000177   A3           INC     DPTR
   \   000178   E0           MOVX    A,@DPTR
   \   000179   F9           MOV     R1,A
   \   00017A   EA           MOV     A,R2
   \   00017B   2400         ADD     A,#0x0
   \   00017D   F5..         MOV     ?V0 + 0,A
   \   00017F   E4           CLR     A
   \   000180   39           ADDC    A,R1
   \   000181   F5..         MOV     ?V0 + 1,A
   \   000183   7402         MOV     A,#0x2
   \   000185   78..         MOV     R0,#?V0 + 0
   \   000187   12....       LCALL   ?US_SHR
   \   00018A   AC..         MOV     R4,?V0 + 0
   \   00018C   AD..         MOV     R5,?V0 + 1
   \   00018E   7B32         MOV     R3,#0x32
   \   000190   7A04         MOV     R2,#0x4
   \   000192   7908         MOV     R1,#0x8
   \   000194   12....       LCALL   ??HalLedBlink?relay
    556                break;
    557            }
    558          }
   \                     ??SampleApp_MessageMSGCB_0:
   \   000197   7414         MOV     A,#0x14
   \   000199                REQUIRE ?Subroutine1
   \   000199                ; // Fall through to label ?Subroutine1

   \                                 In  segment BANKED_CODE, align 1, keep-with-next
   \                     ?Subroutine1:
   \   000000   12....       LCALL   ?DEALLOC_XSTACK8
   \   000003   7F08         MOV     R7,#0x8
   \   000005   02....       LJMP    ?BANKED_LEAVE_XDATA

   \                                 In  segment BANKED_CODE, align 1, keep-with-next
   \                     ?Subroutine16:
   \   000000   EE           MOV     A,R6
   \   000001   2422         ADD     A,#0x22
   \   000003   F582         MOV     DPL,A
   \   000005   EF           MOV     A,R7
   \   000006   3400         ADDC    A,#0x0
   \   000008   F583         MOV     DPH,A
   \   00000A   22           RET

   \                                 In  segment BANKED_CODE, align 1, keep-with-next
   \                     ?Subroutine15:
   \   000000   EE           MOV     A,R6
   \   000001   2420         ADD     A,#0x20
   \   000003   F582         MOV     DPL,A
   \   000005   EF           MOV     A,R7
   \   000006   3400         ADDC    A,#0x0
   \   000008   F583         MOV     DPH,A
   \   00000A   E0           MOVX    A,@DPTR
   \   00000B   22           RET

   \                                 In  segment BANKED_CODE, align 1, keep-with-next
   \                     ?Subroutine9:
   \   000000   E0           MOVX    A,@DPTR
   \   000001   F5..         MOV     ?V0 + 0,A
   \   000003   A3           INC     DPTR
   \   000004   E0           MOVX    A,@DPTR
   \   000005   F5..         MOV     ?V0 + 1,A
   \   000007   78..         MOV     R0,#?V0 + 0
   \   000009   22           RET

   \                                 In  segment BANKED_CODE, align 1, keep-with-next
   \                     ?Subroutine8:
   \   000000   AA82         MOV     R2,DPL
   \   000002   AB83         MOV     R3,DPH
   \   000004                REQUIRE ??Subroutine21_0
   \   000004                ; // Fall through to label ??Subroutine21_0
    559          
    560          /*********************************************************************
    561           * @fn      SampleApp_SendPeriodicMessage
    562           *
    563           * @brief   Send the periodic message.
    564           *
    565           * @param   none
    566           *
    567           * @return  none
    568           */

   \                                 In  segment BANKED_CODE, align 1, keep-with-next
    569          void SampleApp_SendPeriodicMessage(uint8 ADR)
   \                     SampleApp_SendPeriodicMessage:
    570          {
   \   000000   74F6         MOV     A,#-0xa
   \   000002   12....       LCALL   ?BANKED_ENTER_XDATA
   \   000005                ; Saved register size: 10
   \   000005                ; Auto size: 3
   \   000005   74FD         MOV     A,#-0x3
   \   000007   12....       LCALL   ?ALLOC_XSTACK8
   \   00000A   E9           MOV     A,R1
   \   00000B   FE           MOV     R6,A
    571            uint8 data[]="D1";
   \   00000C   85..82       MOV     DPL,?XSP + 0
   \   00000F   85..83       MOV     DPH,?XSP + 1
   \   000012   AC82         MOV     R4,DPL
   \   000014   AD83         MOV     R5,DPH
   \   000016   7583..       MOV     DPH,#(`?<Constant "D1">` >> 8) & 0xff
   \   000019   7582..       MOV     DPL,#`?<Constant "D1">` & 0xff
   \   00001C   7403         MOV     A,#0x3
   \   00001E   12....       LCALL   ?MOVE_LONG8_XDATA_XDATA
    572            data[1]=ADR+0X30;
   \   000021   7430         MOV     A,#0x30
   \   000023   2E           ADD     A,R6
   \   000024   C0E0         PUSH    A
   \   000026   7401         MOV     A,#0x1
   \   000028   12....       LCALL   ?XSTACK_DISP0_8
   \   00002B   D0E0         POP     A
   \   00002D   F0           MOVX    @DPTR,A
    573            if ( AF_DataRequest( &SampleApp_Periodic_DstAddr, &SampleApp_epDesc,
    574                                 SAMPLEAPP_PERIODIC_CLUSTERID,
    575                                 2,
    576                                 data,
    577                                 &SampleApp_TransID,
    578                                 AF_DISCV_ROUTE,
    579                                 AF_DEFAULT_RADIUS ) == afStatus_SUCCESS )
   \   00002E                ; Setup parameters for call to function AF_DataRequest
   \   00002E   75..1E       MOV     ?V0 + 0,#0x1e
   \   000031   78..         MOV     R0,#?V0 + 0
   \   000033   12....       LCALL   ?PUSH_XSTACK_I_ONE
   \   000036   75....       MOV     ?V0 + 0,#SampleApp_TransID & 0xff
   \   000039   75....       MOV     ?V0 + 1,#(SampleApp_TransID >> 8) & 0xff
   \   00003C   78..         MOV     R0,#?V0 + 0
   \   00003E   12....       LCALL   ?PUSH_XSTACK_I_TWO
   \   000041   7403         MOV     A,#0x3
   \   000043   12....       LCALL   ?XSTACK_DISP0_8
   \   000046   8582..       MOV     ?V0 + 0,DPL
   \   000049   8583..       MOV     ?V0 + 1,DPH
   \   00004C   78..         MOV     R0,#?V0 + 0
   \   00004E   12....       LCALL   ?PUSH_XSTACK_I_TWO
   \   000051   75..02       MOV     ?V0 + 0,#0x2
   \   000054   75..00       MOV     ?V0 + 1,#0x0
   \   000057   78..         MOV     R0,#?V0 + 0
   \   000059   12....       LCALL   ?PUSH_XSTACK_I_TWO
   \   00005C   75..01       MOV     ?V0 + 0,#0x1
   \   00005F   78..         MOV     R0,#?V0 + 0
   \   000061   12....       LCALL   ?PUSH_XSTACK_I_TWO
   \   000064   7920         MOV     R1,#0x20
   \   000066   7C..         MOV     R4,#SampleApp_epDesc & 0xff
   \   000068   7D..         MOV     R5,#(SampleApp_epDesc >> 8) & 0xff
   \   00006A   7A..         MOV     R2,#SampleApp_Periodic_DstAddr & 0xff
   \   00006C   7B..         MOV     R3,#(SampleApp_Periodic_DstAddr >> 8) & 0xff
   \   00006E                REQUIRE ?Subroutine0
   \   00006E                ; // Fall through to label ?Subroutine0
    580            {
    581            }
    582            else
    583            {
    584              // Error occurred in request to send.
    585            }
    586          }

   \                                 In  segment BANKED_CODE, align 1, keep-with-next
   \                     ?Subroutine0:
   \   000000   12....       LCALL   ??AF_DataRequest?relay
   \   000003   7409         MOV     A,#0x9
   \   000005   12....       LCALL   ?DEALLOC_XSTACK8
   \   000008   7403         MOV     A,#0x3
   \   00000A   12....       LCALL   ?DEALLOC_XSTACK8
   \   00000D                REQUIRE ??Subroutine22_0
   \   00000D                ; // Fall through to label ??Subroutine22_0
    587          
    588          /*********************************************************************
    589           * @fn      SampleApp_SendFlashMessage
    590           *
    591           * @brief   Send the flash message to group 1.
    592           *
    593           * @param   flashTime - in milliseconds
    594           *
    595           * @return  none
    596           */

   \                                 In  segment BANKED_CODE, align 1, keep-with-next
    597          void SampleApp_SendFlashMessage( uint16 flashTime )
   \                     SampleApp_SendFlashMessage:
    598          {
   \   000000   74F6         MOV     A,#-0xa
   \   000002   12....       LCALL   ?BANKED_ENTER_XDATA
   \   000005                ; Saved register size: 10
   \   000005                ; Auto size: 3
   \   000005   74FD         MOV     A,#-0x3
   \   000007   12....       LCALL   ?ALLOC_XSTACK8
    599            uint8 buffer[3];
    600            buffer[0] = (uint8)(SampleAppFlashCounter++);
   \   00000A   90....       MOV     DPTR,#SampleAppFlashCounter
   \   00000D   E0           MOVX    A,@DPTR
   \   00000E   85..82       MOV     DPL,?XSP + 0
   \   000011   85..83       MOV     DPH,?XSP + 1
   \   000014   F0           MOVX    @DPTR,A
   \   000015   90....       MOV     DPTR,#SampleAppFlashCounter
   \   000018   E0           MOVX    A,@DPTR
   \   000019   04           INC     A
   \   00001A   F0           MOVX    @DPTR,A
    601            buffer[1] = LO_UINT16( flashTime );
   \   00001B   7401         MOV     A,#0x1
   \   00001D   12....       LCALL   ?XSTACK_DISP0_8
   \   000020   EA           MOV     A,R2
   \   000021   F0           MOVX    @DPTR,A
    602            buffer[2] = HI_UINT16( flashTime );
   \   000022   7402         MOV     A,#0x2
   \   000024   12....       LCALL   ?XSTACK_DISP0_8
   \   000027   EB           MOV     A,R3
   \   000028   F0           MOVX    @DPTR,A
    603          
    604            if ( AF_DataRequest( &SampleApp_Flash_DstAddr, &SampleApp_epDesc,
    605                                 SAMPLEAPP_FLASH_CLUSTERID,
    606                                 3,
    607                                 buffer,
    608                                 &SampleApp_TransID,
    609                                 AF_DISCV_ROUTE,
    610                                 AF_DEFAULT_RADIUS ) == afStatus_SUCCESS )
   \   000029                ; Setup parameters for call to function AF_DataRequest
   \   000029   75..1E       MOV     ?V0 + 0,#0x1e
   \   00002C   78..         MOV     R0,#?V0 + 0
   \   00002E   12....       LCALL   ?PUSH_XSTACK_I_ONE
   \   000031   75....       MOV     ?V0 + 0,#SampleApp_TransID & 0xff
   \   000034   75....       MOV     ?V0 + 1,#(SampleApp_TransID >> 8) & 0xff
   \   000037   78..         MOV     R0,#?V0 + 0
   \   000039   12....       LCALL   ?PUSH_XSTACK_I_TWO
   \   00003C   7403         MOV     A,#0x3
   \   00003E   12....       LCALL   ?XSTACK_DISP0_8
   \   000041   8582..       MOV     ?V0 + 0,DPL
   \   000044   8583..       MOV     ?V0 + 1,DPH
   \   000047   78..         MOV     R0,#?V0 + 0
   \   000049   12....       LCALL   ?PUSH_XSTACK_I_TWO
   \   00004C   75..03       MOV     ?V0 + 0,#0x3
   \   00004F   75..00       MOV     ?V0 + 1,#0x0
   \   000052   78..         MOV     R0,#?V0 + 0
   \   000054   12....       LCALL   ?PUSH_XSTACK_I_TWO
   \   000057   75..02       MOV     ?V0 + 0,#0x2
   \   00005A   78..         MOV     R0,#?V0 + 0
   \   00005C   12....       LCALL   ?PUSH_XSTACK_I_TWO
   \   00005F   7920         MOV     R1,#0x20
   \   000061   7C..         MOV     R4,#SampleApp_epDesc & 0xff
   \   000063   7D..         MOV     R5,#(SampleApp_epDesc >> 8) & 0xff
   \   000065   7A..         MOV     R2,#SampleApp_Flash_DstAddr & 0xff
   \   000067   7B..         MOV     R3,#(SampleApp_Flash_DstAddr >> 8) & 0xff
   \   000069   80..         SJMP    ?Subroutine0
    611            {
    612            }
    613            else
    614            {
    615              // Error occurred in request to send.
    616            }
    617          }
    618          /*************************************************************
    619          发送端到端数据
    620          select：发送信息类型  1：数据  2同步请求
    621          **************************************************************/

   \                                 In  segment BANKED_CODE, align 1, keep-with-next
    622          void SampleApp_Send_P2P_Message( uint8 select ) 
   \                     SampleApp_Send_P2P_Message:
    623          { 
   \   000000   74F0         MOV     A,#-0x10
   \   000002   12....       LCALL   ?BANKED_ENTER_XDATA
   \   000005                ; Saved register size: 16
   \   000005                ; Auto size: 61
   \   000005   74C3         MOV     A,#-0x3d
   \   000007   12....       LCALL   ?ALLOC_XSTACK8
   \   00000A   E9           MOV     A,R1
   \   00000B   FF           MOV     R7,A
    624            uint8 i;                                        //循环计数
    625            double TIMER[3],HUM[3],temp;                    //温度、湿度缓存数组和中间变量
    626            uint16 LIGHT[3],Temp;                           //光照缓存数组和中间变量
    627            uint8  strTemp[21]={0};                         //采集数据缓存数组
   \   00000C   85..82       MOV     DPL,?XSP + 0
   \   00000F   85..83       MOV     DPH,?XSP + 1
   \   000012   AC82         MOV     R4,DPL
   \   000014   AD83         MOV     R5,DPH
   \   000016   7583..       MOV     DPH,#(`?<Constant {0}>_2` >> 8) & 0xff
   \   000019   7582..       MOV     DPL,#`?<Constant {0}>_2` & 0xff
   \   00001C   7415         MOV     A,#0x15
   \   00001E   12....       LCALL   ?MOVE_LONG8_XDATA_XDATA
    628            uint8  timerq[10]={0};                          //同步请求缓存数组
   \   000021   7433         MOV     A,#0x33
   \   000023   12....       LCALL   ?XSTACK_DISP0_8
   \   000026   AC82         MOV     R4,DPL
   \   000028   AD83         MOV     R5,DPH
   \   00002A   7583..       MOV     DPH,#(`?<Constant {0}>_3` >> 8) & 0xff
   \   00002D   7582..       MOV     DPL,#`?<Constant {0}>_3` & 0xff
   \   000030   740A         MOV     A,#0xa
   \   000032   12....       LCALL   ?MOVE_LONG8_XDATA_XDATA
    629            
    630          //****************数据计算和赋值**********************************************//
    631          //* 数据格式：DA01T 24.32H64I  347@ --21位
    632          //* 每种数据采集三次，取中间值
    633          //* 同步请求数据格式：TA01 --4位
    634            osal_memcpy(strTemp,"D", 1);                   
   \   000035                ; Setup parameters for call to function osal_memcpy
   \   000035   75....       MOV     ?V0 + 0,#`?<Constant "D">` & 0xff
   \   000038   75....       MOV     ?V0 + 1,#(`?<Constant "D">` >> 8) & 0xff
   \   00003B   F5..         MOV     ?V0 + 2,A
   \   00003D   78..         MOV     R0,#?V0 + 0
   \   00003F   12....       LCALL   ?PUSH_XSTACK_I_THREE
   \   000042   7C01         MOV     R4,#0x1
   \   000044   7D00         MOV     R5,#0x0
   \   000046   7403         MOV     A,#0x3
   \   000048   12....       LCALL   ?XSTACK_DISP0_8
   \   00004B   12....       LCALL   ?Subroutine8 & 0xFFFF
   \                     ??CrossCallReturnLabel_42:
   \   00004E   12....       LCALL   ?DEALLOC_XSTACK8
    635            strTemp[1]=ADDR1;
   \   000051   90....       MOV     DPTR,#ADDR1
   \   000054   E0           MOVX    A,@DPTR
   \   000055   C0E0         PUSH    A
   \   000057   7401         MOV     A,#0x1
   \   000059   12....       LCALL   ?XSTACK_DISP0_8
   \   00005C   D0E0         POP     A
   \   00005E   F0           MOVX    @DPTR,A
    636            strTemp[2]=ADDR2;
   \   00005F   90....       MOV     DPTR,#ADDR2
   \   000062   E0           MOVX    A,@DPTR
   \   000063   C0E0         PUSH    A
   \   000065   7402         MOV     A,#0x2
   \   000067   12....       LCALL   ?XSTACK_DISP0_8
   \   00006A   D0E0         POP     A
   \   00006C   F0           MOVX    @DPTR,A
    637            strTemp[3]=ADDR3;
   \   00006D   90....       MOV     DPTR,#ADDR3
   \   000070   E0           MOVX    A,@DPTR
   \   000071   C0E0         PUSH    A
   \   000073   7403         MOV     A,#0x3
   \   000075   12....       LCALL   ?XSTACK_DISP0_8
   \   000078   D0E0         POP     A
   \   00007A   F0           MOVX    @DPTR,A
    638            osal_memcpy(timerq,"T", 1);
   \   00007B                ; Setup parameters for call to function osal_memcpy
   \   00007B   75....       MOV     ?V0 + 0,#`?<Constant "T">` & 0xff
   \   00007E   75....       MOV     ?V0 + 1,#(`?<Constant "T">` >> 8) & 0xff
   \   000081   78..         MOV     R0,#?V0 + 0
   \   000083   12....       LCALL   ?PUSH_XSTACK_I_THREE
   \   000086   7C01         MOV     R4,#0x1
   \   000088   7D00         MOV     R5,#0x0
   \   00008A   7436         MOV     A,#0x36
   \   00008C   12....       LCALL   ?XSTACK_DISP0_8
   \   00008F   12....       LCALL   ?Subroutine8 & 0xFFFF
   \                     ??CrossCallReturnLabel_43:
   \   000092   12....       LCALL   ?DEALLOC_XSTACK8
    639            osal_memcpy(&timerq[1],&strTemp[1],3);
   \   000095                ; Setup parameters for call to function osal_memcpy
   \   000095   7401         MOV     A,#0x1
   \   000097   12....       LCALL   ?XSTACK_DISP0_8
   \   00009A   A982         MOV     R1,DPL
   \   00009C   AA83         MOV     R2,DPH
   \   00009E   89..         MOV     ?V0 + 0,R1
   \   0000A0   8A..         MOV     ?V0 + 1,R2
   \   0000A2   78..         MOV     R0,#?V0 + 0
   \   0000A4   12....       LCALL   ?PUSH_XSTACK_I_THREE
   \   0000A7   7C03         MOV     R4,#0x3
   \   0000A9   7D00         MOV     R5,#0x0
   \   0000AB   7437         MOV     A,#0x37
   \   0000AD   12....       LCALL   ?XSTACK_DISP0_8
   \   0000B0   12....       LCALL   ?Subroutine8 & 0xFFFF
   \                     ??CrossCallReturnLabel_44:
   \   0000B3   12....       LCALL   ?DEALLOC_XSTACK8
    640            if(select==0x01)
   \   0000B6   7401         MOV     A,#0x1
   \   0000B8   6F           XRL     A,R7
   \   0000B9   6003         JZ      $+5
   \   0000BB   02....       LJMP    ??SampleApp_Send_P2P_Message_0 & 0xFFFF
    641            {
    642          //*******************温湿度****************************************
    643              for(i=0;i<3;i++)
   \   0000BE   7E00         MOV     R6,#0x0
    644              {
    645                SHT_DataRevise();
   \                     ??SampleApp_Send_P2P_Message_1:
   \   0000C0                ; Setup parameters for call to function SHT_DataRevise
   \   0000C0   12....       LCALL   ??SHT_DataRevise?relay
    646                TIMER[i]=temper;
   \   0000C3   8E..         MOV     ?V0 + 0,R6
   \   0000C5   75..00       MOV     ?V0 + 1,#0x0
   \   0000C8   7402         MOV     A,#0x2
   \   0000CA   78..         MOV     R0,#?V0 + 0
   \   0000CC   12....       LCALL   ?S_SHL
   \   0000CF   A8..         MOV     R0,?V0 + 0
   \   0000D1   A9..         MOV     R1,?V0 + 1
   \   0000D3   90....       MOV     DPTR,#temper
   \   0000D6   12....       LCALL   ?XLOAD_R2345
   \   0000D9   741B         MOV     A,#0x1b
   \   0000DB   12....       LCALL   ?XSTACK_DISP0_8
   \   0000DE   12....       LCALL   ?Subroutine13 & 0xFFFF
   \                     ??CrossCallReturnLabel_20:
   \   0000E1   12....       LCALL   ?XSTORE_R2345
    647                HUM[i]=humid;
   \   0000E4   90....       MOV     DPTR,#humid
   \   0000E7   12....       LCALL   ?XLOAD_R2345
   \   0000EA   7427         MOV     A,#0x27
   \   0000EC   12....       LCALL   ?XSTACK_DISP0_8
   \   0000EF   12....       LCALL   ?Subroutine13 & 0xFFFF
   \                     ??CrossCallReturnLabel_21:
   \   0000F2   12....       LCALL   ?XSTORE_R2345
    648                Delay_ms(10);
   \   0000F5                ; Setup parameters for call to function Delay_ms
   \   0000F5   7A0A         MOV     R2,#0xa
   \   0000F7   12....       LCALL   ?Subroutine7 & 0xFFFF
    649              }
   \                     ??CrossCallReturnLabel_12:
   \   0000FA   40C4         JC      ??SampleApp_Send_P2P_Message_1
    650              for(i=0;i<2;i++)
   \   0000FC   7E00         MOV     R6,#0x0
    651              {
    652                if(TIMER[i]>=TIMER[i+1])
   \                     ??SampleApp_Send_P2P_Message_2:
   \   0000FE   8E..         MOV     ?V0 + 0,R6
   \   000100   75..00       MOV     ?V0 + 1,#0x0
   \   000103   7402         MOV     A,#0x2
   \   000105   78..         MOV     R0,#?V0 + 0
   \   000107   12....       LCALL   ?S_SHL
   \   00010A   A8..         MOV     R0,?V0 + 0
   \   00010C   A9..         MOV     R1,?V0 + 1
   \   00010E   741B         MOV     A,#0x1b
   \   000110   12....       LCALL   ?XSTACK_DISP0_8
   \   000113   12....       LCALL   ?Subroutine12 & 0xFFFF
   \                     ??CrossCallReturnLabel_18:
   \   000116   12....       LCALL   ?L_MOV_X
   \   000119   85..82       MOV     DPL,?V0 + 4
   \   00011C   85..83       MOV     DPH,?V0 + 5
   \   00011F   A3           INC     DPTR
   \   000120   A3           INC     DPTR
   \   000121   A3           INC     DPTR
   \   000122   A3           INC     DPTR
   \   000123   78..         MOV     R0,#?V0 + 4
   \   000125   12....       LCALL   ?L_MOV_X
   \   000128   78..         MOV     R0,#?V0 + 0
   \   00012A   79..         MOV     R1,#?V0 + 4
   \   00012C   12....       LCALL   ?FLT_GE
   \   00012F   5038         JNC     ??SampleApp_Send_P2P_Message_3
    653                {
    654                  temp=TIMER[i+1];
   \   000131   8E..         MOV     ?V0 + 0,R6
   \   000133   75..00       MOV     ?V0 + 1,#0x0
   \   000136   7402         MOV     A,#0x2
   \   000138   78..         MOV     R0,#?V0 + 0
   \   00013A   12....       LCALL   ?S_SHL
   \   00013D   A8..         MOV     R0,?V0 + 0
   \   00013F   A9..         MOV     R1,?V0 + 1
   \   000141   741B         MOV     A,#0x1b
   \   000143   12....       LCALL   ?XSTACK_DISP0_8
   \   000146   12....       LCALL   ?Subroutine11 & 0xFFFF
   \                     ??CrossCallReturnLabel_16:
   \   000149   12....       LCALL   ?L_MOV_X
    655                  TIMER[i+1]=TIMER[i];
   \   00014C   85..82       MOV     DPL,?V0 + 4
   \   00014F   85..83       MOV     DPH,?V0 + 5
   \   000152   12....       LCALL   ?XLOAD_R2345
   \   000155   85..82       MOV     DPL,?V0 + 6
   \   000158   85..83       MOV     DPH,?V0 + 7
   \   00015B   12....       LCALL   ?XSTORE_R2345
    656                  TIMER[i]=temp;
   \   00015E   85..82       MOV     DPL,?V0 + 4
   \   000161   85..83       MOV     DPH,?V0 + 5
   \   000164   78..         MOV     R0,#?V0 + 0
   \   000166   12....       LCALL   ?L_MOV_TO_X
    657                }
    658                if(HUM[i]>=HUM[i+1])
   \                     ??SampleApp_Send_P2P_Message_3:
   \   000169   8E..         MOV     ?V0 + 0,R6
   \   00016B   75..00       MOV     ?V0 + 1,#0x0
   \   00016E   7402         MOV     A,#0x2
   \   000170   78..         MOV     R0,#?V0 + 0
   \   000172   12....       LCALL   ?S_SHL
   \   000175   A8..         MOV     R0,?V0 + 0
   \   000177   A9..         MOV     R1,?V0 + 1
   \   000179   7427         MOV     A,#0x27
   \   00017B   12....       LCALL   ?XSTACK_DISP0_8
   \   00017E   12....       LCALL   ?Subroutine12 & 0xFFFF
   \                     ??CrossCallReturnLabel_19:
   \   000181   12....       LCALL   ?L_MOV_X
   \   000184   85..82       MOV     DPL,?V0 + 4
   \   000187   85..83       MOV     DPH,?V0 + 5
   \   00018A   A3           INC     DPTR
   \   00018B   A3           INC     DPTR
   \   00018C   A3           INC     DPTR
   \   00018D   A3           INC     DPTR
   \   00018E   78..         MOV     R0,#?V0 + 4
   \   000190   12....       LCALL   ?L_MOV_X
   \   000193   78..         MOV     R0,#?V0 + 0
   \   000195   79..         MOV     R1,#?V0 + 4
   \   000197   12....       LCALL   ?FLT_GE
   \   00019A   5038         JNC     ??SampleApp_Send_P2P_Message_4
    659                {
    660                  temp=HUM[i+1];
   \   00019C   8E..         MOV     ?V0 + 0,R6
   \   00019E   75..00       MOV     ?V0 + 1,#0x0
   \   0001A1   7402         MOV     A,#0x2
   \   0001A3   78..         MOV     R0,#?V0 + 0
   \   0001A5   12....       LCALL   ?S_SHL
   \   0001A8   A8..         MOV     R0,?V0 + 0
   \   0001AA   A9..         MOV     R1,?V0 + 1
   \   0001AC   7427         MOV     A,#0x27
   \   0001AE   12....       LCALL   ?XSTACK_DISP0_8
   \   0001B1   12....       LCALL   ?Subroutine11 & 0xFFFF
   \                     ??CrossCallReturnLabel_17:
   \   0001B4   12....       LCALL   ?L_MOV_X
    661                  HUM[i+1]=HUM[i];
   \   0001B7   85..82       MOV     DPL,?V0 + 4
   \   0001BA   85..83       MOV     DPH,?V0 + 5
   \   0001BD   12....       LCALL   ?XLOAD_R2345
   \   0001C0   85..82       MOV     DPL,?V0 + 6
   \   0001C3   85..83       MOV     DPH,?V0 + 7
   \   0001C6   12....       LCALL   ?XSTORE_R2345
    662                  HUM[i]=temp;
   \   0001C9   85..82       MOV     DPL,?V0 + 4
   \   0001CC   85..83       MOV     DPH,?V0 + 5
   \   0001CF   78..         MOV     R0,#?V0 + 0
   \   0001D1   12....       LCALL   ?L_MOV_TO_X
    663                }
    664              }
   \                     ??SampleApp_Send_P2P_Message_4:
   \   0001D4   0E           INC     R6
   \   0001D5   EE           MOV     A,R6
   \   0001D6   C3           CLR     C
   \   0001D7   9402         SUBB    A,#0x2
   \   0001D9   5003         JNC     $+5
   \   0001DB   02....       LJMP    ??SampleApp_Send_P2P_Message_2 & 0xFFFF
    665          //***********************光照****************************************
    666              for(i=0;i<3;i++)
   \   0001DE   7E00         MOV     R6,#0x0
    667              {
    668                lux();
   \                     ??SampleApp_Send_P2P_Message_5:
   \   0001E0                ; Setup parameters for call to function lux
   \   0001E0   12....       LCALL   ??lux?relay
    669                LIGHT[i]=Light;
   \   0001E3   90....       MOV     DPTR,#Light
   \   0001E6   E0           MOVX    A,@DPTR
   \   0001E7   FA           MOV     R2,A
   \   0001E8   A3           INC     DPTR
   \   0001E9   E0           MOVX    A,@DPTR
   \   0001EA   FB           MOV     R3,A
   \   0001EB   EE           MOV     A,R6
   \   0001EC   C3           CLR     C
   \   0001ED   33           RLC     A
   \   0001EE   F8           MOV     R0,A
   \   0001EF   E4           CLR     A
   \   0001F0   33           RLC     A
   \   0001F1   F9           MOV     R1,A
   \   0001F2   7415         MOV     A,#0x15
   \   0001F4   12....       LCALL   ?XSTACK_DISP0_8
   \   0001F7   12....       LCALL   ?Subroutine13 & 0xFFFF
   \                     ??CrossCallReturnLabel_22:
   \   0001FA   EA           MOV     A,R2
   \   0001FB   F0           MOVX    @DPTR,A
   \   0001FC   A3           INC     DPTR
   \   0001FD   EB           MOV     A,R3
   \   0001FE   F0           MOVX    @DPTR,A
    670                Delay_ms(200);
   \   0001FF                ; Setup parameters for call to function Delay_ms
   \   0001FF   7AC8         MOV     R2,#-0x38
   \   000201   12....       LCALL   ?Subroutine7 & 0xFFFF
    671              }
   \                     ??CrossCallReturnLabel_13:
   \   000204   40DA         JC      ??SampleApp_Send_P2P_Message_5
    672              for(i=0;i<2;i++)
   \   000206   7E00         MOV     R6,#0x0
    673              {
    674                if(LIGHT[i]>=LIGHT[i+1])
   \                     ??SampleApp_Send_P2P_Message_6:
   \   000208   EE           MOV     A,R6
   \   000209   C3           CLR     C
   \   00020A   33           RLC     A
   \   00020B   F8           MOV     R0,A
   \   00020C   E4           CLR     A
   \   00020D   33           RLC     A
   \   00020E   F9           MOV     R1,A
   \   00020F   7415         MOV     A,#0x15
   \   000211   12....       LCALL   ?XSTACK_DISP0_8
   \   000214   E582         MOV     A,DPL
   \   000216   28           ADD     A,R0
   \   000217   F8           MOV     R0,A
   \   000218   E583         MOV     A,DPH
   \   00021A   39           ADDC    A,R1
   \   00021B   F9           MOV     R1,A
   \   00021C   8882         MOV     DPL,R0
   \   00021E   8983         MOV     DPH,R1
   \   000220   C082         PUSH    DPL
   \   000222   C083         PUSH    DPH
   \   000224   A3           INC     DPTR
   \   000225   A3           INC     DPTR
   \   000226   E0           MOVX    A,@DPTR
   \   000227   F8           MOV     R0,A
   \   000228   A3           INC     DPTR
   \   000229   E0           MOVX    A,@DPTR
   \   00022A   F9           MOV     R1,A
   \   00022B   D083         POP     DPH
   \   00022D   D082         POP     DPL
   \   00022F   C3           CLR     C
   \   000230   E0           MOVX    A,@DPTR
   \   000231   98           SUBB    A,R0
   \   000232   A3           INC     DPTR
   \   000233   E0           MOVX    A,@DPTR
   \   000234   99           SUBB    A,R1
   \   000235   4044         JC      ??SampleApp_Send_P2P_Message_7
    675                {
    676                  Temp=LIGHT[i+1];
   \   000237   EE           MOV     A,R6
   \   000238   C3           CLR     C
   \   000239   33           RLC     A
   \   00023A   F8           MOV     R0,A
   \   00023B   E4           CLR     A
   \   00023C   33           RLC     A
   \   00023D   F9           MOV     R1,A
   \   00023E   7415         MOV     A,#0x15
   \   000240   12....       LCALL   ?XSTACK_DISP0_8
   \   000243   E582         MOV     A,DPL
   \   000245   28           ADD     A,R0
   \   000246   F8           MOV     R0,A
   \   000247   E583         MOV     A,DPH
   \   000249   39           ADDC    A,R1
   \   00024A   F9           MOV     R1,A
   \   00024B   E8           MOV     A,R0
   \   00024C   2402         ADD     A,#0x2
   \   00024E   FA           MOV     R2,A
   \   00024F   E9           MOV     A,R1
   \   000250   3400         ADDC    A,#0x0
   \   000252   FB           MOV     R3,A
   \   000253   8A82         MOV     DPL,R2
   \   000255   8B83         MOV     DPH,R3
   \   000257   E0           MOVX    A,@DPTR
   \   000258   FC           MOV     R4,A
   \   000259   A3           INC     DPTR
   \   00025A   E0           MOVX    A,@DPTR
   \   00025B   FD           MOV     R5,A
    677                  LIGHT[i+1]=LIGHT[i];
   \   00025C   8882         MOV     DPL,R0
   \   00025E   8983         MOV     DPH,R1
   \   000260   E0           MOVX    A,@DPTR
   \   000261   F5..         MOV     ?V0 + 0,A
   \   000263   A3           INC     DPTR
   \   000264   E0           MOVX    A,@DPTR
   \   000265   F5..         MOV     ?V0 + 1,A
   \   000267   8A82         MOV     DPL,R2
   \   000269   8B83         MOV     DPH,R3
   \   00026B   E5..         MOV     A,?V0 + 0
   \   00026D   F0           MOVX    @DPTR,A
   \   00026E   A3           INC     DPTR
   \   00026F   E5..         MOV     A,?V0 + 1
   \   000271   F0           MOVX    @DPTR,A
    678                  LIGHT[i]=Temp;
   \   000272   8882         MOV     DPL,R0
   \   000274   8983         MOV     DPH,R1
   \   000276   EC           MOV     A,R4
   \   000277   F0           MOVX    @DPTR,A
   \   000278   A3           INC     DPTR
   \   000279   ED           MOV     A,R5
   \   00027A   F0           MOVX    @DPTR,A
    679                }
    680              }
   \                     ??SampleApp_Send_P2P_Message_7:
   \   00027B   0E           INC     R6
   \   00027C   EE           MOV     A,R6
   \   00027D   C3           CLR     C
   \   00027E   9402         SUBB    A,#0x2
   \   000280   4086         JC      ??SampleApp_Send_P2P_Message_6
    681          //*****************数据转换*******************************************   
    682          //***************温度***************************
    683              if(TIMER[1]<0)
   \   000282   741F         MOV     A,#0x1f
   \   000284   12....       LCALL   ?XSTACK_DISP0_8
   \   000287   78..         MOV     R0,#?V0 + 0
   \   000289   12....       LCALL   ?L_MOV_X
   \   00028C   90....       MOV     DPTR,#__Constant_0
   \   00028F   78..         MOV     R0,#?V0 + 4
   \   000291   12....       LCALL   ?L_MOV_X
   \   000294   78..         MOV     R0,#?V0 + 0
   \   000296   79..         MOV     R1,#?V0 + 4
   \   000298   12....       LCALL   ?FLT_LT
   \   00029B   7405         MOV     A,#0x5
   \   00029D   5022         JNC     ??SampleApp_Send_P2P_Message_8
    684              {
    685                strTemp[5]='-';
   \   00029F   12....       LCALL   ?XSTACK_DISP0_8
   \   0002A2   742D         MOV     A,#0x2d
   \   0002A4   F0           MOVX    @DPTR,A
    686                TIMER[1]=-TIMER[1];
   \   0002A5   741F         MOV     A,#0x1f
   \   0002A7   12....       LCALL   ?XSTACK_DISP0_8
   \   0002AA   78..         MOV     R0,#?V0 + 0
   \   0002AC   12....       LCALL   ?L_MOV_X
   \   0002AF   E5..         MOV     A,?V0 + 3
   \   0002B1   B2E7         CPL     0xE0 /* A   */.7
   \   0002B3   F5..         MOV     ?V0 + 3,A
   \   0002B5   741F         MOV     A,#0x1f
   \   0002B7   12....       LCALL   ?XSTACK_DISP0_8
   \   0002BA   78..         MOV     R0,#?V0 + 0
   \   0002BC   12....       LCALL   ?L_MOV_TO_X
   \   0002BF   8006         SJMP    ??SampleApp_Send_P2P_Message_9
    687              }
    688              else
    689              {
    690                strTemp[5]=' ';
   \                     ??SampleApp_Send_P2P_Message_8:
   \   0002C1   12....       LCALL   ?XSTACK_DISP0_8
   \   0002C4   7420         MOV     A,#0x20
   \   0002C6   F0           MOVX    @DPTR,A
    691              }
    692              Temp=(uint16)(TIMER[1]*100);
    693              Temp%=10000;
   \                     ??SampleApp_Send_P2P_Message_9:
   \   0002C7   741F         MOV     A,#0x1f
   \   0002C9   12....       LCALL   ?XSTACK_DISP0_8
   \   0002CC   78..         MOV     R0,#?V0 + 0
   \   0002CE   12....       LCALL   ?L_MOV_X
   \   0002D1   90....       MOV     DPTR,#__Constant_42c80000
   \   0002D4   78..         MOV     R0,#?V0 + 4
   \   0002D6   12....       LCALL   ?L_MOV_X
   \   0002D9   78..         MOV     R0,#?V0 + 0
   \   0002DB   79..         MOV     R1,#?V0 + 4
   \   0002DD   12....       LCALL   ?FLT_MUL
   \   0002E0   78..         MOV     R0,#?V0 + 0
   \   0002E2   12....       LCALL   ?FLT_TO_L
   \   0002E5   A8..         MOV     R0,?V0 + 0
   \   0002E7   A9..         MOV     R1,?V0 + 1
   \   0002E9   7A10         MOV     R2,#0x10
   \   0002EB   7B27         MOV     R3,#0x27
   \   0002ED   12....       LCALL   ?US_DIV_MOD
   \   0002F0   8A..         MOV     ?V0 + 0,R2
   \   0002F2   8B..         MOV     ?V0 + 1,R3
   \   0002F4   AC..         MOV     R4,?V0 + 0
   \   0002F6   AD..         MOV     R5,?V0 + 1
    694              strTemp[6]=Temp/1000+0x30;
   \   0002F8   EC           MOV     A,R4
   \   0002F9   F8           MOV     R0,A
   \   0002FA   ED           MOV     A,R5
   \   0002FB   F9           MOV     R1,A
   \   0002FC   7AE8         MOV     R2,#-0x18
   \   0002FE   7B03         MOV     R3,#0x3
   \   000300   12....       LCALL   ?US_DIV_MOD
   \   000303   E8           MOV     A,R0
   \   000304   2430         ADD     A,#0x30
   \   000306   C0E0         PUSH    A
   \   000308   7406         MOV     A,#0x6
   \   00030A   12....       LCALL   ?XSTACK_DISP0_8
   \   00030D   D0E0         POP     A
   \   00030F   12....       LCALL   ?Subroutine5 & 0xFFFF
    695              Temp%=1000;
   \                     ??CrossCallReturnLabel_8:
   \   000312   12....       LCALL   ?US_DIV_MOD
   \   000315   8A..         MOV     ?V0 + 0,R2
   \   000317   8B..         MOV     ?V0 + 1,R3
   \   000319   AC..         MOV     R4,?V0 + 0
   \   00031B   AD..         MOV     R5,?V0 + 1
    696              strTemp[7]=Temp/100+0x30;
   \   00031D   EC           MOV     A,R4
   \   00031E   F8           MOV     R0,A
   \   00031F   ED           MOV     A,R5
   \   000320   F9           MOV     R1,A
   \   000321   7A64         MOV     R2,#0x64
   \   000323   7B00         MOV     R3,#0x0
   \   000325   12....       LCALL   ?US_DIV_MOD
   \   000328   E8           MOV     A,R0
   \   000329   2430         ADD     A,#0x30
   \   00032B   C0E0         PUSH    A
   \   00032D   7407         MOV     A,#0x7
   \   00032F   12....       LCALL   ?XSTACK_DISP0_8
   \   000332   D0E0         POP     A
   \   000334   12....       LCALL   ?Subroutine6 & 0xFFFF
    697              Temp%=100;
   \                     ??CrossCallReturnLabel_10:
   \   000337   12....       LCALL   ?US_DIV_MOD
   \   00033A   8A..         MOV     ?V0 + 0,R2
   \   00033C   8B..         MOV     ?V0 + 1,R3
   \   00033E   AC..         MOV     R4,?V0 + 0
   \   000340   AD..         MOV     R5,?V0 + 1
    698              strTemp[8]='.';
   \   000342   7408         MOV     A,#0x8
   \   000344   12....       LCALL   ?XSTACK_DISP0_8
   \   000347   742E         MOV     A,#0x2e
   \   000349   12....       LCALL   ?Subroutine3 & 0xFFFF
    699              strTemp[9]=Temp/10+0x30; 
   \                     ??CrossCallReturnLabel_2:
   \   00034C   12....       LCALL   ?US_DIV_MOD
   \   00034F   E8           MOV     A,R0
   \   000350   2430         ADD     A,#0x30
   \   000352   C0E0         PUSH    A
   \   000354   7409         MOV     A,#0x9
   \   000356   12....       LCALL   ?XSTACK_DISP0_8
   \   000359   D0E0         POP     A
   \   00035B   12....       LCALL   ?Subroutine3 & 0xFFFF
    700              strTemp[10]=Temp%10+0x30;  
   \                     ??CrossCallReturnLabel_3:
   \   00035E   12....       LCALL   ?US_DIV_MOD
   \   000361   EA           MOV     A,R2
   \   000362   2430         ADD     A,#0x30
   \   000364   C0E0         PUSH    A
   \   000366   740A         MOV     A,#0xa
   \   000368   12....       LCALL   ?XSTACK_DISP0_8
   \   00036B   D0E0         POP     A
   \   00036D   F0           MOVX    @DPTR,A
    701              
    702          //***************湿度***************************    
    703              Temp=(uint16)HUM[1];
   \   00036E   742B         MOV     A,#0x2b
   \   000370   12....       LCALL   ?XSTACK_DISP0_8
   \   000373   12....       LCALL   ?XLOAD_R2345
   \   000376   12....       LCALL   ?R2345_FLT_TO_L
   \   000379   AC..         MOV     R4,?V0 + 0
   \   00037B   AD..         MOV     R5,?V0 + 1
    704              if(Temp>=100)
   \   00037D   C3           CLR     C
   \   00037E   EC           MOV     A,R4
   \   00037F   9464         SUBB    A,#0x64
   \   000381   ED           MOV     A,R5
   \   000382   9400         SUBB    A,#0x0
   \   000384   4004         JC      ??SampleApp_Send_P2P_Message_10
    705              {
    706                  Temp=99;
   \   000386   7C63         MOV     R4,#0x63
   \   000388   7D00         MOV     R5,#0x0
    707              }
    708              strTemp[12]=Temp/10+0x30; 
   \                     ??SampleApp_Send_P2P_Message_10:
   \   00038A   EC           MOV     A,R4
   \   00038B   F8           MOV     R0,A
   \   00038C   ED           MOV     A,R5
   \   00038D   F9           MOV     R1,A
   \   00038E   7A0A         MOV     R2,#0xa
   \   000390   7B00         MOV     R3,#0x0
   \   000392   12....       LCALL   ?US_DIV_MOD
   \   000395   E8           MOV     A,R0
   \   000396   2430         ADD     A,#0x30
   \   000398   C0E0         PUSH    A
   \   00039A   740C         MOV     A,#0xc
   \   00039C   12....       LCALL   ?XSTACK_DISP0_8
   \   00039F   D0E0         POP     A
   \   0003A1   12....       LCALL   ?Subroutine3 & 0xFFFF
    709              strTemp[13]=Temp%10+0x30;
   \                     ??CrossCallReturnLabel_4:
   \   0003A4   12....       LCALL   ?US_DIV_MOD
   \   0003A7   EA           MOV     A,R2
   \   0003A8   2430         ADD     A,#0x30
   \   0003AA   C0E0         PUSH    A
   \   0003AC   740D         MOV     A,#0xd
   \   0003AE   12....       LCALL   ?XSTACK_DISP0_8
   \   0003B1   D0E0         POP     A
   \   0003B3   F0           MOVX    @DPTR,A
    710          
    711          //********温湿度检错***************************    
    712              if(SHTerror)
   \   0003B4   90....       MOV     DPTR,#SHTerror
   \   0003B7   E0           MOVX    A,@DPTR
   \   0003B8   602B         JZ      ??SampleApp_Send_P2P_Message_11
    713              {
    714                  osal_memcpy(&strTemp[4],"T-99.99", 7);  //温度错误显示
   \   0003BA                ; Setup parameters for call to function osal_memcpy
   \   0003BA   75....       MOV     ?V0 + 0,#`?<Constant "T-99.99">` & 0xff
   \   0003BD   75....       MOV     ?V0 + 1,#(`?<Constant "T-99.99">` >> 8) & 0xff
   \   0003C0   75..00       MOV     ?V0 + 2,#0x0
   \   0003C3   78..         MOV     R0,#?V0 + 0
   \   0003C5   12....       LCALL   ?PUSH_XSTACK_I_THREE
   \   0003C8   7C07         MOV     R4,#0x7
   \   0003CA   7D00         MOV     R5,#0x0
   \   0003CC   EC           MOV     A,R4
   \   0003CD   12....       LCALL   ?XSTACK_DISP0_8
   \   0003D0   12....       LCALL   ?Subroutine8 & 0xFFFF
   \                     ??CrossCallReturnLabel_45:
   \   0003D3   12....       LCALL   ?DEALLOC_XSTACK8
    715                  osal_memcpy(&strTemp[11],"H-1", 3);     //湿度错误显示
   \   0003D6                ; Setup parameters for call to function osal_memcpy
   \   0003D6   75....       MOV     ?V0 + 0,#`?<Constant "H-1">` & 0xff
   \   0003D9   75....       MOV     ?V0 + 1,#(`?<Constant "H-1">` >> 8) & 0xff
   \   0003DC   78..         MOV     R0,#?V0 + 0
   \   0003DE   12....       LCALL   ?PUSH_XSTACK_I_THREE
   \   0003E1   7C03         MOV     R4,#0x3
   \   0003E3   802A         SJMP    ??SampleApp_Send_P2P_Message_12
    716              }
    717              else
    718              {
    719                  osal_memcpy(&strTemp[4],"T", 1);
   \                     ??SampleApp_Send_P2P_Message_11:
   \   0003E5                ; Setup parameters for call to function osal_memcpy
   \   0003E5   75....       MOV     ?V0 + 0,#`?<Constant "T">` & 0xff
   \   0003E8   75....       MOV     ?V0 + 1,#(`?<Constant "T">` >> 8) & 0xff
   \   0003EB   75..00       MOV     ?V0 + 2,#0x0
   \   0003EE   78..         MOV     R0,#?V0 + 0
   \   0003F0   12....       LCALL   ?PUSH_XSTACK_I_THREE
   \   0003F3   7C01         MOV     R4,#0x1
   \   0003F5   7D00         MOV     R5,#0x0
   \   0003F7   7407         MOV     A,#0x7
   \   0003F9   12....       LCALL   ?XSTACK_DISP0_8
   \   0003FC   12....       LCALL   ?Subroutine8 & 0xFFFF
   \                     ??CrossCallReturnLabel_46:
   \   0003FF   12....       LCALL   ?DEALLOC_XSTACK8
    720                  osal_memcpy(&strTemp[11],"H", 1);
   \   000402                ; Setup parameters for call to function osal_memcpy
   \   000402   75....       MOV     ?V0 + 0,#`?<Constant "H">` & 0xff
   \   000405   75....       MOV     ?V0 + 1,#(`?<Constant "H">` >> 8) & 0xff
   \   000408   78..         MOV     R0,#?V0 + 0
   \   00040A   12....       LCALL   ?PUSH_XSTACK_I_THREE
   \   00040D   7C01         MOV     R4,#0x1
   \                     ??SampleApp_Send_P2P_Message_12:
   \   00040F   7D00         MOV     R5,#0x0
   \   000411   740E         MOV     A,#0xe
   \   000413   12....       LCALL   ?XSTACK_DISP0_8
    721              }
   \   000416   12....       LCALL   ?Subroutine8 & 0xFFFF
   \                     ??CrossCallReturnLabel_47:
   \   000419   12....       LCALL   ?DEALLOC_XSTACK8
    722              SHTerror=0;
   \   00041C   90....       MOV     DPTR,#SHTerror
   \   00041F   E4           CLR     A
   \   000420   F0           MOVX    @DPTR,A
    723              
    724          //***************光照**************************   
    725              Temp=LIGHT[1];
   \   000421   7417         MOV     A,#0x17
   \   000423   12....       LCALL   ?XSTACK_DISP0_8
   \   000426   E0           MOVX    A,@DPTR
   \   000427   FC           MOV     R4,A
   \   000428   A3           INC     DPTR
   \   000429   E0           MOVX    A,@DPTR
   \   00042A   FD           MOV     R5,A
    726              strTemp[15]=Temp/10000+0x30;
   \   00042B   EC           MOV     A,R4
   \   00042C   F8           MOV     R0,A
   \   00042D   ED           MOV     A,R5
   \   00042E   F9           MOV     R1,A
   \   00042F   7A10         MOV     R2,#0x10
   \   000431   7B27         MOV     R3,#0x27
   \   000433   12....       LCALL   ?US_DIV_MOD
   \   000436   E8           MOV     A,R0
   \   000437   2430         ADD     A,#0x30
   \   000439   C0E0         PUSH    A
   \   00043B   740F         MOV     A,#0xf
   \   00043D   12....       LCALL   ?XSTACK_DISP0_8
   \   000440   D0E0         POP     A
   \   000442   12....       LCALL   ?Subroutine18 & 0xFFFF
    727              Temp%=10000;
   \                     ??CrossCallReturnLabel_31:
   \   000445   7A10         MOV     R2,#0x10
   \   000447   7B27         MOV     R3,#0x27
   \   000449   12....       LCALL   ?US_DIV_MOD
   \   00044C   8A..         MOV     ?V0 + 0,R2
   \   00044E   8B..         MOV     ?V0 + 1,R3
   \   000450   AC..         MOV     R4,?V0 + 0
   \   000452   AD..         MOV     R5,?V0 + 1
    728              strTemp[16]=Temp/1000+0x30;
   \   000454   EC           MOV     A,R4
   \   000455   F8           MOV     R0,A
   \   000456   ED           MOV     A,R5
   \   000457   F9           MOV     R1,A
   \   000458   7AE8         MOV     R2,#-0x18
   \   00045A   7B03         MOV     R3,#0x3
   \   00045C   12....       LCALL   ?US_DIV_MOD
   \   00045F   E8           MOV     A,R0
   \   000460   2430         ADD     A,#0x30
   \   000462   C0E0         PUSH    A
   \   000464   7410         MOV     A,#0x10
   \   000466   12....       LCALL   ?XSTACK_DISP0_8
   \   000469   D0E0         POP     A
   \   00046B   12....       LCALL   ?Subroutine5 & 0xFFFF
    729              Temp%=1000;
   \                     ??CrossCallReturnLabel_9:
   \   00046E   12....       LCALL   ?US_DIV_MOD
   \   000471   8A..         MOV     ?V0 + 0,R2
   \   000473   8B..         MOV     ?V0 + 1,R3
   \   000475   AC..         MOV     R4,?V0 + 0
   \   000477   AD..         MOV     R5,?V0 + 1
    730              strTemp[17]=Temp/100+0x30;
   \   000479   EC           MOV     A,R4
   \   00047A   F8           MOV     R0,A
   \   00047B   ED           MOV     A,R5
   \   00047C   F9           MOV     R1,A
   \   00047D   7A64         MOV     R2,#0x64
   \   00047F   7B00         MOV     R3,#0x0
   \   000481   12....       LCALL   ?US_DIV_MOD
   \   000484   E8           MOV     A,R0
   \   000485   2430         ADD     A,#0x30
   \   000487   C0E0         PUSH    A
   \   000489   7411         MOV     A,#0x11
   \   00048B   12....       LCALL   ?XSTACK_DISP0_8
   \   00048E   D0E0         POP     A
   \   000490   12....       LCALL   ?Subroutine6 & 0xFFFF
    731              Temp%=100;
   \                     ??CrossCallReturnLabel_11:
   \   000493   12....       LCALL   ?US_DIV_MOD
   \   000496   8A..         MOV     ?V0 + 0,R2
   \   000498   8B..         MOV     ?V0 + 1,R3
   \   00049A   AC..         MOV     R4,?V0 + 0
   \   00049C   AD..         MOV     R5,?V0 + 1
    732              strTemp[18]=Temp/10+0x30;  
   \   00049E   EC           MOV     A,R4
   \   00049F   F8           MOV     R0,A
   \   0004A0   ED           MOV     A,R5
   \   0004A1   F9           MOV     R1,A
   \   0004A2   7A0A         MOV     R2,#0xa
   \   0004A4   7B00         MOV     R3,#0x0
   \   0004A6   12....       LCALL   ?US_DIV_MOD
   \   0004A9   E8           MOV     A,R0
   \   0004AA   2430         ADD     A,#0x30
   \   0004AC   C0E0         PUSH    A
   \   0004AE   7412         MOV     A,#0x12
   \   0004B0   12....       LCALL   ?XSTACK_DISP0_8
   \   0004B3   D0E0         POP     A
   \   0004B5   12....       LCALL   ?Subroutine3 & 0xFFFF
    733              strTemp[19]=Temp%10+0x30; 
   \                     ??CrossCallReturnLabel_5:
   \   0004B8   12....       LCALL   ?US_DIV_MOD
   \   0004BB   EA           MOV     A,R2
   \   0004BC   2430         ADD     A,#0x30
   \   0004BE   C0E0         PUSH    A
   \   0004C0   7413         MOV     A,#0x13
   \   0004C2   12....       LCALL   ?XSTACK_DISP0_8
   \   0004C5   D0E0         POP     A
   \   0004C7   F0           MOVX    @DPTR,A
    734              
    735          //***********光照检错*************************** 
    736              if(LUXerror)
   \   0004C8   90....       MOV     DPTR,#LUXerror
   \   0004CB   E0           MOVX    A,@DPTR
   \   0004CC   600F         JZ      ??SampleApp_Send_P2P_Message_13
    737              {
    738                  osal_memcpy(&strTemp[14],"I65535", 6);
   \   0004CE                ; Setup parameters for call to function osal_memcpy
   \   0004CE   75....       MOV     ?V0 + 0,#`?<Constant "I65535">` & 0xff
   \   0004D1   75....       MOV     ?V0 + 1,#(`?<Constant "I65535">` >> 8) & 0xff
   \   0004D4   78..         MOV     R0,#?V0 + 0
   \   0004D6   12....       LCALL   ?PUSH_XSTACK_I_THREE
   \   0004D9   7C06         MOV     R4,#0x6
   \   0004DB   800D         SJMP    ??SampleApp_Send_P2P_Message_14
    739              }                                        
    740              else
    741              {
    742                osal_memcpy(&strTemp[14],"I", 1);
   \                     ??SampleApp_Send_P2P_Message_13:
   \   0004DD                ; Setup parameters for call to function osal_memcpy
   \   0004DD   75....       MOV     ?V0 + 0,#`?<Constant "I">` & 0xff
   \   0004E0   75....       MOV     ?V0 + 1,#(`?<Constant "I">` >> 8) & 0xff
   \   0004E3   78..         MOV     R0,#?V0 + 0
   \   0004E5   12....       LCALL   ?PUSH_XSTACK_I_THREE
   \   0004E8   7C01         MOV     R4,#0x1
   \                     ??SampleApp_Send_P2P_Message_14:
   \   0004EA   7D00         MOV     R5,#0x0
   \   0004EC   7411         MOV     A,#0x11
   \   0004EE   12....       LCALL   ?XSTACK_DISP0_8
    743              }
   \   0004F1   12....       LCALL   ?Subroutine8 & 0xFFFF
   \                     ??CrossCallReturnLabel_48:
   \   0004F4   12....       LCALL   ?DEALLOC_XSTACK8
    744              LUXerror=0;
   \   0004F7   90....       MOV     DPTR,#LUXerror
   \   0004FA   E4           CLR     A
   \   0004FB   F0           MOVX    @DPTR,A
    745              strTemp[20]='@';
   \   0004FC   7414         MOV     A,#0x14
   \   0004FE   12....       LCALL   ?XSTACK_DISP0_8
   \   000501   7440         MOV     A,#0x40
   \   000503   F0           MOVX    @DPTR,A
    746          //************消去数据首零***********************
    747               if(strTemp[6]=='0')
   \   000504   7406         MOV     A,#0x6
   \   000506   12....       LCALL   ?XSTACK_DISP0_8
   \   000509   E0           MOVX    A,@DPTR
   \   00050A   6430         XRL     A,#0x30
   \   00050C   7003         JNZ     ??SampleApp_Send_P2P_Message_15
    748               {
    749                  strTemp[6]=' ';
   \   00050E   7420         MOV     A,#0x20
   \   000510   F0           MOVX    @DPTR,A
    750               }
    751               if(strTemp[12]=='0')
   \                     ??SampleApp_Send_P2P_Message_15:
   \   000511   740C         MOV     A,#0xc
   \   000513   12....       LCALL   ?XSTACK_DISP0_8
   \   000516   E0           MOVX    A,@DPTR
   \   000517   6430         XRL     A,#0x30
   \   000519   7003         JNZ     ??SampleApp_Send_P2P_Message_16
    752               {
    753                  strTemp[12]=' ';
   \   00051B   7420         MOV     A,#0x20
   \   00051D   F0           MOVX    @DPTR,A
    754               }
    755               for(i=0;i<4;i++)
   \                     ??SampleApp_Send_P2P_Message_16:
   \   00051E   7E00         MOV     R6,#0x0
    756               {
    757                  if(strTemp[15+i]=='0')
   \                     ??SampleApp_Send_P2P_Message_17:
   \   000520   8E..         MOV     ?V0 + 0,R6
   \   000522   85..82       MOV     DPL,?XSP + 0
   \   000525   85..83       MOV     DPH,?XSP + 1
   \   000528   E582         MOV     A,DPL
   \   00052A   25..         ADD     A,?V0 + 0
   \   00052C   F8           MOV     R0,A
   \   00052D   E583         MOV     A,DPH
   \   00052F   3400         ADDC    A,#0x0
   \   000531   F9           MOV     R1,A
   \   000532   E8           MOV     A,R0
   \   000533   240F         ADD     A,#0xf
   \   000535   F582         MOV     DPL,A
   \   000537   E9           MOV     A,R1
   \   000538   3400         ADDC    A,#0x0
   \   00053A   F583         MOV     DPH,A
   \   00053C   E0           MOVX    A,@DPTR
   \   00053D   6430         XRL     A,#0x30
   \   00053F   700A         JNZ     ??SampleApp_Send_P2P_Message_18
    758                  {
    759                    strTemp[15+i]=' ';
   \   000541   7420         MOV     A,#0x20
   \   000543   F0           MOVX    @DPTR,A
    760                  }
    761                  else
    762                  {
    763                    break;
    764                  }
    765               } 
   \   000544   0E           INC     R6
   \   000545   EE           MOV     A,R6
   \   000546   C3           CLR     C
   \   000547   9404         SUBB    A,#0x4
   \   000549   40D5         JC      ??SampleApp_Send_P2P_Message_17
    766          //**************清空数组**************************
    767               osal_memset(TIMER,0,sizeof(TIMER));
   \                     ??SampleApp_Send_P2P_Message_18:
   \   00054B                ; Setup parameters for call to function osal_memset
   \   00054B   7C0C         MOV     R4,#0xc
   \   00054D   7D00         MOV     R5,#0x0
   \   00054F   7900         MOV     R1,#0x0
   \   000551   741B         MOV     A,#0x1b
   \   000553   12....       LCALL   ?XSTACK_DISP0_8
   \   000556   AA82         MOV     R2,DPL
   \   000558   AB83         MOV     R3,DPH
   \   00055A   12....       LCALL   ??osal_memset?relay
    768               osal_memset(HUM,0,sizeof(HUM));
   \   00055D                ; Setup parameters for call to function osal_memset
   \   00055D   7C0C         MOV     R4,#0xc
   \   00055F   7D00         MOV     R5,#0x0
   \   000561   7900         MOV     R1,#0x0
   \   000563   7427         MOV     A,#0x27
   \   000565   12....       LCALL   ?XSTACK_DISP0_8
   \   000568   AA82         MOV     R2,DPL
   \   00056A   AB83         MOV     R3,DPH
   \   00056C   12....       LCALL   ??osal_memset?relay
    769               osal_memset(LIGHT,0,sizeof(LIGHT));
   \   00056F                ; Setup parameters for call to function osal_memset
   \   00056F   7C06         MOV     R4,#0x6
   \   000571   7D00         MOV     R5,#0x0
   \   000573   7900         MOV     R1,#0x0
   \   000575   7415         MOV     A,#0x15
   \   000577   12....       LCALL   ?XSTACK_DISP0_8
   \   00057A   AA82         MOV     R2,DPL
   \   00057C   AB83         MOV     R3,DPH
   \   00057E   12....       LCALL   ??osal_memset?relay
    770          
    771          //**************发送******************************    
    772              if ( AF_DataRequest( &SampleApp_P2P_DstAddr, &SampleApp_epDesc, 
    773                                    SAMPLEAPP_P2P_CLUSTERID, 
    774                                    21, 
    775                                    strTemp, 
    776                                    &SampleApp_TransID, 
    777                                    AF_DISCV_ROUTE, 
    778                                    AF_DEFAULT_RADIUS ) == afStatus_SUCCESS ) 
   \   000581                ; Setup parameters for call to function AF_DataRequest
   \   000581   75..1E       MOV     ?V0 + 0,#0x1e
   \   000584   78..         MOV     R0,#?V0 + 0
   \   000586   12....       LCALL   ?PUSH_XSTACK_I_ONE
   \   000589   75....       MOV     ?V0 + 0,#SampleApp_TransID & 0xff
   \   00058C   75....       MOV     ?V0 + 1,#(SampleApp_TransID >> 8) & 0xff
   \   00058F   78..         MOV     R0,#?V0 + 0
   \   000591   12....       LCALL   ?PUSH_XSTACK_I_TWO
   \   000594   7403         MOV     A,#0x3
   \   000596   12....       LCALL   ?XSTACK_DISP0_8
   \   000599   8582..       MOV     ?V0 + 0,DPL
   \   00059C   8583..       MOV     ?V0 + 1,DPH
   \   00059F   78..         MOV     R0,#?V0 + 0
   \   0005A1   12....       LCALL   ?PUSH_XSTACK_I_TWO
   \   0005A4   75..15       MOV     ?V0 + 0,#0x15
   \   0005A7   75..00       MOV     ?V0 + 1,#0x0
   \   0005AA   78..         MOV     R0,#?V0 + 0
   \   0005AC   12....       LCALL   ?PUSH_XSTACK_I_TWO
   \   0005AF   75..04       MOV     ?V0 + 0,#0x4
   \   0005B2   8033         SJMP    ??SampleApp_Send_P2P_Message_19
    779              { 
    780              }
    781              else 
    782              { 
    783                  // Error occurred in request to send. 
    784              } 
    785            }
    786          //*****************发送时间同步请求*******************************************//
    787            else if(select==0x02)
   \                     ??SampleApp_Send_P2P_Message_0:
   \   0005B4   7402         MOV     A,#0x2
   \   0005B6   6F           XRL     A,R7
   \   0005B7   7045         JNZ     ??SampleApp_Send_P2P_Message_20
    788            {  
    789              if ( AF_DataRequest( &SampleApp_P2P_DstAddr, &SampleApp_epDesc, 
    790                                    SAMPLEAPP_P2P_CLUSTERID, 
    791                                    4, 
    792                                    timerq, 
    793                                    &SampleApp_TransID, 
    794                                    AF_DISCV_ROUTE, 
    795                                    AF_DEFAULT_RADIUS ) == afStatus_SUCCESS ) 
   \   0005B9                ; Setup parameters for call to function AF_DataRequest
   \   0005B9   75..1E       MOV     ?V0 + 0,#0x1e
   \   0005BC   78..         MOV     R0,#?V0 + 0
   \   0005BE   12....       LCALL   ?PUSH_XSTACK_I_ONE
   \   0005C1   75....       MOV     ?V0 + 0,#SampleApp_TransID & 0xff
   \   0005C4   75....       MOV     ?V0 + 1,#(SampleApp_TransID >> 8) & 0xff
   \   0005C7   78..         MOV     R0,#?V0 + 0
   \   0005C9   12....       LCALL   ?PUSH_XSTACK_I_TWO
   \   0005CC   7436         MOV     A,#0x36
   \   0005CE   12....       LCALL   ?XSTACK_DISP0_8
   \   0005D1   8582..       MOV     ?V0 + 0,DPL
   \   0005D4   8583..       MOV     ?V0 + 1,DPH
   \   0005D7   78..         MOV     R0,#?V0 + 0
   \   0005D9   12....       LCALL   ?PUSH_XSTACK_I_TWO
   \   0005DC   75..04       MOV     ?V0 + 0,#0x4
   \   0005DF   75..00       MOV     ?V0 + 1,#0x0
   \   0005E2   78..         MOV     R0,#?V0 + 0
   \   0005E4   12....       LCALL   ?PUSH_XSTACK_I_TWO
   \                     ??SampleApp_Send_P2P_Message_19:
   \   0005E7   78..         MOV     R0,#?V0 + 0
   \   0005E9   12....       LCALL   ?PUSH_XSTACK_I_TWO
   \   0005EC   7920         MOV     R1,#0x20
   \   0005EE   7C..         MOV     R4,#SampleApp_epDesc & 0xff
   \   0005F0   7D..         MOV     R5,#(SampleApp_epDesc >> 8) & 0xff
   \   0005F2   7A..         MOV     R2,#SampleApp_P2P_DstAddr & 0xff
   \   0005F4   7B..         MOV     R3,#(SampleApp_P2P_DstAddr >> 8) & 0xff
   \   0005F6   12....       LCALL   ??AF_DataRequest?relay
   \   0005F9   7409         MOV     A,#0x9
   \   0005FB   12....       LCALL   ?DEALLOC_XSTACK8
    796              { 
    797              }
    798              else 
    799              { 
    800                  // Error occurred in request to send. 
    801              } 
    802            }
    803          } 
   \                     ??SampleApp_Send_P2P_Message_20:
   \   0005FE   743D         MOV     A,#0x3d
   \   000600   02....       LJMP    ?Subroutine1 & 0xFFFF

   \                                 In  segment BANKED_CODE, align 1, keep-with-next
   \                     ?Subroutine13:
   \   000000   E582         MOV     A,DPL
   \   000002   28           ADD     A,R0
   \   000003   F582         MOV     DPL,A
   \   000005   E583         MOV     A,DPH
   \   000007   39           ADDC    A,R1
   \   000008   F583         MOV     DPH,A
   \   00000A   22           RET

   \                                 In  segment BANKED_CODE, align 1, keep-with-next
   \                     ?Subroutine12:
   \   000000   12....       LCALL   ?Subroutine19 & 0xFFFF
   \                     ??CrossCallReturnLabel_36:
   \   000003   85..82       MOV     DPL,?V0 + 4
   \   000006   F583         MOV     DPH,A
   \   000008   78..         MOV     R0,#?V0 + 0
   \   00000A   22           RET

   \                                 In  segment BANKED_CODE, align 1, keep-with-next
   \                     ?Subroutine11:
   \   000000   12....       LCALL   ?Subroutine19 & 0xFFFF
   \                     ??CrossCallReturnLabel_35:
   \   000003   E5..         MOV     A,?V0 + 4
   \   000005   2404         ADD     A,#0x4
   \   000007   F5..         MOV     ?V0 + 6,A
   \   000009   E5..         MOV     A,?V0 + 5
   \   00000B   3400         ADDC    A,#0x0
   \   00000D   F5..         MOV     ?V0 + 7,A
   \   00000F   85..82       MOV     DPL,?V0 + 6
   \   000012   F583         MOV     DPH,A
   \   000014   78..         MOV     R0,#?V0 + 0
   \   000016   22           RET

   \                                 In  segment BANKED_CODE, align 1, keep-with-next
   \                     ?Subroutine19:
   \   000000   E582         MOV     A,DPL
   \   000002   28           ADD     A,R0
   \   000003   F5..         MOV     ?V0 + 4,A
   \   000005   E583         MOV     A,DPH
   \   000007   39           ADDC    A,R1
   \   000008   F5..         MOV     ?V0 + 5,A
   \   00000A   22           RET

   \                                 In  segment BANKED_CODE, align 1, keep-with-next
   \                     ?Subroutine7:
   \   000000   7B00         MOV     R3,#0x0
   \   000002   12....       LCALL   ??Delay_ms?relay
   \   000005   0E           INC     R6
   \   000006   EE           MOV     A,R6
   \   000007   C3           CLR     C
   \   000008   9403         SUBB    A,#0x3
   \   00000A   22           RET

   \                                 In  segment BANKED_CODE, align 1, keep-with-next
   \                     ?Subroutine6:
   \   000000   12....       LCALL   ?Subroutine18 & 0xFFFF
   \                     ??CrossCallReturnLabel_32:
   \   000003   7A64         MOV     R2,#0x64
   \   000005   7B00         MOV     R3,#0x0
   \   000007   22           RET

   \                                 In  segment BANKED_CODE, align 1, keep-with-next
   \                     ?Subroutine5:
   \   000000   12....       LCALL   ?Subroutine18 & 0xFFFF
   \                     ??CrossCallReturnLabel_33:
   \   000003   7AE8         MOV     R2,#-0x18
   \   000005   7B03         MOV     R3,#0x3
   \   000007   22           RET

   \                                 In  segment BANKED_CODE, align 1, keep-with-next
   \                     ?Subroutine18:
   \   000000   F0           MOVX    @DPTR,A
   \   000001   EC           MOV     A,R4
   \   000002   F8           MOV     R0,A
   \   000003   ED           MOV     A,R5
   \   000004   F9           MOV     R1,A
   \   000005   22           RET

   \                                 In  segment BANKED_CODE, align 1, keep-with-next
   \                     ?Subroutine3:
   \   000000   12....       LCALL   ?Subroutine18 & 0xFFFF
   \                     ??CrossCallReturnLabel_34:
   \   000003   7A0A         MOV     R2,#0xa
   \   000005   7B00         MOV     R3,#0x0
   \   000007   22           RET

   \                                 In  segment XDATA_ID, align 1, keep-with-next
   \                     `?<Initializer for Mode>`:
   \   000000   43           DB 67

   \                                 In  segment BANK_RELAYS, align 1
   \                     ??SampleApp_Init?relay:
   \   000000   12....       LCALL   ?BDISPATCH
   \   000003   ......       DC24    SampleApp_Init

   \                                 In  segment BANK_RELAYS, align 1
   \                     ??SampleApp_ProcessEvent?relay:
   \   000000   12....       LCALL   ?BDISPATCH
   \   000003   ......       DC24    SampleApp_ProcessEvent

   \                                 In  segment BANK_RELAYS, align 1
   \                     ??SampleApp_HandleKeys?relay:
   \   000000   12....       LCALL   ?BDISPATCH
   \   000003   ......       DC24    SampleApp_HandleKeys

   \                                 In  segment BANK_RELAYS, align 1
   \                     ??SampleApp_MessageMSGCB?relay:
   \   000000   12....       LCALL   ?BDISPATCH
   \   000003   ......       DC24    SampleApp_MessageMSGCB

   \                                 In  segment BANK_RELAYS, align 1
   \                     ??SampleApp_SendPeriodicMessage?relay:
   \   000000   12....       LCALL   ?BDISPATCH
   \   000003   ......       DC24    SampleApp_SendPeriodicMessage

   \                                 In  segment BANK_RELAYS, align 1
   \                     ??SampleApp_SendFlashMessage?relay:
   \   000000   12....       LCALL   ?BDISPATCH
   \   000003   ......       DC24    SampleApp_SendFlashMessage

   \                                 In  segment BANK_RELAYS, align 1
   \                     ??SampleApp_Send_P2P_Message?relay:
   \   000000   12....       LCALL   ?BDISPATCH
   \   000003   ......       DC24    SampleApp_Send_P2P_Message

   \                                 In  segment XDATA_ROM_C, align 1
   \                     `?<Constant "Group 1">`:
   \   000000   47726F75     DB "Group 1"
   \            70203100

   \                                 In  segment XDATA_ROM_C, align 1
   \                     `?<Constant {0}>`:
   \   000000   00           DB 0
   \   000001   00000000     DB 0, 0, 0, 0, 0, 0, 0, 0
   \            00000000
   \   000009   00           DB 0

   \                                 In  segment XDATA_ROM_C, align 1
   \                     `?<Constant {0}>_1`:
   \   000000   00           DB 0
   \   000001   00000000     DB 0, 0, 0, 0, 0, 0, 0, 0
   \            00000000
   \   000009   00           DB 0

   \                                 In  segment XDATA_ROM_C, align 1
   \                     `?<Constant "D">`:
   \   000000   4400         DB "D"

   \                                 In  segment XDATA_ROM_C, align 1
   \                     `?<Constant "D1">`:
   \   000000   443100       DB "D1"

   \                                 In  segment XDATA_ROM_C, align 1
   \                     `?<Constant {0}>_2`:
   \   000000   00           DB 0
   \   000001   00000000     DB 0, 0, 0, 0, 0, 0, 0, 0
   \            00000000
   \   000009   00000000     DB 0, 0, 0, 0, 0, 0, 0, 0
   \            00000000
   \   000011   00000000     DB 0, 0, 0, 0

   \                                 In  segment XDATA_ROM_C, align 1
   \                     `?<Constant {0}>_3`:
   \   000000   00           DB 0
   \   000001   00000000     DB 0, 0, 0, 0, 0, 0, 0, 0
   \            00000000
   \   000009   00           DB 0

   \                                 In  segment XDATA_ROM_C, align 1
   \                     `?<Constant "T">`:
   \   000000   5400         DB "T"

   \                                 In  segment XDATA_ROM_C, align 1
   \                     `?<Constant "T-99.99">`:
   \   000000   542D3939     DB "T-99.99"
   \            2E393900

   \                                 In  segment XDATA_ROM_C, align 1
   \                     `?<Constant "H-1">`:
   \   000000   482D3100     DB "H-1"

   \                                 In  segment XDATA_ROM_C, align 1
   \                     `?<Constant "H">`:
   \   000000   4800         DB "H"

   \                                 In  segment XDATA_ROM_C, align 1
   \                     `?<Constant "I65535">`:
   \   000000   49363535     DB "I65535"
   \            333500  

   \                                 In  segment XDATA_ROM_C, align 1
   \                     `?<Constant "I">`:
   \   000000   4900         DB "I"

   \                                 In  segment XDATA_ROM_C, align 1
   \                     __Constant_0:
   \   000000   00000000     DD 0

   \                                 In  segment XDATA_ROM_C, align 1
   \                     __Constant_42c80000:
   \   000000   0000C842     DD 42C80000H

   Maximum stack usage in bytes:

     Function                       ISTACK PSTACK XSTACK
     --------                       ------ ------ ------
     SampleApp_HandleKeys               0      0     22
       -> SampleApp_SendFlashMessage
                                        0      0     20
       -> aps_FindGroup                 0      0     20
       -> aps_RemoveGroup               0      0     20
       -> aps_AddGroup                  0      0     20
     SampleApp_Init                     0      0     14
       -> macRadioSetTxPower            0      0     22
       -> Delay_ms                      0      0     22
       -> Delay_ms                      0      0     22
       -> afRegister                    0      0     22
       -> RegisterForKeys               0      0     22
       -> osal_memcpy                   0      0     28
       -> aps_AddGroup                  0      0     22
     SampleApp_MessageMSGCB             2      0     51
       -> osal_memcpy                   0      0     78
       -> osal_memcpy                   0      0     78
       -> osal_memcmp                   0      0     78
       -> HalLedBlink                   0      0     72
     SampleApp_ProcessEvent             0      0     12
       -> osal_msg_receive              0      0     24
       -> osal_start_timerEx            0      0     24
       -> osal_msg_deallocate           0      0     24
       -> osal_msg_receive              0      0     24
       -> SampleApp_HandleKeys          0      0     24
       -> SampleApp_MessageMSGCB        0      0     24
       -> SampleApp_Send_P2P_Message
                                        0      0     24
       -> osal_start_timerEx            0      0     24
       -> Delay_ms                      0      0     24
       -> Delay_ms                      0      0     24
       -> SampleApp_Send_P2P_Message
                                        0      0     24
       -> SampleApp_Send_P2P_Message
                                        0      0     24
       -> osal_rand                     0      0     24
       -> osal_start_timerEx            0      0     24
       -> Delay_ms                      0      0     24
       -> Delay_ms                      0      0     24
       -> SampleApp_Send_P2P_Message
                                        0      0     24
       -> SampleApp_Send_P2P_Message
                                        0      0     24
       -> NLME_SetPollRate              0      0     24
       -> NLME_SetQueuedPollRate        0      0     24
       -> NLME_SetResponseRate          0      0     24
     SampleApp_SendFlashMessage         1      0     32
       -> AF_DataRequest                0      0     44
     SampleApp_SendPeriodicMessage      2      0     22
       -> AF_DataRequest                0      0     44
     SampleApp_Send_P2P_Message         2      0     98
       -> osal_memcpy                   0      0    160
       -> osal_memcpy                   0      0    160
       -> osal_memcpy                   0      0    160
       -> SHT_DataRevise                0      0    154
       -> Delay_ms                      0      0    154
       -> lux                           0      0    154
       -> Delay_ms                      0      0    154
       -> osal_memcpy                   0      0    160
       -> osal_memcpy                   0      0    160
       -> osal_memcpy                   0      0    160
       -> osal_memcpy                   0      0    160
       -> osal_memcpy                   0      0    160
       -> osal_memcpy                   0      0    160
       -> osal_memset                   0      0    154
       -> osal_memset                   0      0    154
       -> osal_memset                   0      0    154
       -> AF_DataRequest                0      0    172
       -> AF_DataRequest                0      0    172


   Segment part sizes:

     Function/Label                        Bytes
     --------------                        -----
     _A_P0                                    1
     P0INP                                    1
     _A_P1                                    1
     P0SEL                                    1
     P1SEL                                    1
     P1INP                                    1
     P2INP                                    1
     P0DIR                                    1
     P1DIR                                    1
     P2DIR                                    1
     SampleApp_ClusterList                    4
     SampleApp_SimpleDesc                    12
     SampleApp_epDesc                         6
     SampleApp_TaskID                         1
     SampleApp_NwkState                       1
     SampleApp_TransID                        1
     SampleApp_Periodic_DstAddr              12
     SampleApp_Flash_DstAddr                 12
     SampleApp_P2P_DstAddr                   12
     SampleApp_Group                         18
     SampleAppPeriodicCounter                 1
     SampleAppFlashCounter                    1
     pf                                       1
     powf                                     1
     SleepTime_MS                             4
     SleepTime                                4
     TX_Flag                                  1
     TCount                                   1
     CountF                                   1
     Mode                                     1
     ADDR                                     1
     ADDR1                                    1
     ADDR2                                    1
     ADDR3                                    1
     delayt                                   2
     SampleApp_Init                         350
     ?Subroutine4                            12
     ?Subroutine17                           21
     ??Subroutine21_0                         6
     SampleApp_ProcessEvent                 260
     ?Subroutine14                           12
     ?Subroutine10                            2
     ??Subroutine20_0                        11
     ?Subroutine2                            26
     SampleApp_HandleKeys                    62
     ??Subroutine22_0                         5
     SampleApp_MessageMSGCB                 409
     ?Subroutine1                             8
     ?Subroutine16                           11
     ?Subroutine15                           12
     ?Subroutine9                            10
     ?Subroutine8                             4
     SampleApp_SendPeriodicMessage          110
     ?Subroutine0                            13
     SampleApp_SendFlashMessage             107
     SampleApp_Send_P2P_Message            1539
     ?Subroutine13                           11
     ?Subroutine12                           11
     ?Subroutine11                           23
     ?Subroutine19                           11
     ?Subroutine7                            11
     ?Subroutine6                             8
     ?Subroutine5                             8
     ?Subroutine18                            6
     ?Subroutine3                             8
     ?<Initializer for Mode>                  1
     ??SampleApp_Init?relay                   6
     ??SampleApp_ProcessEvent?relay           6
     ??SampleApp_HandleKeys?relay             6
     ??SampleApp_MessageMSGCB?relay           6
     ??SampleApp_SendPeriodicMessage?relay    6
     ??SampleApp_SendFlashMessage?relay       6
     ??SampleApp_Send_P2P_Message?relay       6
     ?<Constant "Group 1">                    8
     ?<Constant {0}>                         10
     ?<Constant {0}>_1                       10
     ?<Constant "D">                          2
     ?<Constant "D1">                         3
     ?<Constant {0}>_2                       21
     ?<Constant {0}>_3                       10
     ?<Constant "T">                          2
     ?<Constant "T-99.99">                    8
     ?<Constant "H-1">                        4
     ?<Constant "H">                          2
     ?<Constant "I65535">                     7
     ?<Constant "I">                          2
     __Constant_0                             4
     __Constant_42c80000                      4

 
 3 087 bytes in segment BANKED_CODE
    42 bytes in segment BANK_RELAYS
    10 bytes in segment SFR_AN
     1 byte  in segment XDATA_I
     1 byte  in segment XDATA_ID
   113 bytes in segment XDATA_ROM_C
    84 bytes in segment XDATA_Z
 
 3 130 bytes of CODE  memory
   105 bytes of CONST memory (+  8 bytes shared)
     0 bytes of DATA  memory (+ 10 bytes shared)
    85 bytes of XDATA memory

Errors: none
Warnings: none
