///////////////////////////////////////////////////////////////////////////////
//                                                                            /
// IAR C/C++ Compiler V8.10.3.10338/W32 for 8051        31/Jul/2015  16:17:58 /
// Copyright 2004-2011 IAR Systems AB.                                        /
//                                                                            /
//    Core               =  plain                                             /
//    Code model         =  banked                                            /
//    Data model         =  large                                             /
//    Calling convention =  xdata reentrant                                   /
//    Constant location  =  data_rom                                          /
//    Dptr setup         =  1,16                                              /
//    Source file        =  C:\Users\BoyAngel\Desktop\正式版-4.0\EndDvice -   /
//                          改进版\Projects\zstack\Samples\SampleApp\Source\S /
//                          ampleApp.c                                        /
//    Command line       =  -f "C:\Users\BoyAngel\Desktop\正式版-4.0\EndDvice /
//                           - 改进版\Projects\zstack\Samples\SampleApp\CC253 /
//                          0DB\..\..\..\Tools\CC2530DB\f8wEndev.cfg"         /
//                          (-DCPU32MHZ -DROOT=__near_func                    /
//                          -DMAC_CFG_TX_DATA_MAX=3 -DMAC_CFG_TX_MAX=6        /
//                          -DMAC_CFG_RX_MAX=3) -f "C:\Users\BoyAngel\Desktop /
//                          \正式版-4.0\EndDvice - 改进版\Projects\zstack\Sam /
//                          ples\SampleApp\CC2530DB\..\..\..\Tools\CC2530DB\f /
//                          8wConfig.cfg" (-DZIGBEEPRO -DSECURE=0             /
//                          -DZG_SECURE_DYNAMIC=0 -DREFLECTOR                 /
//                          -DDEFAULT_CHANLIST=0x00000800                     /
//                          -DZDAPP_CONFIG_PAN_ID=0x0101                      /
//                          -DNWK_START_DELAY=100 -DEXTENDED_JOINING_RANDOM_M /
//                          ASK=0x007F -DBEACON_REQUEST_DELAY=500             /
//                          -DBEACON_REQ_DELAY_MASK=0x00FF                    /
//                          -DLINK_STATUS_JITTER_MASK=0x007F                  /
//                          -DROUTE_EXPIRY_TIME=30 -DAPSC_ACK_WAIT_DURATION_P /
//                          OLLED=3000 -DNWK_INDIRECT_MSG_TIMEOUT=7           /
//                          -DMAX_RREQ_ENTRIES=8 -DAPSC_MAX_FRAME_RETRIES=3   /
//                          -DNWK_MAX_DATA_RETRIES=2                          /
//                          -DMAX_POLL_FAILURE_RETRIES=2 -DMAX_BCAST=9        /
//                          -DAPS_MAX_GROUPS=16 -DMAX_RTG_ENTRIES=40          /
//                          -DNWK_MAX_BINDING_ENTRIES=4                       /
//                          -DMAX_BINDING_CLUSTER_IDS=4                       /
//                          "-DDEFAULT_KEY={0x01, 0x03, 0x05, 0x07, 0x09,     /
//                          0x0B, 0x0D, 0x0F, 0x00, 0x02, 0x04, 0x06, 0x08,   /
//                          0x0A, 0x0C, 0x0D}" -DMAC_MAX_FRAME_SIZE=116       /
//                          -DZDNWKMGR_MIN_TRANSMISSIONS=20 "-DCONST=const    /
//                          __code" -DGENERIC=__generic                       /
//                          -DRFD_RCVC_ALWAYS_ON=FALSE -DPOLL_RATE=1000       /
//                          -DQUEUED_POLL_RATE=100 -DRESPONSE_POLL_RATE=100)  /
//                          -DREJOIN_POLL_RATE=440 "C:\Users\BoyAngel\Desktop /
//                          \正式版-4.0\EndDvice - 改进版\Projects\zstack\Sam /
//                          ples\SampleApp\Source\SampleApp.c" -D             /
//                          xNWK_AUTO_POLL -D POWER_SAVING -D AUTO_RESET -D   /
//                          xMT_TASK -D xMT_SYS_FUNC -D xMT_ZDO_FUNC -D       /
//                          xLCD_SUPPORTED=DEBUG -lC                          /
//                          "C:\Users\BoyAngel\Desktop\正式版-4.0\EndDvice -  /
//                          改进版\Projects\zstack\Samples\SampleApp\CC2530DB /
//                          \EndDeviceEB\List\" -lA                           /
//                          "C:\Users\BoyAngel\Desktop\正式版-4.0\EndDvice -  /
//                          改进版\Projects\zstack\Samples\SampleApp\CC2530DB /
//                          \EndDeviceEB\List\" --diag_suppress Pe001,Pa010   /
//                          -o "C:\Users\BoyAngel\Desktop\正式版-4.0\EndDvice /
//                           - 改进版\Projects\zstack\Samples\SampleApp\CC253 /
//                          0DB\EndDeviceEB\Obj\" -e --no_code_motion         /
//                          --debug --core=plain --dptr=16,1                  /
//                          --data_model=large --code_model=banked            /
//                          --calling_convention=xdata_reentrant              /
//                          --place_constants=data_rom --nr_virtual_regs 16   /
//                          -I "C:\Users\BoyAngel\Desktop\正式版-4.0\EndDvice /
//                           - 改进版\Projects\zstack\Samples\SampleApp\CC253 /
//                          0DB\" -I "C:\Users\BoyAngel\Desktop\正式版-4.0\En /
//                          dDvice - 改进版\Projects\zstack\Samples\SampleApp /
//                          \CC2530DB\..\Source\" -I                          /
//                          "C:\Users\BoyAngel\Desktop\正式版-4.0\EndDvice -  /
//                          改进版\Projects\zstack\Samples\SampleApp\CC2530DB /
//                          \..\..\..\ZMain\TI2530DB\" -I                     /
//                          "C:\Users\BoyAngel\Desktop\正式版-4.0\EndDvice -  /
//                          改进版\Projects\zstack\Samples\SampleApp\CC2530DB /
//                          \..\..\..\..\..\Components\hal\include\" -I       /
//                          "C:\Users\BoyAngel\Desktop\正式版-4.0\EndDvice -  /
//                          改进版\Projects\zstack\Samples\SampleApp\CC2530DB /
//                          \..\..\..\..\..\Components\hal\target\CC2530EB\"  /
//                          -I "C:\Users\BoyAngel\Desktop\正式版-4.0\EndDvice /
//                           - 改进版\Projects\zstack\Samples\SampleApp\CC253 /
//                          0DB\..\..\..\..\..\Components\mac\include\" -I    /
//                          "C:\Users\BoyAngel\Desktop\正式版-4.0\EndDvice -  /
//                          改进版\Projects\zstack\Samples\SampleApp\CC2530DB /
//                          \..\..\..\..\..\Components\mac\high_level\" -I    /
//                          "C:\Users\BoyAngel\Desktop\正式版-4.0\EndDvice -  /
//                          改进版\Projects\zstack\Samples\SampleApp\CC2530DB /
//                          \..\..\..\..\..\Components\mac\low_level\srf04\"  /
//                          -I "C:\Users\BoyAngel\Desktop\正式版-4.0\EndDvice /
//                           - 改进版\Projects\zstack\Samples\SampleApp\CC253 /
//                          0DB\..\..\..\..\..\Components\mac\low_level\srf04 /
//                          \single_chip\" -I "C:\Users\BoyAngel\Desktop\正式 /
//                          版-4.0\EndDvice - 改进版\Projects\zstack\Samples\ /
//                          SampleApp\CC2530DB\..\..\..\..\..\Components\mt\" /
//                           -I "C:\Users\BoyAngel\Desktop\正式版-4.0\EndDvic /
//                          e - 改进版\Projects\zstack\Samples\SampleApp\CC25 /
//                          30DB\..\..\..\..\..\Components\osal\include\" -I  /
//                          "C:\Users\BoyAngel\Desktop\正式版-4.0\EndDvice -  /
//                          改进版\Projects\zstack\Samples\SampleApp\CC2530DB /
//                          \..\..\..\..\..\Components\services\saddr\" -I    /
//                          "C:\Users\BoyAngel\Desktop\正式版-4.0\EndDvice -  /
//                          改进版\Projects\zstack\Samples\SampleApp\CC2530DB /
//                          \..\..\..\..\..\Components\services\sdata\" -I    /
//                          "C:\Users\BoyAngel\Desktop\正式版-4.0\EndDvice -  /
//                          改进版\Projects\zstack\Samples\SampleApp\CC2530DB /
//                          \..\..\..\..\..\Components\stack\af\" -I          /
//                          "C:\Users\BoyAngel\Desktop\正式版-4.0\EndDvice -  /
//                          改进版\Projects\zstack\Samples\SampleApp\CC2530DB /
//                          \..\..\..\..\..\Components\stack\nwk\" -I         /
//                          "C:\Users\BoyAngel\Desktop\正式版-4.0\EndDvice -  /
//                          改进版\Projects\zstack\Samples\SampleApp\CC2530DB /
//                          \..\..\..\..\..\Components\stack\sapi\" -I        /
//                          "C:\Users\BoyAngel\Desktop\正式版-4.0\EndDvice -  /
//                          改进版\Projects\zstack\Samples\SampleApp\CC2530DB /
//                          \..\..\..\..\..\Components\stack\sec\" -I         /
//                          "C:\Users\BoyAngel\Desktop\正式版-4.0\EndDvice -  /
//                          改进版\Projects\zstack\Samples\SampleApp\CC2530DB /
//                          \..\..\..\..\..\Components\stack\sys\" -I         /
//                          "C:\Users\BoyAngel\Desktop\正式版-4.0\EndDvice -  /
//                          改进版\Projects\zstack\Samples\SampleApp\CC2530DB /
//                          \..\..\..\..\..\Components\stack\zdo\" -I         /
//                          "C:\Users\BoyAngel\Desktop\正式版-4.0\EndDvice -  /
//                          改进版\Projects\zstack\Samples\SampleApp\CC2530DB /
//                          \..\..\..\..\..\Components\zmac\" -I              /
//                          "C:\Users\BoyAngel\Desktop\正式版-4.0\EndDvice -  /
//                          改进版\Projects\zstack\Samples\SampleApp\CC2530DB /
//                          \..\..\..\..\..\Components\zmac\f8w\" -Ohz        /
//                          --require_prototypes                              /
//    List file          =  C:\Users\BoyAngel\Desktop\正式版-4.0\EndDvice -   /
//                          改进版\Projects\zstack\Samples\SampleApp\CC2530DB /
//                          \EndDeviceEB\List\SampleApp.s51                   /
//                                                                            /
//                                                                            /
///////////////////////////////////////////////////////////////////////////////

        NAME SampleApp

        RTMODEL "__SystemLibrary", "CLib"
        RTMODEL "__calling_convention", "xdata_reentrant"
        RTMODEL "__code_model", "banked"
        RTMODEL "__core", "plain"
        RTMODEL "__data_model", "large"
        RTMODEL "__dptr_size", "16"
        RTMODEL "__extended_stack", "disabled"
        RTMODEL "__location_for_constants", "data"
        RTMODEL "__number_of_dptrs", "1"
        RTMODEL "__rt_version", "1"

        RSEG DOVERLAY:DATA:NOROOT(0)
        RSEG IOVERLAY:IDATA:NOROOT(0)
        RSEG ISTACK:IDATA:NOROOT(0)
        RSEG PSTACK:XDATA:NOROOT(0)
        RSEG XSTACK:XDATA:NOROOT(0)

        EXTERN ?ALLOC_XSTACK8
        EXTERN ?BANKED_ENTER_XDATA
        EXTERN ?BANKED_LEAVE_XDATA
        EXTERN ?BDISPATCH
        EXTERN ?DEALLOC_XSTACK8
        EXTERN ?FLT_GE
        EXTERN ?FLT_LT
        EXTERN ?FLT_MUL
        EXTERN ?FLT_TO_L
        EXTERN ?L_ADD
        EXTERN ?L_MOV_TO_X
        EXTERN ?L_MOV_X
        EXTERN ?L_SHL
        EXTERN ?MOVE_LONG8_XDATA_XDATA
        EXTERN ?PUSH_XSTACK_I_ONE
        EXTERN ?PUSH_XSTACK_I_THREE
        EXTERN ?PUSH_XSTACK_I_TWO
        EXTERN ?R2345_FLT_TO_L
        EXTERN ?S_DIV_MOD
        EXTERN ?S_SHL
        EXTERN ?US_DIV_MOD
        EXTERN ?US_SHR
        EXTERN ?US_SWITCH_DENSE
        EXTERN ?V0
        EXTERN ?XLOAD_R2345
        EXTERN ?XSP
        EXTERN ?XSTACK_DISP0_8
        EXTERN ?XSTORE_R2345
        EXTERN __INIT_XDATA_I
        EXTERN __INIT_XDATA_Z

        PUBLIC ??SampleApp_HandleKeys?relay
        FUNCTION ??SampleApp_HandleKeys?relay,0203H
        PUBLIC ??SampleApp_Init?relay
        FUNCTION ??SampleApp_Init?relay,0203H
        PUBLIC ??SampleApp_MessageMSGCB?relay
        FUNCTION ??SampleApp_MessageMSGCB?relay,0203H
        PUBLIC ??SampleApp_ProcessEvent?relay
        FUNCTION ??SampleApp_ProcessEvent?relay,0203H
        PUBLIC ??SampleApp_SendFlashMessage?relay
        FUNCTION ??SampleApp_SendFlashMessage?relay,0203H
        PUBLIC ??SampleApp_SendPeriodicMessage?relay
        FUNCTION ??SampleApp_SendPeriodicMessage?relay,0203H
        PUBLIC ??SampleApp_Send_P2P_Message?relay
        FUNCTION ??SampleApp_Send_P2P_Message?relay,0203H
        PUBLIC ADDR
        PUBLIC ADDR1
        PUBLIC ADDR2
        PUBLIC ADDR3
        PUBLIC CountF
        PUBLIC Mode
        PUBWEAK P0DIR
        PUBWEAK P0INP
        PUBWEAK P0SEL
        PUBWEAK P1DIR
        PUBWEAK P1INP
        PUBWEAK P1SEL
        PUBWEAK P2DIR
        PUBWEAK P2INP
        PUBLIC SampleAppFlashCounter
        PUBLIC SampleAppPeriodicCounter
        PUBLIC SampleApp_ClusterList
        PUBLIC SampleApp_Flash_DstAddr
        PUBLIC SampleApp_Group
        PUBLIC SampleApp_HandleKeys
        FUNCTION SampleApp_HandleKeys,021203H
        ARGFRAME XSTACK, 12, STACK
        ARGFRAME IOVERLAY, 0, STATIC
        ARGFRAME DOVERLAY, 0, STATIC
        LOCFRAME XSTACK, 10, STACK
        PUBLIC SampleApp_Init
        FUNCTION SampleApp_Init,021203H
        ARGFRAME XSTACK, 0, STACK
        LOCFRAME XSTACK, 14, STACK
        PUBLIC SampleApp_MessageMSGCB
        FUNCTION SampleApp_MessageMSGCB,0a1203H
        ARGFRAME XSTACK, 12, STACK
        ARGFRAME IOVERLAY, 0, STATIC
        ARGFRAME DOVERLAY, 0, STATIC
        LOCFRAME ISTACK, 2, STACK
        LOCFRAME XSTACK, 39, STACK
        PUBLIC SampleApp_NwkState
        PUBLIC SampleApp_P2P_DstAddr
        PUBLIC SampleApp_Periodic_DstAddr
        PUBLIC SampleApp_ProcessEvent
        FUNCTION SampleApp_ProcessEvent,021203H
        ARGFRAME XSTACK, 0, STACK
        LOCFRAME XSTACK, 12, STACK
        PUBLIC SampleApp_SendFlashMessage
        FUNCTION SampleApp_SendFlashMessage,021203H
        ARGFRAME XSTACK, 10, STACK
        ARGFRAME IOVERLAY, 0, STATIC
        ARGFRAME DOVERLAY, 0, STATIC
        LOCFRAME ISTACK, 1, STACK
        LOCFRAME XSTACK, 22, STACK
        PUBLIC SampleApp_SendPeriodicMessage
        FUNCTION SampleApp_SendPeriodicMessage,021203H
        ARGFRAME XSTACK, 0, STACK
        LOCFRAME ISTACK, 2, STACK
        LOCFRAME XSTACK, 22, STACK
        PUBLIC SampleApp_Send_P2P_Message
        FUNCTION SampleApp_Send_P2P_Message,021203H
        ARGFRAME XSTACK, 12, STACK
        ARGFRAME IOVERLAY, 0, STATIC
        ARGFRAME DOVERLAY, 0, STATIC
        LOCFRAME ISTACK, 2, STACK
        LOCFRAME XSTACK, 86, STACK
        PUBLIC SampleApp_SimpleDesc
        PUBLIC SampleApp_TaskID
        PUBLIC SampleApp_TransID
        PUBLIC SampleApp_epDesc
        PUBLIC SleepTime
        PUBLIC SleepTime_MS
        PUBLIC TCount
        PUBLIC TX_Flag
        PUBWEAK _A_P0
        PUBWEAK _A_P1
        PUBWEAK __Constant_0
        PUBWEAK __Constant_42c80000
        PUBLIC delayt
        PUBLIC pf
        PUBLIC powf
        
        CFI Names cfiNames0
        CFI StackFrame CFA_SP SP IDATA
        CFI StackFrame CFA_PSP16 PSP16 XDATA
        CFI StackFrame CFA_XSP16 XSP16 XDATA
        CFI StaticOverlayFrame CFA_IOVERLAY IOVERLAY
        CFI StaticOverlayFrame CFA_DOVERLAY DOVERLAY
        CFI Resource `PSW.CY`:1, `B.BR0`:1, `B.BR1`:1, `B.BR2`:1, `B.BR3`:1
        CFI Resource `B.BR4`:1, `B.BR5`:1, `B.BR6`:1, `B.BR7`:1, `VB.BR8`:1
        CFI Resource `VB.BR9`:1, `VB.BR10`:1, `VB.BR11`:1, `VB.BR12`:1
        CFI Resource `VB.BR13`:1, `VB.BR14`:1, `VB.BR15`:1, VB:8, B:8, A:8
        CFI Resource PSW:8, DPL0:8, DPH0:8, R0:8, R1:8, R2:8, R3:8, R4:8, R5:8
        CFI Resource R6:8, R7:8, V0:8, V1:8, V2:8, V3:8, V4:8, V5:8, V6:8, V7:8
        CFI Resource V8:8, V9:8, V10:8, V11:8, V12:8, V13:8, V14:8, V15:8, SP:8
        CFI Resource PSPH:8, PSPL:8, PSP16:16, XSPH:8, XSPL:8, XSP16:16
        CFI VirtualResource ?RET:24
        CFI Resource ?BRET_EXT:8
        CFI VirtualResource ?RET_HIGH:8, ?RET_LOW:8
        CFI ResourceParts PSP16 PSPH, PSPL
        CFI ResourceParts XSP16 XSPH, XSPL
        CFI ResourceParts ?RET ?BRET_EXT, ?RET_HIGH, ?RET_LOW
        CFI EndNames cfiNames0
        
        CFI Common cfiCommon0 Using cfiNames0
        CFI CodeAlign 1
        CFI DataAlign -1
        CFI ReturnAddress ?RET CODE
        CFI CFA_DOVERLAY Used
        CFI CFA_IOVERLAY Used
        CFI CFA_SP SP+-3
        CFI CFA_PSP16 PSP16+0
        CFI CFA_XSP16 XSP16+0
        CFI `PSW.CY` SameValue
        CFI `B.BR0` SameValue
        CFI `B.BR1` SameValue
        CFI `B.BR2` SameValue
        CFI `B.BR3` SameValue
        CFI `B.BR4` SameValue
        CFI `B.BR5` SameValue
        CFI `B.BR6` SameValue
        CFI `B.BR7` SameValue
        CFI `VB.BR8` SameValue
        CFI `VB.BR9` SameValue
        CFI `VB.BR10` SameValue
        CFI `VB.BR11` SameValue
        CFI `VB.BR12` SameValue
        CFI `VB.BR13` SameValue
        CFI `VB.BR14` SameValue
        CFI `VB.BR15` SameValue
        CFI VB SameValue
        CFI B Undefined
        CFI A Undefined
        CFI PSW SameValue
        CFI DPL0 SameValue
        CFI DPH0 SameValue
        CFI R0 Undefined
        CFI R1 Undefined
        CFI R2 Undefined
        CFI R3 Undefined
        CFI R4 Undefined
        CFI R5 Undefined
        CFI R6 SameValue
        CFI R7 SameValue
        CFI V0 SameValue
        CFI V1 SameValue
        CFI V2 SameValue
        CFI V3 SameValue
        CFI V4 SameValue
        CFI V5 SameValue
        CFI V6 SameValue
        CFI V7 SameValue
        CFI V8 SameValue
        CFI V9 SameValue
        CFI V10 SameValue
        CFI V11 SameValue
        CFI V12 SameValue
        CFI V13 SameValue
        CFI V14 SameValue
        CFI V15 SameValue
        CFI PSPH Undefined
        CFI PSPL Undefined
        CFI XSPH Undefined
        CFI XSPL Undefined
        CFI ?RET Concat
        CFI ?BRET_EXT Frame(CFA_SP, 3)
        CFI ?RET_HIGH Frame(CFA_SP, 2)
        CFI ?RET_LOW Frame(CFA_SP, 1)
        CFI EndCommon cfiCommon0
        
        
        CFI Common cfiCommon1 Using cfiNames0
        CFI CodeAlign 1
        CFI DataAlign -1
        CFI ReturnAddress ?RET CODE
        CFI CFA_DOVERLAY Used
        CFI CFA_IOVERLAY Used
        CFI CFA_SP SP+-2
        CFI CFA_PSP16 PSP16+0
        CFI CFA_XSP16 XSP16+0
        CFI `PSW.CY` SameValue
        CFI `B.BR0` SameValue
        CFI `B.BR1` SameValue
        CFI `B.BR2` SameValue
        CFI `B.BR3` SameValue
        CFI `B.BR4` SameValue
        CFI `B.BR5` SameValue
        CFI `B.BR6` SameValue
        CFI `B.BR7` SameValue
        CFI `VB.BR8` SameValue
        CFI `VB.BR9` SameValue
        CFI `VB.BR10` SameValue
        CFI `VB.BR11` SameValue
        CFI `VB.BR12` SameValue
        CFI `VB.BR13` SameValue
        CFI `VB.BR14` SameValue
        CFI `VB.BR15` SameValue
        CFI VB SameValue
        CFI B SameValue
        CFI A SameValue
        CFI PSW SameValue
        CFI DPL0 SameValue
        CFI DPH0 SameValue
        CFI R0 SameValue
        CFI R1 SameValue
        CFI R2 SameValue
        CFI R3 SameValue
        CFI R4 SameValue
        CFI R5 SameValue
        CFI R6 SameValue
        CFI R7 SameValue
        CFI V0 SameValue
        CFI V1 SameValue
        CFI V2 SameValue
        CFI V3 SameValue
        CFI V4 SameValue
        CFI V5 SameValue
        CFI V6 SameValue
        CFI V7 SameValue
        CFI V8 SameValue
        CFI V9 SameValue
        CFI V10 SameValue
        CFI V11 SameValue
        CFI V12 SameValue
        CFI V13 SameValue
        CFI V14 SameValue
        CFI V15 SameValue
        CFI PSPH Undefined
        CFI PSPL Undefined
        CFI XSPH Undefined
        CFI XSPL Undefined
        CFI ?RET Concat
        CFI ?BRET_EXT SameValue
        CFI ?RET_HIGH Frame(CFA_SP, 2)
        CFI ?RET_LOW Frame(CFA_SP, 1)
        CFI EndCommon cfiCommon1
        
macRadioSetTxPower  SYMBOL "macRadioSetTxPower"
Delay_ms            SYMBOL "Delay_ms"
afRegister          SYMBOL "afRegister"
RegisterForKeys     SYMBOL "RegisterForKeys"
osal_memcpy         SYMBOL "osal_memcpy"
aps_AddGroup        SYMBOL "aps_AddGroup"
osal_msg_receive    SYMBOL "osal_msg_receive"
osal_start_timerEx  SYMBOL "osal_start_timerEx"
osal_msg_deallocate SYMBOL "osal_msg_deallocate"
osal_rand           SYMBOL "osal_rand"
NLME_SetPollRate    SYMBOL "NLME_SetPollRate"
NLME_SetQueuedPollRate SYMBOL "NLME_SetQueuedPollRate"
NLME_SetResponseRate SYMBOL "NLME_SetResponseRate"
aps_FindGroup       SYMBOL "aps_FindGroup"
aps_RemoveGroup     SYMBOL "aps_RemoveGroup"
osal_memcmp         SYMBOL "osal_memcmp"
HalLedBlink         SYMBOL "HalLedBlink"
AF_DataRequest      SYMBOL "AF_DataRequest"
SHT_DataRevise      SYMBOL "SHT_DataRevise"
lux                 SYMBOL "lux"
osal_memset         SYMBOL "osal_memset"
??AF_DataRequest?relay SYMBOL "?relay", AF_DataRequest
??Delay_ms?relay    SYMBOL "?relay", Delay_ms
??HalLedBlink?relay SYMBOL "?relay", HalLedBlink
??NLME_SetPollRate?relay SYMBOL "?relay", NLME_SetPollRate
??NLME_SetQueuedPollRate?relay SYMBOL "?relay", NLME_SetQueuedPollRate
??NLME_SetResponseRate?relay SYMBOL "?relay", NLME_SetResponseRate
??RegisterForKeys?relay SYMBOL "?relay", RegisterForKeys
??SHT_DataRevise?relay SYMBOL "?relay", SHT_DataRevise
??afRegister?relay  SYMBOL "?relay", afRegister
??aps_AddGroup?relay SYMBOL "?relay", aps_AddGroup
??aps_FindGroup?relay SYMBOL "?relay", aps_FindGroup
??aps_RemoveGroup?relay SYMBOL "?relay", aps_RemoveGroup
??lux?relay         SYMBOL "?relay", lux
??macRadioSetTxPower?relay SYMBOL "?relay", macRadioSetTxPower
??osal_memcmp?relay SYMBOL "?relay", osal_memcmp
??osal_memcpy?relay SYMBOL "?relay", osal_memcpy
??osal_memset?relay SYMBOL "?relay", osal_memset
??osal_msg_deallocate?relay SYMBOL "?relay", osal_msg_deallocate
??osal_msg_receive?relay SYMBOL "?relay", osal_msg_receive
??osal_rand?relay   SYMBOL "?relay", osal_rand
??osal_start_timerEx?relay SYMBOL "?relay", osal_start_timerEx
SampleApp_HandleKeys SYMBOL "SampleApp_HandleKeys"
??SampleApp_HandleKeys?relay SYMBOL "?relay", SampleApp_HandleKeys
SampleApp_Init      SYMBOL "SampleApp_Init"
??SampleApp_Init?relay SYMBOL "?relay", SampleApp_Init
SampleApp_MessageMSGCB SYMBOL "SampleApp_MessageMSGCB"
??SampleApp_MessageMSGCB?relay SYMBOL "?relay", SampleApp_MessageMSGCB
SampleApp_ProcessEvent SYMBOL "SampleApp_ProcessEvent"
??SampleApp_ProcessEvent?relay SYMBOL "?relay", SampleApp_ProcessEvent
SampleApp_SendFlashMessage SYMBOL "SampleApp_SendFlashMessage"
??SampleApp_SendFlashMessage?relay SYMBOL "?relay", SampleApp_SendFlashMessage
SampleApp_SendPeriodicMessage SYMBOL "SampleApp_SendPeriodicMessage"
??SampleApp_SendPeriodicMessage?relay SYMBOL "?relay", SampleApp_SendPeriodicMessage
SampleApp_Send_P2P_Message SYMBOL "SampleApp_Send_P2P_Message"
??SampleApp_Send_P2P_Message?relay SYMBOL "?relay", SampleApp_Send_P2P_Message

        EXTERN macRadioSetTxPower
        FUNCTION macRadioSetTxPower,0202H
        ARGFRAME ISTACK, 0, STACK
        ARGFRAME PSTACK, 0, STACK
        ARGFRAME XSTACK, 11, STACK
        ARGFRAME IOVERLAY, 0, STATIC
        ARGFRAME DOVERLAY, 0, STATIC
        EXTERN Delay_ms
        FUNCTION Delay_ms,0202H
        ARGFRAME ISTACK, 0, STACK
        ARGFRAME PSTACK, 0, STACK
        ARGFRAME XSTACK, 77, STACK
        ARGFRAME IOVERLAY, 0, STATIC
        ARGFRAME DOVERLAY, 0, STATIC
        EXTERN afRegister
        FUNCTION afRegister,0202H
        ARGFRAME ISTACK, 0, STACK
        ARGFRAME PSTACK, 0, STACK
        ARGFRAME XSTACK, 11, STACK
        ARGFRAME IOVERLAY, 0, STATIC
        ARGFRAME DOVERLAY, 0, STATIC
        EXTERN RegisterForKeys
        FUNCTION RegisterForKeys,0202H
        ARGFRAME ISTACK, 0, STACK
        ARGFRAME PSTACK, 0, STACK
        ARGFRAME XSTACK, 11, STACK
        ARGFRAME IOVERLAY, 0, STATIC
        ARGFRAME DOVERLAY, 0, STATIC
        EXTERN osal_memcpy
        FUNCTION osal_memcpy,0202H
        ARGFRAME ISTACK, 0, STACK
        ARGFRAME PSTACK, 0, STACK
        ARGFRAME XSTACK, 80, STACK
        ARGFRAME IOVERLAY, 0, STATIC
        ARGFRAME DOVERLAY, 0, STATIC
        EXTERN aps_AddGroup
        FUNCTION aps_AddGroup,0202H
        ARGFRAME ISTACK, 0, STACK
        ARGFRAME PSTACK, 0, STACK
        ARGFRAME XSTACK, 11, STACK
        ARGFRAME IOVERLAY, 0, STATIC
        ARGFRAME DOVERLAY, 0, STATIC
        EXTERN osal_msg_receive
        FUNCTION osal_msg_receive,0202H
        ARGFRAME ISTACK, 0, STACK
        ARGFRAME PSTACK, 0, STACK
        ARGFRAME XSTACK, 12, STACK
        ARGFRAME IOVERLAY, 0, STATIC
        ARGFRAME DOVERLAY, 0, STATIC
        EXTERN osal_start_timerEx
        FUNCTION osal_start_timerEx,0202H
        ARGFRAME ISTACK, 0, STACK
        ARGFRAME PSTACK, 0, STACK
        ARGFRAME XSTACK, 12, STACK
        ARGFRAME IOVERLAY, 0, STATIC
        ARGFRAME DOVERLAY, 0, STATIC
        EXTERN osal_msg_deallocate
        FUNCTION osal_msg_deallocate,0202H
        ARGFRAME ISTACK, 0, STACK
        ARGFRAME PSTACK, 0, STACK
        ARGFRAME XSTACK, 12, STACK
        ARGFRAME IOVERLAY, 0, STATIC
        ARGFRAME DOVERLAY, 0, STATIC
        EXTERN osal_rand
        FUNCTION osal_rand,0202H
        ARGFRAME ISTACK, 0, STACK
        ARGFRAME PSTACK, 0, STACK
        ARGFRAME XSTACK, 12, STACK
        ARGFRAME IOVERLAY, 0, STATIC
        ARGFRAME DOVERLAY, 0, STATIC
        EXTERN NLME_SetPollRate
        FUNCTION NLME_SetPollRate,0202H
        ARGFRAME ISTACK, 0, STACK
        ARGFRAME PSTACK, 0, STACK
        ARGFRAME XSTACK, 12, STACK
        ARGFRAME IOVERLAY, 0, STATIC
        ARGFRAME DOVERLAY, 0, STATIC
        EXTERN NLME_SetQueuedPollRate
        FUNCTION NLME_SetQueuedPollRate,0202H
        ARGFRAME ISTACK, 0, STACK
        ARGFRAME PSTACK, 0, STACK
        ARGFRAME XSTACK, 12, STACK
        ARGFRAME IOVERLAY, 0, STATIC
        ARGFRAME DOVERLAY, 0, STATIC
        EXTERN NLME_SetResponseRate
        FUNCTION NLME_SetResponseRate,0202H
        ARGFRAME ISTACK, 0, STACK
        ARGFRAME PSTACK, 0, STACK
        ARGFRAME XSTACK, 12, STACK
        ARGFRAME IOVERLAY, 0, STATIC
        ARGFRAME DOVERLAY, 0, STATIC
        EXTERN aps_FindGroup
        FUNCTION aps_FindGroup,0202H
        ARGFRAME ISTACK, 0, STACK
        ARGFRAME PSTACK, 0, STACK
        ARGFRAME XSTACK, 10, STACK
        ARGFRAME IOVERLAY, 0, STATIC
        ARGFRAME DOVERLAY, 0, STATIC
        EXTERN aps_RemoveGroup
        FUNCTION aps_RemoveGroup,0202H
        ARGFRAME ISTACK, 0, STACK
        ARGFRAME PSTACK, 0, STACK
        ARGFRAME XSTACK, 10, STACK
        ARGFRAME IOVERLAY, 0, STATIC
        ARGFRAME DOVERLAY, 0, STATIC
        EXTERN osal_memcmp
        FUNCTION osal_memcmp,0202H
        ARGFRAME ISTACK, 0, STACK
        ARGFRAME PSTACK, 0, STACK
        ARGFRAME XSTACK, 39, STACK
        ARGFRAME IOVERLAY, 0, STATIC
        ARGFRAME DOVERLAY, 0, STATIC
        EXTERN HalLedBlink
        FUNCTION HalLedBlink,0202H
        ARGFRAME ISTACK, 0, STACK
        ARGFRAME PSTACK, 0, STACK
        ARGFRAME XSTACK, 36, STACK
        ARGFRAME IOVERLAY, 0, STATIC
        ARGFRAME DOVERLAY, 0, STATIC
        EXTERN AF_DataRequest
        FUNCTION AF_DataRequest,0202H
        ARGFRAME ISTACK, 0, STACK
        ARGFRAME PSTACK, 0, STACK
        ARGFRAME XSTACK, 86, STACK
        ARGFRAME IOVERLAY, 0, STATIC
        ARGFRAME DOVERLAY, 0, STATIC
        EXTERN SHT_DataRevise
        FUNCTION SHT_DataRevise,0202H
        ARGFRAME ISTACK, 0, STACK
        ARGFRAME PSTACK, 0, STACK
        ARGFRAME XSTACK, 77, STACK
        ARGFRAME IOVERLAY, 0, STATIC
        ARGFRAME DOVERLAY, 0, STATIC
        EXTERN lux
        FUNCTION lux,0202H
        ARGFRAME ISTACK, 0, STACK
        ARGFRAME PSTACK, 0, STACK
        ARGFRAME XSTACK, 77, STACK
        ARGFRAME IOVERLAY, 0, STATIC
        ARGFRAME DOVERLAY, 0, STATIC
        EXTERN osal_memset
        FUNCTION osal_memset,0202H
        ARGFRAME ISTACK, 0, STACK
        ARGFRAME PSTACK, 0, STACK
        ARGFRAME XSTACK, 77, STACK
        ARGFRAME IOVERLAY, 0, STATIC
        ARGFRAME DOVERLAY, 0, STATIC
        EXTERN ??AF_DataRequest?relay
        FUNCTION ??AF_DataRequest?relay,00H
        EXTERN ??Delay_ms?relay
        FUNCTION ??Delay_ms?relay,00H
        EXTERN ??HalLedBlink?relay
        FUNCTION ??HalLedBlink?relay,00H
        EXTERN ??NLME_SetPollRate?relay
        FUNCTION ??NLME_SetPollRate?relay,00H
        EXTERN ??NLME_SetQueuedPollRate?relay
        FUNCTION ??NLME_SetQueuedPollRate?relay,00H
        EXTERN ??NLME_SetResponseRate?relay
        FUNCTION ??NLME_SetResponseRate?relay,00H
        EXTERN ??RegisterForKeys?relay
        FUNCTION ??RegisterForKeys?relay,00H
        EXTERN ??SHT_DataRevise?relay
        FUNCTION ??SHT_DataRevise?relay,00H
        EXTERN ??afRegister?relay
        FUNCTION ??afRegister?relay,00H
        EXTERN ??aps_AddGroup?relay
        FUNCTION ??aps_AddGroup?relay,00H
        EXTERN ??aps_FindGroup?relay
        FUNCTION ??aps_FindGroup?relay,00H
        EXTERN ??aps_RemoveGroup?relay
        FUNCTION ??aps_RemoveGroup?relay,00H
        EXTERN ??lux?relay
        FUNCTION ??lux?relay,00H
        EXTERN ??macRadioSetTxPower?relay
        FUNCTION ??macRadioSetTxPower?relay,00H
        EXTERN ??osal_memcmp?relay
        FUNCTION ??osal_memcmp?relay,00H
        EXTERN ??osal_memcpy?relay
        FUNCTION ??osal_memcpy?relay,00H
        EXTERN ??osal_memset?relay
        FUNCTION ??osal_memset?relay,00H
        EXTERN ??osal_msg_deallocate?relay
        FUNCTION ??osal_msg_deallocate?relay,00H
        EXTERN ??osal_msg_receive?relay
        FUNCTION ??osal_msg_receive?relay,00H
        EXTERN ??osal_rand?relay
        FUNCTION ??osal_rand?relay,00H
        EXTERN ??osal_start_timerEx?relay
        FUNCTION ??osal_start_timerEx?relay,00H
        EXTERN LUXerror
        EXTERN Light
        EXTERN SHTerror
        EXTERN humid
        EXTERN osal_systemClock
        EXTERN temper

// C:\Users\BoyAngel\Desktop\正式版-4.0\EndDvice - 改进版\Projects\zstack\Samples\SampleApp\Source\SampleApp.c
//    1 /**************************************************************************************************
//    2   Filename:       SampleApp.c
//    3   Revised:        $Date: 2009-03-18 15:56:27 -0700 (Wed, 18 Mar 2009) $
//    4   Revision:       $Revision: 19453 $
//    5 
//    6   Description:    Sample Application (no Profile).
//    7 
//    8 
//    9   Copyright 2007 Texas Instruments Incorporated. All rights reserved.
//   10 
//   11   IMPORTANT: Your use of this Software is limited to those specific rights
//   12   granted under the terms of a software license agreement between the user
//   13   who downloaded the software, his/her employer (which must be your employer)
//   14   and Texas Instruments Incorporated (the "License").  You may not use this
//   15   Software unless you agree to abide by the terms of the License. The License
//   16   limits your use, and you acknowledge, that the Software may not be modified,
//   17   copied or distributed unless embedded on a Texas Instruments microcontroller
//   18   or used solely and exclusively in conjunction with a Texas Instruments radio
//   19   frequency transceiver, which is integrated into your product.  Other than for
//   20   the foregoing purpose, you may not use, reproduce, copy, prepare derivative
//   21   works of, modify, distribute, perform, display or sell this Software and/or
//   22   its documentation for any purpose.
//   23 
//   24   YOU FURTHER ACKNOWLEDGE AND AGREE THAT THE SOFTWARE AND DOCUMENTATION ARE
//   25   PROVIDED AS IS?WITHOUT WARRANTY OF ANY KIND, EITHER EXPRESS OR IMPLIED,
//   26   INCLUDING WITHOUT LIMITATION, ANY WARRANTY OF MERCHANTABILITY, TITLE,
//   27   NON-INFRINGEMENT AND FITNESS FOR A PARTICULAR PURPOSE. IN NO EVENT SHALL
//   28   TEXAS INSTRUMENTS OR ITS LICENSORS BE LIABLE OR OBLIGATED UNDER CONTRACT,
//   29   NEGLIGENCE, STRICT LIABILITY, CONTRIBUTION, BREACH OF WARRANTY, OR OTHER
//   30   LEGAL EQUITABLE THEORY ANY DIRECT OR INDIRECT DAMAGES OR EXPENSES
//   31   INCLUDING BUT NOT LIMITED TO ANY INCIDENTAL, SPECIAL, INDIRECT, PUNITIVE
//   32   OR CONSEQUENTIAL DAMAGES, LOST PROFITS OR LOST DATA, COST OF PROCUREMENT
//   33   OF SUBSTITUTE GOODS, TECHNOLOGY, SERVICES, OR ANY CLAIMS BY THIRD PARTIES
//   34   (INCLUDING BUT NOT LIMITED TO ANY DEFENSE THEREOF), OR OTHER SIMILAR COSTS.
//   35 
//   36   Should you have any questions regarding your right to use this Software,
//   37   contact Texas Instruments Incorporated at www.TI.com.
//   38 **************************************************************************************************/
//   39 
//   40 /*********************************************************************
//   41   This application isn't intended to do anything useful, it is
//   42   intended to be a simple example of an application's structure.
//   43 
//   44   This application sends it's messages either as broadcast or
//   45   broadcast filtered group messages.  The other (more normal)
//   46   message addressing is unicast.  Most of the other sample
//   47   applications are written to support the unicast message model.
//   48 
//   49   Key control:
//   50     SW1:  Sends a flash command to all devices in Group 1.
//   51     SW2:  Adds/Removes (toggles) this device in and out
//   52           of Group 1.  This will enable and disable the
//   53           reception of the flash command.
//   54 *********************************************************************/
//   55 
//   56 /*********************************************************************
//   57  * INCLUDES
//   58  */
//   59 #include "OSAL.h"
//   60 #include "OSAL_Clock.h"
//   61 #include "OSAL_PwrMgr.h"
//   62 #include "OSAL_Timers.h"
//   63 #include "ZGlobals.h"
//   64 #include "AF.h"
//   65 #include "aps_groups.h"
//   66 #include "ZDApp.h"
//   67 
//   68 #include "SampleApp.h"
//   69 #include "SampleAppHw.h"
//   70 
//   71 #include "OnBoard.h"

        ASEGN SFR_AN:DATA:NOROOT,080H
// union <unnamed> volatile __sfr _A_P0
_A_P0:
        DATA8
        DS 1

        ASEGN SFR_AN:DATA:NOROOT,08fH
// unsigned char volatile __sfr P0INP
P0INP:
        DATA8
        DS 1

        ASEGN SFR_AN:DATA:NOROOT,090H
// union <unnamed> volatile __sfr _A_P1
_A_P1:
        DATA8
        DS 1

        ASEGN SFR_AN:DATA:NOROOT,0f3H
// unsigned char volatile __sfr P0SEL
P0SEL:
        DATA8
        DS 1

        ASEGN SFR_AN:DATA:NOROOT,0f4H
// unsigned char volatile __sfr P1SEL
P1SEL:
        DATA8
        DS 1

        ASEGN SFR_AN:DATA:NOROOT,0f6H
// unsigned char volatile __sfr P1INP
P1INP:
        DATA8
        DS 1

        ASEGN SFR_AN:DATA:NOROOT,0f7H
// unsigned char volatile __sfr P2INP
P2INP:
        DATA8
        DS 1

        ASEGN SFR_AN:DATA:NOROOT,0fdH
// unsigned char volatile __sfr P0DIR
P0DIR:
        DATA8
        DS 1

        ASEGN SFR_AN:DATA:NOROOT,0feH
// unsigned char volatile __sfr P1DIR
P1DIR:
        DATA8
        DS 1

        ASEGN SFR_AN:DATA:NOROOT,0ffH
// unsigned char volatile __sfr P2DIR
P2DIR:
        DATA8
        DS 1
//   72 #include "ioCC2530.h"
//   73 /* HAL */
//   74 #include "hal_lcd.h"
//   75 #include "hal_led.h"
//   76 #include "hal_key.h"
//   77 
//   78 #include "MT_UART.h"
//   79 #include "hal_uart.h"
//   80 #include "SHT20.h"
//   81 #include "lux.h"
//   82 #include "string.h"
//   83 #include "math.h"
//   84 #include "Mac_low_level.h"
//   85 /*********************************************************************
//   86  * MACROS
//   87  */
//   88 
//   89 /*********************************************************************
//   90  * CONSTANTS
//   91  */
//   92 
//   93 /*********************************************************************
//   94  * TYPEDEFS
//   95  */
//   96 
//   97 /*********************************************************************
//   98  * GLOBAL VARIABLES
//   99  */
//  100 
//  101 // This list should be filled with Application specific Cluster IDs.

        RSEG XDATA_ROM_C:CONST:REORDER:NOROOT(0)
        DATA32
//  102 const cId_t SampleApp_ClusterList[SAMPLEAPP_MAX_CLUSTERS] =
SampleApp_ClusterList:
        DATA16
        DW 1
        DW 2
//  103 {
//  104   SAMPLEAPP_PERIODIC_CLUSTERID,
//  105   SAMPLEAPP_FLASH_CLUSTERID
//  106 };
//  107 

        RSEG XDATA_ROM_C:CONST:REORDER:NOROOT(0)
        DATA8
//  108 const SimpleDescriptionFormat_t SampleApp_SimpleDesc =
SampleApp_SimpleDesc:
        DB 20
        DATA16
        DW 3848
        DW 1
        DATA8
        DB 0
        DB 2
        DATA16
        DW SampleApp_ClusterList
        DATA8
        DB 2
        DATA16
        DW SampleApp_ClusterList
//  109 {
//  110   SAMPLEAPP_ENDPOINT,              //  int Endpoint;
//  111   SAMPLEAPP_PROFID,                //  uint16 AppProfId[2];
//  112   SAMPLEAPP_DEVICEID,              //  uint16 AppDeviceId[2];
//  113   SAMPLEAPP_DEVICE_VERSION,        //  int   AppDevVer:4;
//  114   SAMPLEAPP_FLAGS,                 //  int   AppFlags:4;
//  115   SAMPLEAPP_MAX_CLUSTERS,          //  uint8  AppNumInClusters;
//  116   (cId_t *)SampleApp_ClusterList,  //  uint8 *pAppInClusterList;
//  117   SAMPLEAPP_MAX_CLUSTERS,          //  uint8  AppNumInClusters;
//  118   (cId_t *)SampleApp_ClusterList   //  uint8 *pAppInClusterList;
//  119 };
//  120 
//  121 // This is the Endpoint/Interface description.  It is defined here, but
//  122 // filled-in in SampleApp_Init().  Another way to go would be to fill
//  123 // in the structure here and make it a "const" (in code space).  The
//  124 // way it's defined in this sample app it is define in RAM.

        RSEG XDATA_Z:XDATA:NOROOT(0)
        DATA8
//  125 endPointDesc_t SampleApp_epDesc;
SampleApp_epDesc:
        DS 6
        REQUIRE __INIT_XDATA_Z
//  126 
//  127 /*********************************************************************
//  128  * EXTERNAL VARIABLES
//  129  */
//  130 
//  131 /*********************************************************************
//  132  * EXTERNAL FUNCTIONS
//  133  */
//  134 
//  135 /*********************************************************************
//  136  * LOCAL VARIABLES
//  137  */

        RSEG XDATA_Z:XDATA:NOROOT(0)
        DATA8
//  138 uint8 SampleApp_TaskID;   // Task ID for internal task/event processing
SampleApp_TaskID:
        DS 1
        REQUIRE __INIT_XDATA_Z
//  139                           // This variable will be received when
//  140                           // SampleApp_Init() is called.

        RSEG XDATA_Z:XDATA:NOROOT(0)
        DATA8
//  141 devStates_t SampleApp_NwkState;
SampleApp_NwkState:
        DS 1
        REQUIRE __INIT_XDATA_Z
//  142 

        RSEG XDATA_Z:XDATA:NOROOT(0)
        DATA8
//  143 uint8 SampleApp_TransID;  // This is the unique message ID (counter)
SampleApp_TransID:
        DS 1
        REQUIRE __INIT_XDATA_Z
//  144 

        RSEG XDATA_Z:XDATA:NOROOT(0)
        DATA8
//  145 afAddrType_t SampleApp_Periodic_DstAddr;
SampleApp_Periodic_DstAddr:
        DS 12
        REQUIRE __INIT_XDATA_Z

        RSEG XDATA_Z:XDATA:NOROOT(0)
        DATA8
//  146 afAddrType_t SampleApp_Flash_DstAddr;
SampleApp_Flash_DstAddr:
        DS 12
        REQUIRE __INIT_XDATA_Z

        RSEG XDATA_Z:XDATA:NOROOT(0)
        DATA8
//  147 afAddrType_t SampleApp_P2P_DstAddr;
SampleApp_P2P_DstAddr:
        DS 12
        REQUIRE __INIT_XDATA_Z
//  148 

        RSEG XDATA_Z:XDATA:NOROOT(0)
        DATA8
//  149 aps_Group_t SampleApp_Group;
SampleApp_Group:
        DS 18
        REQUIRE __INIT_XDATA_Z
//  150 

        RSEG XDATA_Z:XDATA:NOROOT(0)
        DATA8
//  151 uint8 SampleAppPeriodicCounter = 0;
SampleAppPeriodicCounter:
        DS 1
        REQUIRE __INIT_XDATA_Z

        RSEG XDATA_Z:XDATA:NOROOT(0)
        DATA8
//  152 uint8 SampleAppFlashCounter = 0;
SampleAppFlashCounter:
        DS 1
        REQUIRE __INIT_XDATA_Z
//  153 
//  154 #define	POWER P1_0           //负载电源控制位

        RSEG XDATA_Z:XDATA:NOROOT(0)
        DATA8
//  155 uint8 pf;                    //时钟事件标志
pf:
        DS 1
        REQUIRE __INIT_XDATA_Z

        RSEG XDATA_Z:XDATA:NOROOT(0)
        DATA8
//  156 uint8 powf;                  //进入睡眠标志
powf:
        DS 1
        REQUIRE __INIT_XDATA_Z
//  157 #define ABLen 10             //每个字母包含的节点个数

        RSEG XDATA_Z:XDATA:NOROOT(0)
        DATA32
//  158 uint32 SleepTime_MS = 0;     //每次睡眠的时间
SleepTime_MS:
        DS 4
        REQUIRE __INIT_XDATA_Z

        RSEG XDATA_Z:XDATA:NOROOT(0)
        DATA32
//  159 uint32 SleepTime = 0;        //总睡眠时间      
SleepTime:
        DS 4
        REQUIRE __INIT_XDATA_Z

        RSEG XDATA_Z:XDATA:NOROOT(0)
        DATA8
//  160 uint8 TX_Flag = 0;           //发送数据标志位
TX_Flag:
        DS 1
        REQUIRE __INIT_XDATA_Z

        RSEG XDATA_Z:XDATA:NOROOT(0)
        DATA8
//  161 uint8 TCount = 0;            //最大睡眠时间的次数
TCount:
        DS 1
        REQUIRE __INIT_XDATA_Z

        RSEG XDATA_Z:XDATA:NOROOT(0)
        DATA8
//  162 uint8 CountF = 0;            //计算睡眠时间标志位
CountF:
        DS 1
        REQUIRE __INIT_XDATA_Z

        RSEG XDATA_I:XDATA:NOROOT(0)
//  163 uint8 Mode = 'C';            //节点工作模式  C：正常  M：调试  
Mode:
        DATA8
        DS 1
        REQUIRE `?<Initializer for Mode>`
        REQUIRE __INIT_XDATA_I

        RSEG XDATA_Z:XDATA:NOROOT(0)
        DATA8
//  164 uint8 ADDR,ADDR1,ADDR2,ADDR3;     //地址
ADDR:
        DS 1
        REQUIRE __INIT_XDATA_Z

        RSEG XDATA_Z:XDATA:NOROOT(0)
        DATA8
ADDR1:
        DS 1
        REQUIRE __INIT_XDATA_Z

        RSEG XDATA_Z:XDATA:NOROOT(0)
        DATA8
ADDR2:
        DS 1
        REQUIRE __INIT_XDATA_Z

        RSEG XDATA_Z:XDATA:NOROOT(0)
        DATA8
ADDR3:
        DS 1
        REQUIRE __INIT_XDATA_Z

        RSEG XDATA_Z:XDATA:NOROOT(0)
        DATA16
//  165 uint16 delayt;               //发送延时
delayt:
        DS 2
        REQUIRE __INIT_XDATA_Z
//  166 /*********************************************************************
//  167  * LOCAL FUNCTIONS
//  168  */
//  169 void SampleApp_HandleKeys( uint8 shift, uint8 keys );
//  170 void SampleApp_MessageMSGCB( afIncomingMSGPacket_t *pckt );
//  171 void SampleApp_SendPeriodicMessage(uint8 ADR);
//  172 void SampleApp_SendFlashMessage( uint16 flashTime );
//  173 void SampleApp_Send_P2P_Message(uint8 select);
//  174 
//  175 /*********************************************************************
//  176  * NETWORK LAYER CALLBACKS
//  177  */
//  178 
//  179 /*********************************************************************
//  180  * PUBLIC FUNCTIONS
//  181  */
//  182 
//  183 /*********************************************************************
//  184  * @fn      SampleApp_Init
//  185  *
//  186  * @brief   Initialization function for the Generic App Task.
//  187  *          This is called during initialization and should contain
//  188  *          any application specific initialization (ie. hardware
//  189  *          initialization/setup, table initialization, power up
//  190  *          notificaiton ... ).
//  191  *
//  192  * @param   task_id - the ID assigned by OSAL.  This ID should be
//  193  *                    used to send messages and set timers.
//  194  *
//  195  * @return  none
//  196  */

        RSEG BANKED_CODE:CODE:NOROOT(0)
//  197 void SampleApp_Init( uint8 task_id )
SampleApp_Init:
        CFI Block cfiBlock0 Using cfiCommon0
        CFI Function SampleApp_Init
        CODE
//  198 {
        FUNCALL SampleApp_Init, macRadioSetTxPower
        LOCFRAME ISTACK, 0, STACK
        LOCFRAME PSTACK, 0, STACK
        LOCFRAME XSTACK, 11, STACK
        LOCFRAME IOVERLAY, 0, STATIC
        LOCFRAME DOVERLAY, 0, STATIC
        ARGFRAME ISTACK, 0, STACK
        ARGFRAME PSTACK, 0, STACK
        ARGFRAME XSTACK, 11, STACK
        ARGFRAME IOVERLAY, 0, STATIC
        ARGFRAME DOVERLAY, 0, STATIC
        FUNCALL SampleApp_Init, Delay_ms
        LOCFRAME ISTACK, 0, STACK
        LOCFRAME PSTACK, 0, STACK
        LOCFRAME XSTACK, 11, STACK
        LOCFRAME IOVERLAY, 0, STATIC
        LOCFRAME DOVERLAY, 0, STATIC
        ARGFRAME ISTACK, 0, STACK
        ARGFRAME PSTACK, 0, STACK
        ARGFRAME XSTACK, 11, STACK
        ARGFRAME IOVERLAY, 0, STATIC
        ARGFRAME DOVERLAY, 0, STATIC
        FUNCALL SampleApp_Init, Delay_ms
        LOCFRAME ISTACK, 0, STACK
        LOCFRAME PSTACK, 0, STACK
        LOCFRAME XSTACK, 11, STACK
        LOCFRAME IOVERLAY, 0, STATIC
        LOCFRAME DOVERLAY, 0, STATIC
        ARGFRAME ISTACK, 0, STACK
        ARGFRAME PSTACK, 0, STACK
        ARGFRAME XSTACK, 11, STACK
        ARGFRAME IOVERLAY, 0, STATIC
        ARGFRAME DOVERLAY, 0, STATIC
        FUNCALL SampleApp_Init, afRegister
        LOCFRAME ISTACK, 0, STACK
        LOCFRAME PSTACK, 0, STACK
        LOCFRAME XSTACK, 11, STACK
        LOCFRAME IOVERLAY, 0, STATIC
        LOCFRAME DOVERLAY, 0, STATIC
        ARGFRAME ISTACK, 0, STACK
        ARGFRAME PSTACK, 0, STACK
        ARGFRAME XSTACK, 11, STACK
        ARGFRAME IOVERLAY, 0, STATIC
        ARGFRAME DOVERLAY, 0, STATIC
        FUNCALL SampleApp_Init, RegisterForKeys
        LOCFRAME ISTACK, 0, STACK
        LOCFRAME PSTACK, 0, STACK
        LOCFRAME XSTACK, 11, STACK
        LOCFRAME IOVERLAY, 0, STATIC
        LOCFRAME DOVERLAY, 0, STATIC
        ARGFRAME ISTACK, 0, STACK
        ARGFRAME PSTACK, 0, STACK
        ARGFRAME XSTACK, 11, STACK
        ARGFRAME IOVERLAY, 0, STATIC
        ARGFRAME DOVERLAY, 0, STATIC
        FUNCALL SampleApp_Init, osal_memcpy
        LOCFRAME ISTACK, 0, STACK
        LOCFRAME PSTACK, 0, STACK
        LOCFRAME XSTACK, 14, STACK
        LOCFRAME IOVERLAY, 0, STATIC
        LOCFRAME DOVERLAY, 0, STATIC
        ARGFRAME ISTACK, 0, STACK
        ARGFRAME PSTACK, 0, STACK
        ARGFRAME XSTACK, 14, STACK
        ARGFRAME IOVERLAY, 0, STATIC
        ARGFRAME DOVERLAY, 0, STATIC
        FUNCALL SampleApp_Init, aps_AddGroup
        LOCFRAME ISTACK, 0, STACK
        LOCFRAME PSTACK, 0, STACK
        LOCFRAME XSTACK, 11, STACK
        LOCFRAME IOVERLAY, 0, STATIC
        LOCFRAME DOVERLAY, 0, STATIC
        ARGFRAME ISTACK, 0, STACK
        ARGFRAME PSTACK, 0, STACK
        ARGFRAME XSTACK, 11, STACK
        ARGFRAME IOVERLAY, 0, STATIC
        ARGFRAME DOVERLAY, 0, STATIC
        MOV     A,#-0xb
        LCALL   ?BANKED_ENTER_XDATA
        CFI DPH0 load(1, XDATA, add(CFA_XSP16, literal(-1)))
        CFI DPL0 load(1, XDATA, add(CFA_XSP16, literal(-2)))
        CFI ?BRET_EXT load(1, XDATA, add(CFA_XSP16, literal(-3)))
        CFI ?RET_HIGH load(1, XDATA, add(CFA_XSP16, literal(-4)))
        CFI ?RET_LOW load(1, XDATA, add(CFA_XSP16, literal(-5)))
        CFI R7 load(1, XDATA, add(CFA_XSP16, literal(-6)))
        CFI V2 load(1, XDATA, add(CFA_XSP16, literal(-7)))
        CFI V1 load(1, XDATA, add(CFA_XSP16, literal(-8)))
        CFI V0 load(1, XDATA, add(CFA_XSP16, literal(-9)))
        CFI VB load(1, XDATA, add(CFA_XSP16, literal(-10)))
        CFI R6 load(1, XDATA, add(CFA_XSP16, literal(-11)))
        CFI CFA_SP SP+0
        CFI CFA_XSP16 add(XSP16, 11)
        ; Saved register size: 11
        ; Auto size: 0
        MOV     A,R1
//  199   SampleApp_TaskID = task_id;
        MOV     DPTR,#SampleApp_TaskID
        MOVX    @DPTR,A
//  200   SampleApp_NwkState = DEV_INIT;
        MOV     DPTR,#SampleApp_NwkState
        MOV     A,#0x1
        MOVX    @DPTR,A
//  201   SampleApp_TransID = 0;
        MOV     DPTR,#SampleApp_TransID
        CLR     A
        MOVX    @DPTR,A
//  202   
//  203 //*****************设置发送功率***********************************************//  
//  204   macRadioSetTxPower( 0XF5 ); 
        ; Setup parameters for call to function macRadioSetTxPower
        MOV     R1,#-0xb
        LCALL   ??macRadioSetTxPower?relay
//  205   
//  206   
//  207 //*****************参数初始化*************************************************//
//  208   TX_Flag = 0;             //发送数据标志位清零，即不发送
        MOV     DPTR,#TX_Flag
        CLR     A
        MOVX    @DPTR,A
//  209   TCount = 0;              //最大睡眠时间的次数清零
        MOV     DPTR,#TCount
        MOVX    @DPTR,A
//  210   CountF = 0;              //计算睡眠时间标志位清零
        MOV     DPTR,#CountF
        MOVX    @DPTR,A
//  211   pf = 0;                  //时钟时件标志清零
        MOV     DPTR,#pf
        MOVX    @DPTR,A
//  212   powf = 0;                //进入睡眠标志位清零  不进入睡眠
        MOV     DPTR,#powf
        MOVX    @DPTR,A
//  213   SleepTime_MS = 0;        //每次睡眠的时间清零
        MOV     DPTR,#__Constant_0
        LCALL   ?XLOAD_R2345
        MOV     DPTR,#SleepTime_MS
        LCALL   ?XSTORE_R2345
//  214   SleepTime = 0;           //总睡眠时间清零           
        MOV     DPTR,#__Constant_0
        LCALL   ?XLOAD_R2345
        MOV     DPTR,#SleepTime
        LCALL   ?XSTORE_R2345
//  215 
//  216 //*****************引脚初始化*************************************************//  
//  217   P1SEL = 0X00;
        MOV     0xf4,#0x0
//  218   P1DIR |= 0X03;           //P1_0 P1_1设置为输出
        ORL     0xfe,#0x3
//  219   Delay_ms( 50 );          //延时50MS
        ; Setup parameters for call to function Delay_ms
        MOV     R2,#0x32
        MOV     R3,#0x0
        LCALL   ??Delay_ms?relay
//  220   SWLED = 1;               //LED打开
        SETB    0x90.1
//  221   POWER = 0;               //传感器关闭
        LCALL   ?Subroutine17 & 0xFFFF
//  222   P1DIR &= ~0X01;          //P1_0设置为输入
//  223   P1INP |= 0X01;          //P1_0设置为高阻态
//  224 
//  225   P1DIR &= ~0X30;          //设置P1_4 P1_5为输入
//  226   P1DIR &= ~0X0C;          //设置P1_3 P1_2为输入
//  227   P1INP |= 0X30;           //设置P1_4 P1_5为高阻态
//  228   P1INP |= 0X0C;           //设置P1_3 P1_2为高阻态
//  229  
//  230   //读取节点地址//
//  231   P0SEL = 0X00;
??CrossCallReturnLabel_29:
        MOV     0xf3,#0x0
//  232   P0DIR = 0X00;            //设置P0为输入
        MOV     0xfd,#0x0
//  233   P0INP = 0X00;
        MOV     0x8f,#0x0
//  234   Delay_ms( 1000 );          //延时1000MS
        ; Setup parameters for call to function Delay_ms
        MOV     R2,#-0x18
        MOV     R3,#0x3
        LCALL   ??Delay_ms?relay
//  235   ADDR = P0;
        MOV     A,0x80
        MOV     DPTR,#ADDR
        MOVX    @DPTR,A
//  236   if(ADDR == 0)
        JNZ     ??SampleApp_Init_0
//  237     ADDR = 1;
        MOV     A,#0x1
        MOVX    @DPTR,A
//  238   delayt = Delaybet * ADDR;
??SampleApp_Init_0:
        MOVX    A,@DPTR
        MOV     R2,A
        MOV     R0,A
        MOV     B,#-0x1c
        MUL     AB
        XCH     A,R0
        MOV     R4,B
        MOV     B,#0xc
        MUL     AB
        ADD     A,R4
        MOV     R1,A
        MOV     DPTR,#delayt
        MOV     A,R0
        MOVX    @DPTR,A
        INC     DPTR
        MOV     A,R1
        MOVX    @DPTR,A
//  239   ADDR1 = ((ADDR - 1) / ABLen) + 0x41;
        MOV     A,R2
        ADD     A,#-0x1
        MOV     R0,A
        CLR     A
        ADDC    A,#-0x1
        MOV     R1,A
        MOV     R2,#0xa
        MOV     R3,#0x0
        LCALL   ?S_DIV_MOD
        MOV     A,R0
        ADD     A,#0x41
        MOV     DPTR,#ADDR1
        LCALL   ?Subroutine4 & 0xFFFF
//  240   ADDR %= ABLen;
??CrossCallReturnLabel_6:
        MOVX    @DPTR,A
//  241   if(ADDR == 0)
        JNZ     ??SampleApp_Init_1
//  242     ADDR = ABLen;
        MOV     A,#0xa
        SJMP    ??SampleApp_Init_2
//  243   if(ADDR >= 100)
??SampleApp_Init_1:
        SUBB    A,#0x64
        JC      ??SampleApp_Init_3
//  244     ADDR = 99;
        MOV     A,#0x63
??SampleApp_Init_2:
        MOVX    @DPTR,A
//  245   ADDR2 = ADDR / 10 + 0x30;
??SampleApp_Init_3:
        MOV     B,#0xa
        MOVX    A,@DPTR
        DIV     AB
        ADD     A,#0x30
        MOV     DPTR,#ADDR2
        LCALL   ?Subroutine4 & 0xFFFF
//  246   ADDR3 = ADDR % 10 + 0X30;
??CrossCallReturnLabel_7:
        ADD     A,#0x30
        MOV     DPTR,#ADDR3
        MOVX    @DPTR,A
//  247   P0INP = 0Xff;
        MOV     0x8f,#-0x1
//  248   
//  249   P2DIR &= ~0X04;
        ANL     0xff,#0xfb
//  250   P2INP |= 0X04;
        ORL     0xf7,#0x4
//  251   // Device hardware initialization can be added here or in main() (Zmain.c).
//  252   // If the hardware is application specific - add it here.
//  253   // If the hardware is other parts of the device add it in main().
//  254 
//  255  #if defined ( BUILD_ALL_DEVICES )
//  256   // The "Demo" target is setup to have BUILD_ALL_DEVICES and HOLD_AUTO_START
//  257   // We are looking at a jumper (defined in SampleAppHw.c) to be jumpered
//  258   // together - if they are - we will start up a coordinator. Otherwise,
//  259   // the device will start as a router.
//  260   if ( readCoordinatorJumper() )
//  261     zgDeviceLogicalType = ZG_DEVICETYPE_COORDINATOR;
//  262   else
//  263     zgDeviceLogicalType = ZG_DEVICETYPE_ROUTER;
//  264 #endif // BUILD_ALL_DEVICES
//  265 
//  266 #if defined ( HOLD_AUTO_START )
//  267   // HOLD_AUTO_START is a compile option that will surpress ZDApp
//  268   //  from starting the device and wait for the application to
//  269   //  start the device.
//  270   ZDOInitDevice(0);
//  271 #endif
//  272 
//  273   // Setup for the periodic message's destination address
//  274   // Broadcast to everyone
//  275   SampleApp_Periodic_DstAddr.addrMode = (afAddrMode_t)AddrBroadcast;
        MOV     DPTR,#SampleApp_Periodic_DstAddr + 8
        MOV     A,#0xf
        MOVX    @DPTR,A
//  276   SampleApp_Periodic_DstAddr.endPoint = SAMPLEAPP_ENDPOINT;
        INC     DPTR
        MOV     A,#0x14
        MOVX    @DPTR,A
//  277   SampleApp_Periodic_DstAddr.addr.shortAddr = 0xFFFF;
        MOV     DPTR,#SampleApp_Periodic_DstAddr
        MOV     A,#-0x1
        MOVX    @DPTR,A
        INC     DPTR
        MOVX    @DPTR,A
//  278 
//  279   // Setup for the flash command's destination address - Group 1
//  280   SampleApp_Flash_DstAddr.addrMode = (afAddrMode_t)afAddrGroup;
        MOV     DPTR,#SampleApp_Flash_DstAddr + 8
        MOV     A,#0x1
        MOVX    @DPTR,A
//  281   SampleApp_Flash_DstAddr.endPoint = SAMPLEAPP_ENDPOINT;
        INC     DPTR
        MOV     A,#0x14
        MOVX    @DPTR,A
//  282   SampleApp_Flash_DstAddr.addr.shortAddr = SAMPLEAPP_FLASH_GROUP;
        MOV     DPTR,#SampleApp_Flash_DstAddr
        MOV     A,#0x1
        MOVX    @DPTR,A
        INC     DPTR
        CLR     A
        MOVX    @DPTR,A
//  283 
//  284   SampleApp_P2P_DstAddr.addrMode = (afAddrMode_t)Addr16Bit;
        MOV     DPTR,#SampleApp_P2P_DstAddr + 8
        MOV     A,#0x2
        MOVX    @DPTR,A
//  285   SampleApp_P2P_DstAddr.endPoint = SAMPLEAPP_ENDPOINT;
        INC     DPTR
        MOV     A,#0x14
        MOVX    @DPTR,A
//  286   SampleApp_P2P_DstAddr.addr.shortAddr = 0x0000;
        MOV     DPTR,#SampleApp_P2P_DstAddr
        CLR     A
        MOVX    @DPTR,A
        INC     DPTR
        MOVX    @DPTR,A
//  287   
//  288   // Fill out the endpoint description.
//  289   SampleApp_epDesc.endPoint = SAMPLEAPP_ENDPOINT;
        MOV     DPTR,#SampleApp_epDesc
        MOV     A,#0x14
        MOVX    @DPTR,A
//  290   SampleApp_epDesc.task_id = &SampleApp_TaskID;
        INC     DPTR
        MOV     A,#SampleApp_TaskID & 0xff
        MOVX    @DPTR,A
        INC     DPTR
        MOV     A,#(SampleApp_TaskID >> 8) & 0xff
        MOVX    @DPTR,A
//  291   SampleApp_epDesc.simpleDesc
//  292             = (SimpleDescriptionFormat_t *)&SampleApp_SimpleDesc;
        INC     DPTR
        MOV     A,#SampleApp_SimpleDesc & 0xff
        MOVX    @DPTR,A
        INC     DPTR
        MOV     A,#(SampleApp_SimpleDesc >> 8) & 0xff
        MOVX    @DPTR,A
//  293   SampleApp_epDesc.latencyReq = noLatencyReqs;
        INC     DPTR
        CLR     A
        MOVX    @DPTR,A
//  294 
//  295   // Register the endpoint description with the AF
//  296   afRegister( &SampleApp_epDesc );
        ; Setup parameters for call to function afRegister
        MOV     R2,#SampleApp_epDesc & 0xff
        MOV     R3,#(SampleApp_epDesc >> 8) & 0xff
        LCALL   ??afRegister?relay
//  297 
//  298   // Register for all key events - This app will handle all key events
//  299   RegisterForKeys( SampleApp_TaskID );
        ; Setup parameters for call to function RegisterForKeys
        MOV     DPTR,#SampleApp_TaskID
        MOVX    A,@DPTR
        MOV     R1,A
        LCALL   ??RegisterForKeys?relay
//  300 
//  301   // By default, all devices start out in Group 1
//  302   SampleApp_Group.ID = 0x0001;
        MOV     DPTR,#SampleApp_Group
        MOV     A,#0x1
        MOVX    @DPTR,A
        INC     DPTR
        CLR     A
        MOVX    @DPTR,A
//  303   osal_memcpy( SampleApp_Group.name, "Group 1", 7  );
        ; Setup parameters for call to function osal_memcpy
        MOV     ?V0 + 0,#`?<Constant "Group 1">` & 0xff
        MOV     ?V0 + 1,#(`?<Constant "Group 1">` >> 8) & 0xff
        MOV     ?V0 + 2,A
        MOV     R0,#?V0 + 0
        LCALL   ?PUSH_XSTACK_I_THREE
        CFI CFA_XSP16 add(XSP16, 14)
        MOV     R4,#0x7
        MOV     R5,#0x0
        MOV     R2,#(SampleApp_Group + 2) & 0xff
        MOV     R3,#((SampleApp_Group + 2) >> 8) & 0xff
        LCALL   ??Subroutine21_0 & 0xFFFF
??CrossCallReturnLabel_49:
        LCALL   ?DEALLOC_XSTACK8
        CFI CFA_XSP16 add(XSP16, 11)
//  304   aps_AddGroup( SAMPLEAPP_ENDPOINT, &SampleApp_Group );
        ; Setup parameters for call to function aps_AddGroup
        MOV     R2,#SampleApp_Group & 0xff
        MOV     R3,#(SampleApp_Group >> 8) & 0xff
        MOV     R1,#0x14
        LCALL   ??aps_AddGroup?relay
//  305 
//  306 #if defined ( LCD_SUPPORTED )
//  307   HalLcdWriteString( "SampleApp", HAL_LCD_LINE_1 );
//  308 #endif
//  309 }
        MOV     R7,#0x3
        LJMP    ?BANKED_LEAVE_XDATA
        CFI EndBlock cfiBlock0
        REQUIRE P1SEL
        REQUIRE P1DIR
        REQUIRE _A_P1
        REQUIRE P1INP
        REQUIRE P0SEL
        REQUIRE P0DIR
        REQUIRE P0INP
        REQUIRE _A_P0
        REQUIRE P2DIR
        REQUIRE P2INP

        RSEG BANKED_CODE:CODE:NOROOT(0)
?Subroutine4:
        CFI Block cfiCond1 Using cfiCommon0
        CFI NoFunction
        CFI Conditional ??CrossCallReturnLabel_6
        CFI R6 load(1, XDATA, add(CFA_XSP16, literal(-11)))
        CFI VB load(1, XDATA, add(CFA_XSP16, literal(-10)))
        CFI V0 load(1, XDATA, add(CFA_XSP16, literal(-9)))
        CFI V1 load(1, XDATA, add(CFA_XSP16, literal(-8)))
        CFI V2 load(1, XDATA, add(CFA_XSP16, literal(-7)))
        CFI R7 load(1, XDATA, add(CFA_XSP16, literal(-6)))
        CFI ?RET_LOW load(1, XDATA, add(CFA_XSP16, literal(-5)))
        CFI ?RET_HIGH load(1, XDATA, add(CFA_XSP16, literal(-4)))
        CFI ?BRET_EXT load(1, XDATA, add(CFA_XSP16, literal(-3)))
        CFI DPL0 load(1, XDATA, add(CFA_XSP16, literal(-2)))
        CFI DPH0 load(1, XDATA, add(CFA_XSP16, literal(-1)))
        CFI CFA_SP SP+0
        CFI CFA_XSP16 add(XSP16, 11)
        CFI Block cfiCond2 Using cfiCommon0
        CFI (cfiCond2) NoFunction
        CFI (cfiCond2) Conditional ??CrossCallReturnLabel_7
        CFI (cfiCond2) R6 load(1, XDATA, add(CFA_XSP16, literal(-11)))
        CFI (cfiCond2) VB load(1, XDATA, add(CFA_XSP16, literal(-10)))
        CFI (cfiCond2) V0 load(1, XDATA, add(CFA_XSP16, literal(-9)))
        CFI (cfiCond2) V1 load(1, XDATA, add(CFA_XSP16, literal(-8)))
        CFI (cfiCond2) V2 load(1, XDATA, add(CFA_XSP16, literal(-7)))
        CFI (cfiCond2) R7 load(1, XDATA, add(CFA_XSP16, literal(-6)))
        CFI (cfiCond2) ?RET_LOW load(1, XDATA, add(CFA_XSP16, literal(-5)))
        CFI (cfiCond2) ?RET_HIGH load(1, XDATA, add(CFA_XSP16, literal(-4)))
        CFI (cfiCond2) ?BRET_EXT load(1, XDATA, add(CFA_XSP16, literal(-3)))
        CFI (cfiCond2) DPL0 load(1, XDATA, add(CFA_XSP16, literal(-2)))
        CFI (cfiCond2) DPH0 load(1, XDATA, add(CFA_XSP16, literal(-1)))
        CFI (cfiCond2) CFA_SP SP+0
        CFI (cfiCond2) CFA_XSP16 add(XSP16, 11)
        CFI Block cfiPicker3 Using cfiCommon1
        CFI (cfiPicker3) NoFunction
        CFI (cfiPicker3) Picker
        MOVX    @DPTR,A
        MOV     DPTR,#ADDR
        MOVX    A,@DPTR
        MOV     B,#0xa
        DIV     AB
        MOV     A,B
        RET
        CFI EndBlock cfiCond1
        CFI EndBlock cfiCond2
        CFI EndBlock cfiPicker3
//  310 
//  311 /*********************************************************************
//  312  * @fn      SampleApp_ProcessEvent
//  313  *
//  314  * @brief   Generic Application Task event processor.  This function
//  315  *          is called to process all events for the task.  Events
//  316  *          include timers, messages and any other user defined events.
//  317  *
//  318  * @param   task_id  - The OSAL assigned task ID.
//  319  * @param   events - events to process.  This is a bit map and can
//  320  *                   contain more than one event.
//  321  *
//  322  * @return  none
//  323  */

        RSEG BANKED_CODE:CODE:NOROOT(0)
//  324 uint16 SampleApp_ProcessEvent( uint8 task_id, uint16 events )
SampleApp_ProcessEvent:
        CFI Block cfiBlock4 Using cfiCommon0
        CFI Function SampleApp_ProcessEvent
        CODE
//  325 {
        FUNCALL SampleApp_ProcessEvent, osal_msg_receive
        LOCFRAME ISTACK, 0, STACK
        LOCFRAME PSTACK, 0, STACK
        LOCFRAME XSTACK, 12, STACK
        LOCFRAME IOVERLAY, 0, STATIC
        LOCFRAME DOVERLAY, 0, STATIC
        ARGFRAME ISTACK, 0, STACK
        ARGFRAME PSTACK, 0, STACK
        ARGFRAME XSTACK, 12, STACK
        ARGFRAME IOVERLAY, 0, STATIC
        ARGFRAME DOVERLAY, 0, STATIC
        FUNCALL SampleApp_ProcessEvent, osal_start_timerEx
        LOCFRAME ISTACK, 0, STACK
        LOCFRAME PSTACK, 0, STACK
        LOCFRAME XSTACK, 12, STACK
        LOCFRAME IOVERLAY, 0, STATIC
        LOCFRAME DOVERLAY, 0, STATIC
        ARGFRAME ISTACK, 0, STACK
        ARGFRAME PSTACK, 0, STACK
        ARGFRAME XSTACK, 12, STACK
        ARGFRAME IOVERLAY, 0, STATIC
        ARGFRAME DOVERLAY, 0, STATIC
        FUNCALL SampleApp_ProcessEvent, osal_msg_deallocate
        LOCFRAME ISTACK, 0, STACK
        LOCFRAME PSTACK, 0, STACK
        LOCFRAME XSTACK, 12, STACK
        LOCFRAME IOVERLAY, 0, STATIC
        LOCFRAME DOVERLAY, 0, STATIC
        ARGFRAME ISTACK, 0, STACK
        ARGFRAME PSTACK, 0, STACK
        ARGFRAME XSTACK, 12, STACK
        ARGFRAME IOVERLAY, 0, STATIC
        ARGFRAME DOVERLAY, 0, STATIC
        FUNCALL SampleApp_ProcessEvent, osal_msg_receive
        LOCFRAME ISTACK, 0, STACK
        LOCFRAME PSTACK, 0, STACK
        LOCFRAME XSTACK, 12, STACK
        LOCFRAME IOVERLAY, 0, STATIC
        LOCFRAME DOVERLAY, 0, STATIC
        ARGFRAME ISTACK, 0, STACK
        ARGFRAME PSTACK, 0, STACK
        ARGFRAME XSTACK, 12, STACK
        ARGFRAME IOVERLAY, 0, STATIC
        ARGFRAME DOVERLAY, 0, STATIC
        FUNCALL SampleApp_ProcessEvent, SampleApp_HandleKeys
        LOCFRAME ISTACK, 0, STACK
        LOCFRAME PSTACK, 0, STACK
        LOCFRAME XSTACK, 12, STACK
        LOCFRAME IOVERLAY, 0, STATIC
        LOCFRAME DOVERLAY, 0, STATIC
        ARGFRAME ISTACK, 0, STACK
        ARGFRAME PSTACK, 0, STACK
        ARGFRAME XSTACK, 12, STACK
        ARGFRAME IOVERLAY, 0, STATIC
        ARGFRAME DOVERLAY, 0, STATIC
        FUNCALL SampleApp_ProcessEvent, SampleApp_MessageMSGCB
        LOCFRAME ISTACK, 0, STACK
        LOCFRAME PSTACK, 0, STACK
        LOCFRAME XSTACK, 12, STACK
        LOCFRAME IOVERLAY, 0, STATIC
        LOCFRAME DOVERLAY, 0, STATIC
        ARGFRAME ISTACK, 0, STACK
        ARGFRAME PSTACK, 0, STACK
        ARGFRAME XSTACK, 12, STACK
        ARGFRAME IOVERLAY, 0, STATIC
        ARGFRAME DOVERLAY, 0, STATIC
        FUNCALL SampleApp_ProcessEvent, SampleApp_Send_P2P_Message
        LOCFRAME ISTACK, 0, STACK
        LOCFRAME PSTACK, 0, STACK
        LOCFRAME XSTACK, 12, STACK
        LOCFRAME IOVERLAY, 0, STATIC
        LOCFRAME DOVERLAY, 0, STATIC
        ARGFRAME ISTACK, 0, STACK
        ARGFRAME PSTACK, 0, STACK
        ARGFRAME XSTACK, 12, STACK
        ARGFRAME IOVERLAY, 0, STATIC
        ARGFRAME DOVERLAY, 0, STATIC
        FUNCALL SampleApp_ProcessEvent, osal_start_timerEx
        LOCFRAME ISTACK, 0, STACK
        LOCFRAME PSTACK, 0, STACK
        LOCFRAME XSTACK, 12, STACK
        LOCFRAME IOVERLAY, 0, STATIC
        LOCFRAME DOVERLAY, 0, STATIC
        ARGFRAME ISTACK, 0, STACK
        ARGFRAME PSTACK, 0, STACK
        ARGFRAME XSTACK, 12, STACK
        ARGFRAME IOVERLAY, 0, STATIC
        ARGFRAME DOVERLAY, 0, STATIC
        FUNCALL SampleApp_ProcessEvent, Delay_ms
        LOCFRAME ISTACK, 0, STACK
        LOCFRAME PSTACK, 0, STACK
        LOCFRAME XSTACK, 12, STACK
        LOCFRAME IOVERLAY, 0, STATIC
        LOCFRAME DOVERLAY, 0, STATIC
        ARGFRAME ISTACK, 0, STACK
        ARGFRAME PSTACK, 0, STACK
        ARGFRAME XSTACK, 12, STACK
        ARGFRAME IOVERLAY, 0, STATIC
        ARGFRAME DOVERLAY, 0, STATIC
        FUNCALL SampleApp_ProcessEvent, Delay_ms
        LOCFRAME ISTACK, 0, STACK
        LOCFRAME PSTACK, 0, STACK
        LOCFRAME XSTACK, 12, STACK
        LOCFRAME IOVERLAY, 0, STATIC
        LOCFRAME DOVERLAY, 0, STATIC
        ARGFRAME ISTACK, 0, STACK
        ARGFRAME PSTACK, 0, STACK
        ARGFRAME XSTACK, 12, STACK
        ARGFRAME IOVERLAY, 0, STATIC
        ARGFRAME DOVERLAY, 0, STATIC
        FUNCALL SampleApp_ProcessEvent, SampleApp_Send_P2P_Message
        LOCFRAME ISTACK, 0, STACK
        LOCFRAME PSTACK, 0, STACK
        LOCFRAME XSTACK, 12, STACK
        LOCFRAME IOVERLAY, 0, STATIC
        LOCFRAME DOVERLAY, 0, STATIC
        ARGFRAME ISTACK, 0, STACK
        ARGFRAME PSTACK, 0, STACK
        ARGFRAME XSTACK, 12, STACK
        ARGFRAME IOVERLAY, 0, STATIC
        ARGFRAME DOVERLAY, 0, STATIC
        FUNCALL SampleApp_ProcessEvent, SampleApp_Send_P2P_Message
        LOCFRAME ISTACK, 0, STACK
        LOCFRAME PSTACK, 0, STACK
        LOCFRAME XSTACK, 12, STACK
        LOCFRAME IOVERLAY, 0, STATIC
        LOCFRAME DOVERLAY, 0, STATIC
        ARGFRAME ISTACK, 0, STACK
        ARGFRAME PSTACK, 0, STACK
        ARGFRAME XSTACK, 12, STACK
        ARGFRAME IOVERLAY, 0, STATIC
        ARGFRAME DOVERLAY, 0, STATIC
        FUNCALL SampleApp_ProcessEvent, osal_rand
        LOCFRAME ISTACK, 0, STACK
        LOCFRAME PSTACK, 0, STACK
        LOCFRAME XSTACK, 12, STACK
        LOCFRAME IOVERLAY, 0, STATIC
        LOCFRAME DOVERLAY, 0, STATIC
        ARGFRAME ISTACK, 0, STACK
        ARGFRAME PSTACK, 0, STACK
        ARGFRAME XSTACK, 12, STACK
        ARGFRAME IOVERLAY, 0, STATIC
        ARGFRAME DOVERLAY, 0, STATIC
        FUNCALL SampleApp_ProcessEvent, osal_start_timerEx
        LOCFRAME ISTACK, 0, STACK
        LOCFRAME PSTACK, 0, STACK
        LOCFRAME XSTACK, 12, STACK
        LOCFRAME IOVERLAY, 0, STATIC
        LOCFRAME DOVERLAY, 0, STATIC
        ARGFRAME ISTACK, 0, STACK
        ARGFRAME PSTACK, 0, STACK
        ARGFRAME XSTACK, 12, STACK
        ARGFRAME IOVERLAY, 0, STATIC
        ARGFRAME DOVERLAY, 0, STATIC
        FUNCALL SampleApp_ProcessEvent, Delay_ms
        LOCFRAME ISTACK, 0, STACK
        LOCFRAME PSTACK, 0, STACK
        LOCFRAME XSTACK, 12, STACK
        LOCFRAME IOVERLAY, 0, STATIC
        LOCFRAME DOVERLAY, 0, STATIC
        ARGFRAME ISTACK, 0, STACK
        ARGFRAME PSTACK, 0, STACK
        ARGFRAME XSTACK, 12, STACK
        ARGFRAME IOVERLAY, 0, STATIC
        ARGFRAME DOVERLAY, 0, STATIC
        FUNCALL SampleApp_ProcessEvent, Delay_ms
        LOCFRAME ISTACK, 0, STACK
        LOCFRAME PSTACK, 0, STACK
        LOCFRAME XSTACK, 12, STACK
        LOCFRAME IOVERLAY, 0, STATIC
        LOCFRAME DOVERLAY, 0, STATIC
        ARGFRAME ISTACK, 0, STACK
        ARGFRAME PSTACK, 0, STACK
        ARGFRAME XSTACK, 12, STACK
        ARGFRAME IOVERLAY, 0, STATIC
        ARGFRAME DOVERLAY, 0, STATIC
        FUNCALL SampleApp_ProcessEvent, SampleApp_Send_P2P_Message
        LOCFRAME ISTACK, 0, STACK
        LOCFRAME PSTACK, 0, STACK
        LOCFRAME XSTACK, 12, STACK
        LOCFRAME IOVERLAY, 0, STATIC
        LOCFRAME DOVERLAY, 0, STATIC
        ARGFRAME ISTACK, 0, STACK
        ARGFRAME PSTACK, 0, STACK
        ARGFRAME XSTACK, 12, STACK
        ARGFRAME IOVERLAY, 0, STATIC
        ARGFRAME DOVERLAY, 0, STATIC
        FUNCALL SampleApp_ProcessEvent, SampleApp_Send_P2P_Message
        LOCFRAME ISTACK, 0, STACK
        LOCFRAME PSTACK, 0, STACK
        LOCFRAME XSTACK, 12, STACK
        LOCFRAME IOVERLAY, 0, STATIC
        LOCFRAME DOVERLAY, 0, STATIC
        ARGFRAME ISTACK, 0, STACK
        ARGFRAME PSTACK, 0, STACK
        ARGFRAME XSTACK, 12, STACK
        ARGFRAME IOVERLAY, 0, STATIC
        ARGFRAME DOVERLAY, 0, STATIC
        FUNCALL SampleApp_ProcessEvent, NLME_SetPollRate
        LOCFRAME ISTACK, 0, STACK
        LOCFRAME PSTACK, 0, STACK
        LOCFRAME XSTACK, 12, STACK
        LOCFRAME IOVERLAY, 0, STATIC
        LOCFRAME DOVERLAY, 0, STATIC
        ARGFRAME ISTACK, 0, STACK
        ARGFRAME PSTACK, 0, STACK
        ARGFRAME XSTACK, 12, STACK
        ARGFRAME IOVERLAY, 0, STATIC
        ARGFRAME DOVERLAY, 0, STATIC
        FUNCALL SampleApp_ProcessEvent, NLME_SetQueuedPollRate
        LOCFRAME ISTACK, 0, STACK
        LOCFRAME PSTACK, 0, STACK
        LOCFRAME XSTACK, 12, STACK
        LOCFRAME IOVERLAY, 0, STATIC
        LOCFRAME DOVERLAY, 0, STATIC
        ARGFRAME ISTACK, 0, STACK
        ARGFRAME PSTACK, 0, STACK
        ARGFRAME XSTACK, 12, STACK
        ARGFRAME IOVERLAY, 0, STATIC
        ARGFRAME DOVERLAY, 0, STATIC
        FUNCALL SampleApp_ProcessEvent, NLME_SetResponseRate
        LOCFRAME ISTACK, 0, STACK
        LOCFRAME PSTACK, 0, STACK
        LOCFRAME XSTACK, 12, STACK
        LOCFRAME IOVERLAY, 0, STATIC
        LOCFRAME DOVERLAY, 0, STATIC
        ARGFRAME ISTACK, 0, STACK
        ARGFRAME PSTACK, 0, STACK
        ARGFRAME XSTACK, 12, STACK
        ARGFRAME IOVERLAY, 0, STATIC
        ARGFRAME DOVERLAY, 0, STATIC
        MOV     A,#-0xc
        LCALL   ?BANKED_ENTER_XDATA
        CFI DPH0 load(1, XDATA, add(CFA_XSP16, literal(-1)))
        CFI DPL0 load(1, XDATA, add(CFA_XSP16, literal(-2)))
        CFI ?BRET_EXT load(1, XDATA, add(CFA_XSP16, literal(-3)))
        CFI ?RET_HIGH load(1, XDATA, add(CFA_XSP16, literal(-4)))
        CFI ?RET_LOW load(1, XDATA, add(CFA_XSP16, literal(-5)))
        CFI R7 load(1, XDATA, add(CFA_XSP16, literal(-6)))
        CFI V3 load(1, XDATA, add(CFA_XSP16, literal(-7)))
        CFI V2 load(1, XDATA, add(CFA_XSP16, literal(-8)))
        CFI V1 load(1, XDATA, add(CFA_XSP16, literal(-9)))
        CFI V0 load(1, XDATA, add(CFA_XSP16, literal(-10)))
        CFI VB load(1, XDATA, add(CFA_XSP16, literal(-11)))
        CFI R6 load(1, XDATA, add(CFA_XSP16, literal(-12)))
        CFI CFA_SP SP+0
        CFI CFA_XSP16 add(XSP16, 12)
        ; Saved register size: 12
        ; Auto size: 0
        MOV     A,R2
        MOV     R6,A
        MOV     A,R3
        MOV     R7,A
//  326   afIncomingMSGPacket_t *MSGpkt;
//  327   (void)task_id;  // Intentionally unreferenced parameter
//  328 
//  329   if ( events & SYS_EVENT_MSG )
        ANL     A,#0x80
        JZ      ??SampleApp_ProcessEvent_0
//  330   {
//  331     MSGpkt = (afIncomingMSGPacket_t *)osal_msg_receive( SampleApp_TaskID );
        ; Setup parameters for call to function osal_msg_receive
        SJMP    ??SampleApp_ProcessEvent_1
//  332     while ( MSGpkt )
//  333     {
//  334       switch ( MSGpkt->hdr.event )
//  335       {
//  336         // Received when a key is pressed
//  337         case KEY_CHANGE:
//  338           SampleApp_HandleKeys( ((keyChange_t *)MSGpkt)->state, ((keyChange_t *)MSGpkt)->keys );
//  339           break;
//  340 
//  341         // Received when a messages is received (OTA) for this endpoint
//  342 //*******************接收数据的数据处理部分***********************************//
//  343         case AF_INCOMING_MSG_CMD:
//  344           SampleApp_MessageMSGCB( MSGpkt );
//  345          break;
//  346 
//  347 //*******************节点状态改变的处理部分***********************************//
//  348         // Received whenever the device changes state in the network
//  349         case ZDO_STATE_CHANGE:
//  350           SampleApp_NwkState = (devStates_t)(MSGpkt->hdr.status);
??SampleApp_ProcessEvent_2:
        INC     DPTR
        MOVX    A,@DPTR
        MOV     DPTR,#SampleApp_NwkState
        MOVX    @DPTR,A
//  351           if (   (SampleApp_NwkState == DEV_ROUTER)
//  352               || (SampleApp_NwkState == DEV_END_DEVICE) 
//  353                 )
        XRL     A,#0x7
        JZ      ??SampleApp_ProcessEvent_3
        MOVX    A,@DPTR
        XRL     A,#0x6
        JNZ     ??CrossCallReturnLabel_39
//  354           {
//  355 //*******************定时器开启***********************************************//
//  356         // Start sending the periodic message in a regular interval.
//  357             pf = 0;                             //定时器事件标志位清零
??SampleApp_ProcessEvent_3:
        MOV     DPTR,#pf
        CLR     A
        MOVX    @DPTR,A
//  358             SWLED = 0;                          //LED关闭
        CLR     0x90.1
//  359             CountF = 1;                         //计算睡眠时间标志位开启
        MOV     DPTR,#CountF
        INC     A
        MOVX    @DPTR,A
//  360             osal_start_timerEx( SampleApp_TaskID,
//  361                                 SAMPLEAPP_SEND_PERIODIC_MSG_EVT,
//  362                                 500 );          //定时500MS
        ; Setup parameters for call to function osal_start_timerEx
        MOV     R4,#-0xc
        MOV     R5,A
        MOV     R2,A
        LCALL   ??Subroutine20_0 & 0xFFFF
//  363           }
//  364           else
//  365           {
//  366             // Device is no longer in the network
//  367           }
//  368           break;
//  369 
//  370         default:
//  371           break;
//  372       }
//  373 
//  374       // Release the memory
//  375       osal_msg_deallocate( (uint8 *)MSGpkt );
??CrossCallReturnLabel_39:
        ; Setup parameters for call to function osal_msg_deallocate
        MOV     R2,?V0 + 0
        MOV     R3,?V0 + 1
        LCALL   ??osal_msg_deallocate?relay
//  376 
//  377       // Next - if one is available
//  378       MSGpkt = (afIncomingMSGPacket_t *)osal_msg_receive( SampleApp_TaskID );
        ; Setup parameters for call to function osal_msg_receive
??SampleApp_ProcessEvent_1:
        MOV     DPTR,#SampleApp_TaskID
        MOVX    A,@DPTR
        MOV     R1,A
        LCALL   ??osal_msg_receive?relay
        MOV     ?V0 + 0,R2
        MOV     ?V0 + 1,R3
        MOV     A,?V0 + 0
        ORL     A,?V0 + 1
        JZ      ??SampleApp_ProcessEvent_4
        MOV     DPL,?V0 + 0
        MOV     DPH,?V0 + 1
        MOVX    A,@DPTR
        ADD     A,#-0x1a
        JZ      ??SampleApp_ProcessEvent_5
        ADD     A,#0x5a
        JZ      ??SampleApp_ProcessEvent_6
        ADD     A,#-0x11
        JZ      ??SampleApp_ProcessEvent_2
        SJMP    ??CrossCallReturnLabel_39
??SampleApp_ProcessEvent_6:
        ; Setup parameters for call to function SampleApp_HandleKeys
        INC     DPTR
        INC     DPTR
        INC     DPTR
        MOVX    A,@DPTR
        MOV     R2,A
        MOV     DPL,?V0 + 0
        MOV     DPH,?V0 + 1
        INC     DPTR
        INC     DPTR
        MOVX    A,@DPTR
        MOV     R1,A
        LCALL   ??SampleApp_HandleKeys?relay
        SJMP    ??CrossCallReturnLabel_39
??SampleApp_ProcessEvent_5:
        ; Setup parameters for call to function SampleApp_MessageMSGCB
        MOV     R2,?V0 + 0
        MOV     R3,?V0 + 1
        LCALL   ??SampleApp_MessageMSGCB?relay
        SJMP    ??CrossCallReturnLabel_39
//  379     }
//  380 
//  381     // return unprocessed events
//  382     return (events ^ SYS_EVENT_MSG);
??SampleApp_ProcessEvent_4:
        MOV     A,R6
        MOV     R2,A
        MOV     A,R7
        XRL     A,#0x80
??SampleApp_ProcessEvent_7:
        MOV     R3,A
        SJMP    ??SampleApp_ProcessEvent_8
//  383   }
//  384 
//  385   // Send a message out - This event is generated by a timer
//  386   //  (setup in SampleApp_Init()).
//  387 //*********************定时事件处理部分***************************************//
//  388   if ( events & SAMPLEAPP_SEND_PERIODIC_MSG_EVT )
??SampleApp_ProcessEvent_0:
        MOV     A,R6
        MOV     C,0xE0 /* A   */.0
        JNC     ??SampleApp_ProcessEvent_9
//  389   { 
//  390     if( pf == 0 )                            //pf为0  发送时间同步请求
        MOV     DPTR,#pf
        MOVX    A,@DPTR
        JNZ     ??SampleApp_ProcessEvent_10
//  391     {
//  392       SWLED = 1;                             //LED开启
        SETB    0x90.1
//  393       SampleApp_Send_P2P_Message( 0x02 );    //发送时间同步请求
        ; Setup parameters for call to function SampleApp_Send_P2P_Message
        MOV     R1,#0x2
        LCALL   ??SampleApp_Send_P2P_Message?relay
//  394       osal_start_timerEx( SampleApp_TaskID, SAMPLEAPP_SEND_PERIODIC_MSG_EVT,
//  395                           1100);             //1.1s后进入同步  roll_rate为1s
        ; Setup parameters for call to function osal_start_timerEx
        MOV     R4,#0x4c
        MOV     R5,#0x4
        LCALL   ?Subroutine10 & 0xFFFF
//  396     }
//  397     else if( pf == 1 )                       //pf为1 同步成功 发送数据并进入低功耗模式     
//  398     {
//  399       SWLED = 0;                             //LED关闭
//  400       
//  401 //**************连上网直接发一次数据******************************************//
//  402       P1INP &= ~0X30;                        //取消P1_5 P1_4的高阻态模式
//  403       P1INP &= ~0X0C;                        //取消P1_3 P1_2的高阻态模式
//  404       P1DIR |= 0X01;                         //设置P1_0为输出
//  405       Delay_ms( 1 );
//  406       POWER = 1;                             //打开负载电源
//  407       Delay_ms( 1000 );                      //等待负载电压稳定
//  408       SampleApp_Send_P2P_Message( 0x01 );    //发送采集数据  第一组
//  409       SampleApp_Send_P2P_Message( 0x01 );    //发送采集数据  第二组
//  410       POWER = 0;                             //关掉负载电源
//  411       P1DIR &= ~0X01;                        //设置P1_0为输入
//  412       P1INP |= 0X01;                       //设置P1_0为高阻态
//  413        
//  414       P1DIR &= ~0X30;                        //设置P1_4 P1_5为输入
//  415       P1DIR &= ~0X0C;                        //设置P1_3 P1_2为输入
//  416       P1INP |= 0X30;                         //设置P1_4 P1_5为高阻态
//  417       P1INP |= 0X0C;                         //设置P1_3 P1_2为高阻态          
//  418 
//  419 //***************设置rate   进入低功耗****************************************//
//  420       NLME_SetPollRate( 0 );
//  421       NLME_SetQueuedPollRate( 0 );
//  422       NLME_SetResponseRate( 0 );       
//  423       
//  424       powf = 1;                               //打开睡眠标志                                      
//  425       pf = 2;                                 //pf置2
//  426     }
//  427     if( pf == 2 )                             //pf为2 进入正常的发送-睡眠工作模式
??CrossCallReturnLabel_37:
        MOV     DPTR,#pf
        MOVX    A,@DPTR
        XRL     A,#0x2
        JNZ     ??CrossCallReturnLabel_38
//  428     {
//  429       if( TX_Flag == 1 )                      //如果发送标志位为1 则发送采集数据
??SampleApp_ProcessEvent_11:
        MOV     DPTR,#TX_Flag
        MOVX    A,@DPTR
        XRL     A,#0x1
        JNZ     ??CrossCallReturnLabel_0
//  430       {
//  431         TX_Flag = 0;                          //发送标志位清零
        CLR     A
        MOVX    @DPTR,A
//  432 //*****************发送采集数据***********************************************//        
//  433         P1INP &= ~0X30;           
        LCALL   ?Subroutine14 & 0xFFFF
//  434         P1INP &= ~0X0C;
//  435         P1DIR |= 0X01;
//  436         Delay_ms( 1 );
//  437         POWER = 1;             
//  438         Delay_ms( 1000 );     
//  439         SampleApp_Send_P2P_Message( 0x01 );
//  440         SampleApp_Send_P2P_Message( 0x01 );
//  441         POWER = 0;
//  442         P1DIR &= ~0X01;
//  443         P1INP |= 0X01;
//  444          
//  445         P1DIR &= ~0X30;                    
//  446         P1DIR &= ~0X0C;
//  447         P1INP |= 0X30;
//  448         P1INP |= 0X0C;
//  449       }
??CrossCallReturnLabel_23:
        MOV     R3,A
        LCALL   ?Subroutine2 & 0xFFFF
//  450       osal_start_timerEx( SampleApp_TaskID, SAMPLEAPP_SEND_PERIODIC_MSG_EVT,
//  451          (SAMPLEAPP_SEND_PERIODIC_MSG_TIMEOUT + (osal_rand() & 0x00FF)) );
??CrossCallReturnLabel_0:
        ; Setup parameters for call to function osal_rand
        LCALL   ??osal_rand?relay
        ; Setup parameters for call to function osal_start_timerEx
        MOV     A,R2
        ADD     A,#-0x78
        MOV     R4,A
        CLR     A
        ADDC    A,#0x13
        MOV     R5,A
        LCALL   ?Subroutine10 & 0xFFFF
//  452     }
//  453     // return unprocessed events
//  454     return (events ^ SAMPLEAPP_SEND_PERIODIC_MSG_EVT);
??CrossCallReturnLabel_38:
        MOV     A,R6
        XRL     A,#0x1
        MOV     R2,A
        MOV     A,R7
        SJMP    ??SampleApp_ProcessEvent_7
??SampleApp_ProcessEvent_10:
        XRL     A,#0x1
        JNZ     ??CrossCallReturnLabel_37
        CLR     0x90.1
        LCALL   ?Subroutine14 & 0xFFFF
??CrossCallReturnLabel_24:
        MOV     R3,#0x0
        LCALL   ?Subroutine2 & 0xFFFF
??CrossCallReturnLabel_1:
        ; Setup parameters for call to function NLME_SetPollRate
        MOV     R2,#0x0
        MOV     R3,#0x0
        LCALL   ??NLME_SetPollRate?relay
        ; Setup parameters for call to function NLME_SetQueuedPollRate
        MOV     R2,#0x0
        MOV     R3,#0x0
        LCALL   ??NLME_SetQueuedPollRate?relay
        ; Setup parameters for call to function NLME_SetResponseRate
        MOV     R2,#0x0
        MOV     R3,#0x0
        LCALL   ??NLME_SetResponseRate?relay
        MOV     DPTR,#powf
        MOV     A,#0x1
        MOVX    @DPTR,A
        MOV     DPTR,#pf
        INC     A
        MOVX    @DPTR,A
        SJMP    ??SampleApp_ProcessEvent_11
//  455   }
//  456   // Discard unknown events
//  457   return 0;
??SampleApp_ProcessEvent_9:
        MOV     R2,#0x0
        MOV     R3,#0x0
??SampleApp_ProcessEvent_8:
        MOV     R7,#0x4
        LJMP    ?BANKED_LEAVE_XDATA
        CFI EndBlock cfiBlock4
        REQUIRE _A_P1
        REQUIRE P1INP
        REQUIRE P1DIR
//  458 }

        RSEG BANKED_CODE:CODE:NOROOT(0)
?Subroutine14:
        CFI Block cfiCond5 Using cfiCommon0
        CFI NoFunction
        CFI Conditional ??CrossCallReturnLabel_23
        CFI R6 load(1, XDATA, add(CFA_XSP16, literal(-12)))
        CFI VB load(1, XDATA, add(CFA_XSP16, literal(-11)))
        CFI V0 load(1, XDATA, add(CFA_XSP16, literal(-10)))
        CFI V1 load(1, XDATA, add(CFA_XSP16, literal(-9)))
        CFI V2 load(1, XDATA, add(CFA_XSP16, literal(-8)))
        CFI V3 load(1, XDATA, add(CFA_XSP16, literal(-7)))
        CFI R7 load(1, XDATA, add(CFA_XSP16, literal(-6)))
        CFI ?RET_LOW load(1, XDATA, add(CFA_XSP16, literal(-5)))
        CFI ?RET_HIGH load(1, XDATA, add(CFA_XSP16, literal(-4)))
        CFI ?BRET_EXT load(1, XDATA, add(CFA_XSP16, literal(-3)))
        CFI DPL0 load(1, XDATA, add(CFA_XSP16, literal(-2)))
        CFI DPH0 load(1, XDATA, add(CFA_XSP16, literal(-1)))
        CFI CFA_SP SP+0
        CFI CFA_XSP16 add(XSP16, 12)
        CFI Block cfiCond6 Using cfiCommon0
        CFI (cfiCond6) NoFunction
        CFI (cfiCond6) Conditional ??CrossCallReturnLabel_24
        CFI (cfiCond6) R6 load(1, XDATA, add(CFA_XSP16, literal(-12)))
        CFI (cfiCond6) VB load(1, XDATA, add(CFA_XSP16, literal(-11)))
        CFI (cfiCond6) V0 load(1, XDATA, add(CFA_XSP16, literal(-10)))
        CFI (cfiCond6) V1 load(1, XDATA, add(CFA_XSP16, literal(-9)))
        CFI (cfiCond6) V2 load(1, XDATA, add(CFA_XSP16, literal(-8)))
        CFI (cfiCond6) V3 load(1, XDATA, add(CFA_XSP16, literal(-7)))
        CFI (cfiCond6) R7 load(1, XDATA, add(CFA_XSP16, literal(-6)))
        CFI (cfiCond6) ?RET_LOW load(1, XDATA, add(CFA_XSP16, literal(-5)))
        CFI (cfiCond6) ?RET_HIGH load(1, XDATA, add(CFA_XSP16, literal(-4)))
        CFI (cfiCond6) ?BRET_EXT load(1, XDATA, add(CFA_XSP16, literal(-3)))
        CFI (cfiCond6) DPL0 load(1, XDATA, add(CFA_XSP16, literal(-2)))
        CFI (cfiCond6) DPH0 load(1, XDATA, add(CFA_XSP16, literal(-1)))
        CFI (cfiCond6) CFA_SP SP+0
        CFI (cfiCond6) CFA_XSP16 add(XSP16, 12)
        CFI Block cfiPicker7 Using cfiCommon1
        CFI (cfiPicker7) NoFunction
        CFI (cfiPicker7) Picker
        ANL     0xf6,#0xcf
        ANL     0xf6,#0xf3
        ORL     0xfe,#0x1
        ; Setup parameters for call to function Delay_ms
        ; Setup parameters for call to function Delay_ms
        MOV     R2,#0x1
        RET
        CFI EndBlock cfiCond5
        CFI EndBlock cfiCond6
        CFI EndBlock cfiPicker7

        RSEG BANKED_CODE:CODE:NOROOT(0)
?Subroutine10:
        CFI Block cfiCond8 Using cfiCommon0
        CFI NoFunction
        CFI Conditional ??CrossCallReturnLabel_37
        CFI R6 load(1, XDATA, add(CFA_XSP16, literal(-12)))
        CFI VB load(1, XDATA, add(CFA_XSP16, literal(-11)))
        CFI V0 load(1, XDATA, add(CFA_XSP16, literal(-10)))
        CFI V1 load(1, XDATA, add(CFA_XSP16, literal(-9)))
        CFI V2 load(1, XDATA, add(CFA_XSP16, literal(-8)))
        CFI V3 load(1, XDATA, add(CFA_XSP16, literal(-7)))
        CFI R7 load(1, XDATA, add(CFA_XSP16, literal(-6)))
        CFI ?RET_LOW load(1, XDATA, add(CFA_XSP16, literal(-5)))
        CFI ?RET_HIGH load(1, XDATA, add(CFA_XSP16, literal(-4)))
        CFI ?BRET_EXT load(1, XDATA, add(CFA_XSP16, literal(-3)))
        CFI DPL0 load(1, XDATA, add(CFA_XSP16, literal(-2)))
        CFI DPH0 load(1, XDATA, add(CFA_XSP16, literal(-1)))
        CFI CFA_SP SP+0
        CFI CFA_XSP16 add(XSP16, 12)
        CFI Block cfiCond9 Using cfiCommon0
        CFI (cfiCond9) NoFunction
        CFI (cfiCond9) Conditional ??CrossCallReturnLabel_38
        CFI (cfiCond9) R6 load(1, XDATA, add(CFA_XSP16, literal(-12)))
        CFI (cfiCond9) VB load(1, XDATA, add(CFA_XSP16, literal(-11)))
        CFI (cfiCond9) V0 load(1, XDATA, add(CFA_XSP16, literal(-10)))
        CFI (cfiCond9) V1 load(1, XDATA, add(CFA_XSP16, literal(-9)))
        CFI (cfiCond9) V2 load(1, XDATA, add(CFA_XSP16, literal(-8)))
        CFI (cfiCond9) V3 load(1, XDATA, add(CFA_XSP16, literal(-7)))
        CFI (cfiCond9) R7 load(1, XDATA, add(CFA_XSP16, literal(-6)))
        CFI (cfiCond9) ?RET_LOW load(1, XDATA, add(CFA_XSP16, literal(-5)))
        CFI (cfiCond9) ?RET_HIGH load(1, XDATA, add(CFA_XSP16, literal(-4)))
        CFI (cfiCond9) ?BRET_EXT load(1, XDATA, add(CFA_XSP16, literal(-3)))
        CFI (cfiCond9) DPL0 load(1, XDATA, add(CFA_XSP16, literal(-2)))
        CFI (cfiCond9) DPH0 load(1, XDATA, add(CFA_XSP16, literal(-1)))
        CFI (cfiCond9) CFA_SP SP+0
        CFI (cfiCond9) CFA_XSP16 add(XSP16, 12)
        CFI Block cfiPicker10 Using cfiCommon1
        CFI (cfiPicker10) NoFunction
        CFI (cfiPicker10) Picker
        MOV     R2,#0x1
        CFI EndBlock cfiCond8
        CFI EndBlock cfiCond9
        CFI EndBlock cfiPicker10
        REQUIRE ??Subroutine20_0
        ; // Fall through to label ??Subroutine20_0

        RSEG BANKED_CODE:CODE:NOROOT(0)
??Subroutine20_0:
        CFI Block cfiCond11 Using cfiCommon0
        CFI NoFunction
        CFI Conditional ??CrossCallReturnLabel_39
        CFI R6 load(1, XDATA, add(CFA_XSP16, literal(-12)))
        CFI VB load(1, XDATA, add(CFA_XSP16, literal(-11)))
        CFI V0 load(1, XDATA, add(CFA_XSP16, literal(-10)))
        CFI V1 load(1, XDATA, add(CFA_XSP16, literal(-9)))
        CFI V2 load(1, XDATA, add(CFA_XSP16, literal(-8)))
        CFI V3 load(1, XDATA, add(CFA_XSP16, literal(-7)))
        CFI R7 load(1, XDATA, add(CFA_XSP16, literal(-6)))
        CFI ?RET_LOW load(1, XDATA, add(CFA_XSP16, literal(-5)))
        CFI ?RET_HIGH load(1, XDATA, add(CFA_XSP16, literal(-4)))
        CFI ?BRET_EXT load(1, XDATA, add(CFA_XSP16, literal(-3)))
        CFI DPL0 load(1, XDATA, add(CFA_XSP16, literal(-2)))
        CFI DPH0 load(1, XDATA, add(CFA_XSP16, literal(-1)))
        CFI CFA_SP SP+0
        CFI CFA_XSP16 add(XSP16, 12)
        CFI Block cfiCond12 Using cfiCommon0
        CFI (cfiCond12) NoFunction
        CFI (cfiCond12) Conditional ??CrossCallReturnLabel_37
        CFI (cfiCond12) R6 load(1, XDATA, add(CFA_XSP16, literal(-12)))
        CFI (cfiCond12) VB load(1, XDATA, add(CFA_XSP16, literal(-11)))
        CFI (cfiCond12) V0 load(1, XDATA, add(CFA_XSP16, literal(-10)))
        CFI (cfiCond12) V1 load(1, XDATA, add(CFA_XSP16, literal(-9)))
        CFI (cfiCond12) V2 load(1, XDATA, add(CFA_XSP16, literal(-8)))
        CFI (cfiCond12) V3 load(1, XDATA, add(CFA_XSP16, literal(-7)))
        CFI (cfiCond12) R7 load(1, XDATA, add(CFA_XSP16, literal(-6)))
        CFI (cfiCond12) ?RET_LOW load(1, XDATA, add(CFA_XSP16, literal(-5)))
        CFI (cfiCond12) ?RET_HIGH load(1, XDATA, add(CFA_XSP16, literal(-4)))
        CFI (cfiCond12) ?BRET_EXT load(1, XDATA, add(CFA_XSP16, literal(-3)))
        CFI (cfiCond12) DPL0 load(1, XDATA, add(CFA_XSP16, literal(-2)))
        CFI (cfiCond12) DPH0 load(1, XDATA, add(CFA_XSP16, literal(-1)))
        CFI (cfiCond12) CFA_SP SP+0
        CFI (cfiCond12) CFA_XSP16 add(XSP16, 12)
        CFI Block cfiCond13 Using cfiCommon0
        CFI (cfiCond13) NoFunction
        CFI (cfiCond13) Conditional ??CrossCallReturnLabel_38
        CFI (cfiCond13) R6 load(1, XDATA, add(CFA_XSP16, literal(-12)))
        CFI (cfiCond13) VB load(1, XDATA, add(CFA_XSP16, literal(-11)))
        CFI (cfiCond13) V0 load(1, XDATA, add(CFA_XSP16, literal(-10)))
        CFI (cfiCond13) V1 load(1, XDATA, add(CFA_XSP16, literal(-9)))
        CFI (cfiCond13) V2 load(1, XDATA, add(CFA_XSP16, literal(-8)))
        CFI (cfiCond13) V3 load(1, XDATA, add(CFA_XSP16, literal(-7)))
        CFI (cfiCond13) R7 load(1, XDATA, add(CFA_XSP16, literal(-6)))
        CFI (cfiCond13) ?RET_LOW load(1, XDATA, add(CFA_XSP16, literal(-5)))
        CFI (cfiCond13) ?RET_HIGH load(1, XDATA, add(CFA_XSP16, literal(-4)))
        CFI (cfiCond13) ?BRET_EXT load(1, XDATA, add(CFA_XSP16, literal(-3)))
        CFI (cfiCond13) DPL0 load(1, XDATA, add(CFA_XSP16, literal(-2)))
        CFI (cfiCond13) DPH0 load(1, XDATA, add(CFA_XSP16, literal(-1)))
        CFI (cfiCond13) CFA_SP SP+0
        CFI (cfiCond13) CFA_XSP16 add(XSP16, 12)
        CFI Block cfiPicker14 Using cfiCommon1
        CFI (cfiPicker14) NoFunction
        CFI (cfiPicker14) Picker
        MOV     R3,#0x0
        MOV     DPTR,#SampleApp_TaskID
        MOVX    A,@DPTR
        MOV     R1,A
        LCALL   ??osal_start_timerEx?relay
        RET
        CFI EndBlock cfiCond11
        CFI EndBlock cfiCond12
        CFI EndBlock cfiCond13
        CFI EndBlock cfiPicker14

        RSEG BANKED_CODE:CODE:NOROOT(0)
?Subroutine2:
        CFI Block cfiCond15 Using cfiCommon0
        CFI NoFunction
        CFI Conditional ??CrossCallReturnLabel_0
        CFI R6 load(1, XDATA, add(CFA_XSP16, literal(-12)))
        CFI VB load(1, XDATA, add(CFA_XSP16, literal(-11)))
        CFI V0 load(1, XDATA, add(CFA_XSP16, literal(-10)))
        CFI V1 load(1, XDATA, add(CFA_XSP16, literal(-9)))
        CFI V2 load(1, XDATA, add(CFA_XSP16, literal(-8)))
        CFI V3 load(1, XDATA, add(CFA_XSP16, literal(-7)))
        CFI R7 load(1, XDATA, add(CFA_XSP16, literal(-6)))
        CFI ?RET_LOW load(1, XDATA, add(CFA_XSP16, literal(-5)))
        CFI ?RET_HIGH load(1, XDATA, add(CFA_XSP16, literal(-4)))
        CFI ?BRET_EXT load(1, XDATA, add(CFA_XSP16, literal(-3)))
        CFI DPL0 load(1, XDATA, add(CFA_XSP16, literal(-2)))
        CFI DPH0 load(1, XDATA, add(CFA_XSP16, literal(-1)))
        CFI CFA_SP SP+0
        CFI CFA_XSP16 add(XSP16, 12)
        CFI Block cfiCond16 Using cfiCommon0
        CFI (cfiCond16) NoFunction
        CFI (cfiCond16) Conditional ??CrossCallReturnLabel_1
        CFI (cfiCond16) R6 load(1, XDATA, add(CFA_XSP16, literal(-12)))
        CFI (cfiCond16) VB load(1, XDATA, add(CFA_XSP16, literal(-11)))
        CFI (cfiCond16) V0 load(1, XDATA, add(CFA_XSP16, literal(-10)))
        CFI (cfiCond16) V1 load(1, XDATA, add(CFA_XSP16, literal(-9)))
        CFI (cfiCond16) V2 load(1, XDATA, add(CFA_XSP16, literal(-8)))
        CFI (cfiCond16) V3 load(1, XDATA, add(CFA_XSP16, literal(-7)))
        CFI (cfiCond16) R7 load(1, XDATA, add(CFA_XSP16, literal(-6)))
        CFI (cfiCond16) ?RET_LOW load(1, XDATA, add(CFA_XSP16, literal(-5)))
        CFI (cfiCond16) ?RET_HIGH load(1, XDATA, add(CFA_XSP16, literal(-4)))
        CFI (cfiCond16) ?BRET_EXT load(1, XDATA, add(CFA_XSP16, literal(-3)))
        CFI (cfiCond16) DPL0 load(1, XDATA, add(CFA_XSP16, literal(-2)))
        CFI (cfiCond16) DPH0 load(1, XDATA, add(CFA_XSP16, literal(-1)))
        CFI (cfiCond16) CFA_SP SP+0
        CFI (cfiCond16) CFA_XSP16 add(XSP16, 12)
        CFI Block cfiPicker17 Using cfiCommon1
        CFI (cfiPicker17) NoFunction
        CFI (cfiPicker17) Picker
        LCALL   ??Delay_ms?relay
        SETB    0x90.0
        ; Setup parameters for call to function Delay_ms
        ; Setup parameters for call to function Delay_ms
        MOV     R2,#-0x18
        MOV     R3,#0x3
        LCALL   ??Delay_ms?relay
        ; Setup parameters for call to function SampleApp_Send_P2P_Message
        ; Setup parameters for call to function SampleApp_Send_P2P_Message
        MOV     R1,#0x1
        LCALL   ??SampleApp_Send_P2P_Message?relay
        ; Setup parameters for call to function SampleApp_Send_P2P_Message
        ; Setup parameters for call to function SampleApp_Send_P2P_Message
        MOV     R1,#0x1
        LCALL   ??SampleApp_Send_P2P_Message?relay
        LCALL   ?Subroutine17 & 0xFFFF
??CrossCallReturnLabel_30:
        RET
        CFI EndBlock cfiCond15
        CFI EndBlock cfiCond16
        CFI EndBlock cfiPicker17

        RSEG BANKED_CODE:CODE:NOROOT(0)
?Subroutine17:
        CFI Block cfiCond18 Using cfiCommon0
        CFI NoFunction
        CFI Conditional ??CrossCallReturnLabel_29
        CFI R6 load(1, XDATA, add(CFA_XSP16, literal(-11)))
        CFI VB load(1, XDATA, add(CFA_XSP16, literal(-10)))
        CFI V0 load(1, XDATA, add(CFA_XSP16, literal(-9)))
        CFI V1 load(1, XDATA, add(CFA_XSP16, literal(-8)))
        CFI V2 load(1, XDATA, add(CFA_XSP16, literal(-7)))
        CFI R7 load(1, XDATA, add(CFA_XSP16, literal(-6)))
        CFI ?RET_LOW load(1, XDATA, add(CFA_XSP16, literal(-5)))
        CFI ?RET_HIGH load(1, XDATA, add(CFA_XSP16, literal(-4)))
        CFI ?BRET_EXT load(1, XDATA, add(CFA_XSP16, literal(-3)))
        CFI DPL0 load(1, XDATA, add(CFA_XSP16, literal(-2)))
        CFI DPH0 load(1, XDATA, add(CFA_XSP16, literal(-1)))
        CFI CFA_SP SP+0
        CFI CFA_XSP16 add(XSP16, 11)
        CFI Block cfiCond19 Using cfiCommon0
        CFI (cfiCond19) NoFunction
        CFI (cfiCond19) Conditional ??CrossCallReturnLabel_30, ??CrossCallReturnLabel_0
        CFI (cfiCond19) R6 load(1, XDATA, add(CFA_XSP16, literal(-12)))
        CFI (cfiCond19) VB load(1, XDATA, add(CFA_XSP16, literal(-11)))
        CFI (cfiCond19) V0 load(1, XDATA, add(CFA_XSP16, literal(-10)))
        CFI (cfiCond19) V1 load(1, XDATA, add(CFA_XSP16, literal(-9)))
        CFI (cfiCond19) V2 load(1, XDATA, add(CFA_XSP16, literal(-8)))
        CFI (cfiCond19) V3 load(1, XDATA, add(CFA_XSP16, literal(-7)))
        CFI (cfiCond19) R7 load(1, XDATA, add(CFA_XSP16, literal(-6)))
        CFI (cfiCond19) ?RET_LOW load(1, XDATA, add(CFA_XSP16, literal(-5)))
        CFI (cfiCond19) ?RET_HIGH load(1, XDATA, add(CFA_XSP16, literal(-4)))
        CFI (cfiCond19) ?BRET_EXT load(1, XDATA, add(CFA_XSP16, literal(-3)))
        CFI (cfiCond19) DPL0 load(1, XDATA, add(CFA_XSP16, literal(-2)))
        CFI (cfiCond19) DPH0 load(1, XDATA, add(CFA_XSP16, literal(-1)))
        CFI (cfiCond19) CFA_SP SP+0
        CFI (cfiCond19) CFA_XSP16 add(XSP16, 12)
        CFI Block cfiCond20 Using cfiCommon0
        CFI (cfiCond20) NoFunction
        CFI (cfiCond20) Conditional ??CrossCallReturnLabel_30, ??CrossCallReturnLabel_1
        CFI (cfiCond20) R6 load(1, XDATA, add(CFA_XSP16, literal(-12)))
        CFI (cfiCond20) VB load(1, XDATA, add(CFA_XSP16, literal(-11)))
        CFI (cfiCond20) V0 load(1, XDATA, add(CFA_XSP16, literal(-10)))
        CFI (cfiCond20) V1 load(1, XDATA, add(CFA_XSP16, literal(-9)))
        CFI (cfiCond20) V2 load(1, XDATA, add(CFA_XSP16, literal(-8)))
        CFI (cfiCond20) V3 load(1, XDATA, add(CFA_XSP16, literal(-7)))
        CFI (cfiCond20) R7 load(1, XDATA, add(CFA_XSP16, literal(-6)))
        CFI (cfiCond20) ?RET_LOW load(1, XDATA, add(CFA_XSP16, literal(-5)))
        CFI (cfiCond20) ?RET_HIGH load(1, XDATA, add(CFA_XSP16, literal(-4)))
        CFI (cfiCond20) ?BRET_EXT load(1, XDATA, add(CFA_XSP16, literal(-3)))
        CFI (cfiCond20) DPL0 load(1, XDATA, add(CFA_XSP16, literal(-2)))
        CFI (cfiCond20) DPH0 load(1, XDATA, add(CFA_XSP16, literal(-1)))
        CFI (cfiCond20) CFA_SP SP+0
        CFI (cfiCond20) CFA_XSP16 add(XSP16, 12)
        CFI Block cfiPicker21 Using cfiCommon1
        CFI (cfiPicker21) NoFunction
        CFI (cfiPicker21) Picker
        CLR     0x90.0
        ANL     0xfe,#0xfe
        ORL     0xf6,#0x1
        ANL     0xfe,#0xcf
        ANL     0xfe,#0xf3
        ORL     0xf6,#0x30
        ORL     0xf6,#0xc
        RET
        CFI EndBlock cfiCond18
        CFI EndBlock cfiCond19
        CFI EndBlock cfiCond20
        CFI EndBlock cfiPicker21
//  459 
//  460 /*********************************************************************
//  461  * Event Generation Functions
//  462  */
//  463 /*********************************************************************
//  464  * @fn      SampleApp_HandleKeys
//  465  *
//  466  * @brief   Handles all key events for this device.
//  467  *
//  468  * @param   shift - true if in shift/alt.
//  469  * @param   keys - bit field for key events. Valid entries:
//  470  *                 HAL_KEY_SW_2
//  471  *                 HAL_KEY_SW_1
//  472  *
//  473  * @return  none
//  474  */

        RSEG BANKED_CODE:CODE:NOROOT(0)
//  475 void SampleApp_HandleKeys( uint8 shift, uint8 keys )
SampleApp_HandleKeys:
        CFI Block cfiBlock22 Using cfiCommon0
        CFI Function SampleApp_HandleKeys
        CODE
//  476 {
        FUNCALL SampleApp_HandleKeys, SampleApp_SendFlashMessage
        LOCFRAME ISTACK, 0, STACK
        LOCFRAME PSTACK, 0, STACK
        LOCFRAME XSTACK, 10, STACK
        LOCFRAME IOVERLAY, 0, STATIC
        LOCFRAME DOVERLAY, 0, STATIC
        ARGFRAME ISTACK, 0, STACK
        ARGFRAME PSTACK, 0, STACK
        ARGFRAME XSTACK, 10, STACK
        ARGFRAME IOVERLAY, 0, STATIC
        ARGFRAME DOVERLAY, 0, STATIC
        FUNCALL SampleApp_HandleKeys, aps_FindGroup
        LOCFRAME ISTACK, 0, STACK
        LOCFRAME PSTACK, 0, STACK
        LOCFRAME XSTACK, 10, STACK
        LOCFRAME IOVERLAY, 0, STATIC
        LOCFRAME DOVERLAY, 0, STATIC
        ARGFRAME ISTACK, 0, STACK
        ARGFRAME PSTACK, 0, STACK
        ARGFRAME XSTACK, 10, STACK
        ARGFRAME IOVERLAY, 0, STATIC
        ARGFRAME DOVERLAY, 0, STATIC
        FUNCALL SampleApp_HandleKeys, aps_RemoveGroup
        LOCFRAME ISTACK, 0, STACK
        LOCFRAME PSTACK, 0, STACK
        LOCFRAME XSTACK, 10, STACK
        LOCFRAME IOVERLAY, 0, STATIC
        LOCFRAME DOVERLAY, 0, STATIC
        ARGFRAME ISTACK, 0, STACK
        ARGFRAME PSTACK, 0, STACK
        ARGFRAME XSTACK, 10, STACK
        ARGFRAME IOVERLAY, 0, STATIC
        ARGFRAME DOVERLAY, 0, STATIC
        FUNCALL SampleApp_HandleKeys, aps_AddGroup
        LOCFRAME ISTACK, 0, STACK
        LOCFRAME PSTACK, 0, STACK
        LOCFRAME XSTACK, 10, STACK
        LOCFRAME IOVERLAY, 0, STATIC
        LOCFRAME DOVERLAY, 0, STATIC
        ARGFRAME ISTACK, 0, STACK
        ARGFRAME PSTACK, 0, STACK
        ARGFRAME XSTACK, 10, STACK
        ARGFRAME IOVERLAY, 0, STATIC
        ARGFRAME DOVERLAY, 0, STATIC
        MOV     A,#-0xa
        LCALL   ?BANKED_ENTER_XDATA
        CFI DPH0 load(1, XDATA, add(CFA_XSP16, literal(-1)))
        CFI DPL0 load(1, XDATA, add(CFA_XSP16, literal(-2)))
        CFI ?BRET_EXT load(1, XDATA, add(CFA_XSP16, literal(-3)))
        CFI ?RET_HIGH load(1, XDATA, add(CFA_XSP16, literal(-4)))
        CFI ?RET_LOW load(1, XDATA, add(CFA_XSP16, literal(-5)))
        CFI R7 load(1, XDATA, add(CFA_XSP16, literal(-6)))
        CFI V1 load(1, XDATA, add(CFA_XSP16, literal(-7)))
        CFI V0 load(1, XDATA, add(CFA_XSP16, literal(-8)))
        CFI VB load(1, XDATA, add(CFA_XSP16, literal(-9)))
        CFI R6 load(1, XDATA, add(CFA_XSP16, literal(-10)))
        CFI CFA_SP SP+0
        CFI CFA_XSP16 add(XSP16, 10)
        ; Saved register size: 10
        ; Auto size: 0
        MOV     A,R2
        MOV     R6,A
//  477   (void)shift;  // Intentionally unreferenced parameter
//  478   
//  479   if ( keys & HAL_KEY_SW_1 )
        MOV     C,0xE0 /* A   */.0
        JNC     ??SampleApp_HandleKeys_0
//  480   {
//  481     /* This key sends the Flash Command is sent to Group 1.
//  482      * This device will not receive the Flash Command from this
//  483      * device (even if it belongs to group 1).
//  484      */
//  485     SampleApp_SendFlashMessage( SAMPLEAPP_FLASH_DURATION );
        ; Setup parameters for call to function SampleApp_SendFlashMessage
        MOV     R2,#-0x18
        MOV     R3,#0x3
        LCALL   ??SampleApp_SendFlashMessage?relay
//  486   }
//  487 
//  488   if ( keys & HAL_KEY_SW_2 )
??SampleApp_HandleKeys_0:
        MOV     A,R6
        MOV     C,0xE0 /* A   */.1
        JNC     ??SampleApp_HandleKeys_1
//  489   {
//  490     /* The Flashr Command is sent to Group 1.
//  491      * This key toggles this device in and out of group 1.
//  492      * If this device doesn't belong to group 1, this application
//  493      * will not receive the Flash command sent to group 1.
//  494      */
//  495     aps_Group_t *grp;
//  496     grp = aps_FindGroup( SAMPLEAPP_ENDPOINT, SAMPLEAPP_FLASH_GROUP );
//  497     if ( grp )
        ; Setup parameters for call to function aps_FindGroup
        MOV     R2,#0x1
        MOV     R3,#0x0
        MOV     R1,#0x14
        LCALL   ??aps_FindGroup?relay
        MOV     ?V0 + 1,R3
        MOV     A,R2
        ORL     A,?V0 + 1
        JZ      ??SampleApp_HandleKeys_2
//  498     {
//  499       // Remove from the group
//  500       aps_RemoveGroup( SAMPLEAPP_ENDPOINT, SAMPLEAPP_FLASH_GROUP );
        ; Setup parameters for call to function aps_RemoveGroup
        MOV     R2,#0x1
        MOV     R3,#0x0
        MOV     R1,#0x14
        LCALL   ??aps_RemoveGroup?relay
        SJMP    ??SampleApp_HandleKeys_1
//  501     }
//  502     else
//  503     {
//  504       // Add to the flash group
//  505       aps_AddGroup( SAMPLEAPP_ENDPOINT, &SampleApp_Group );
??SampleApp_HandleKeys_2:
        ; Setup parameters for call to function aps_AddGroup
        MOV     R2,#SampleApp_Group & 0xff
        MOV     R3,#(SampleApp_Group >> 8) & 0xff
        MOV     R1,#0x14
        LCALL   ??aps_AddGroup?relay
//  506     }
//  507   }
//  508 }
??SampleApp_HandleKeys_1:
        LJMP    ??Subroutine22_0 & 0xFFFF
        CFI EndBlock cfiBlock22
//  509 
//  510 /*********************************************************************
//  511  * LOCAL FUNCTIONS
//  512  */
//  513 
//  514 /*********************************************************************
//  515  * @fn      SampleApp_MessageMSGCB
//  516  *
//  517  * @brief   Data message processor callback.  This function processes
//  518  *          any incoming data - probably from other devices.  So, based
//  519  *          on cluster ID, perform the intended action.
//  520  *
//  521  * @param   none
//  522  *
//  523  * @return  none
//  524  */

        RSEG BANKED_CODE:CODE:NOROOT(0)
//  525 void SampleApp_MessageMSGCB( afIncomingMSGPacket_t *pkt )
SampleApp_MessageMSGCB:
        CFI Block cfiBlock23 Using cfiCommon0
        CFI Function SampleApp_MessageMSGCB
        CODE
//  526 {
        FUNCALL SampleApp_MessageMSGCB, osal_memcpy
        LOCFRAME ISTACK, 0, STACK
        LOCFRAME PSTACK, 0, STACK
        LOCFRAME XSTACK, 39, STACK
        LOCFRAME IOVERLAY, 0, STATIC
        LOCFRAME DOVERLAY, 0, STATIC
        ARGFRAME ISTACK, 0, STACK
        ARGFRAME PSTACK, 0, STACK
        ARGFRAME XSTACK, 39, STACK
        ARGFRAME IOVERLAY, 0, STATIC
        ARGFRAME DOVERLAY, 0, STATIC
        FUNCALL SampleApp_MessageMSGCB, osal_memcpy
        LOCFRAME ISTACK, 0, STACK
        LOCFRAME PSTACK, 0, STACK
        LOCFRAME XSTACK, 39, STACK
        LOCFRAME IOVERLAY, 0, STATIC
        LOCFRAME DOVERLAY, 0, STATIC
        ARGFRAME ISTACK, 0, STACK
        ARGFRAME PSTACK, 0, STACK
        ARGFRAME XSTACK, 39, STACK
        ARGFRAME IOVERLAY, 0, STATIC
        ARGFRAME DOVERLAY, 0, STATIC
        FUNCALL SampleApp_MessageMSGCB, osal_memcmp
        LOCFRAME ISTACK, 0, STACK
        LOCFRAME PSTACK, 0, STACK
        LOCFRAME XSTACK, 39, STACK
        LOCFRAME IOVERLAY, 0, STATIC
        LOCFRAME DOVERLAY, 0, STATIC
        ARGFRAME ISTACK, 0, STACK
        ARGFRAME PSTACK, 0, STACK
        ARGFRAME XSTACK, 39, STACK
        ARGFRAME IOVERLAY, 0, STATIC
        ARGFRAME DOVERLAY, 0, STATIC
        FUNCALL SampleApp_MessageMSGCB, HalLedBlink
        LOCFRAME ISTACK, 0, STACK
        LOCFRAME PSTACK, 0, STACK
        LOCFRAME XSTACK, 36, STACK
        LOCFRAME IOVERLAY, 0, STATIC
        LOCFRAME DOVERLAY, 0, STATIC
        ARGFRAME ISTACK, 0, STACK
        ARGFRAME PSTACK, 0, STACK
        ARGFRAME XSTACK, 36, STACK
        ARGFRAME IOVERLAY, 0, STATIC
        ARGFRAME DOVERLAY, 0, STATIC
        MOV     A,#-0x10
        LCALL   ?BANKED_ENTER_XDATA
        CFI DPH0 load(1, XDATA, add(CFA_XSP16, literal(-1)))
        CFI DPL0 load(1, XDATA, add(CFA_XSP16, literal(-2)))
        CFI ?BRET_EXT load(1, XDATA, add(CFA_XSP16, literal(-3)))
        CFI ?RET_HIGH load(1, XDATA, add(CFA_XSP16, literal(-4)))
        CFI ?RET_LOW load(1, XDATA, add(CFA_XSP16, literal(-5)))
        CFI R7 load(1, XDATA, add(CFA_XSP16, literal(-6)))
        CFI V7 load(1, XDATA, add(CFA_XSP16, literal(-7)))
        CFI V6 load(1, XDATA, add(CFA_XSP16, literal(-8)))
        CFI V5 load(1, XDATA, add(CFA_XSP16, literal(-9)))
        CFI V4 load(1, XDATA, add(CFA_XSP16, literal(-10)))
        CFI V3 load(1, XDATA, add(CFA_XSP16, literal(-11)))
        CFI V2 load(1, XDATA, add(CFA_XSP16, literal(-12)))
        CFI V1 load(1, XDATA, add(CFA_XSP16, literal(-13)))
        CFI V0 load(1, XDATA, add(CFA_XSP16, literal(-14)))
        CFI VB load(1, XDATA, add(CFA_XSP16, literal(-15)))
        CFI R6 load(1, XDATA, add(CFA_XSP16, literal(-16)))
        CFI CFA_SP SP+0
        CFI CFA_XSP16 add(XSP16, 16)
        ; Saved register size: 16
        ; Auto size: 20
        MOV     A,#-0x14
        LCALL   ?ALLOC_XSTACK8
        CFI CFA_XSP16 add(XSP16, 36)
        MOV     A,R2
        MOV     R6,A
        MOV     A,R3
        MOV     R7,A
//  527   uint16 flashTime;
//  528 //******************初始化参数************************************************//  
//  529   uint8 data[10]={0};                                            //接收数据缓存数组
        MOV     DPL,?XSP + 0
        MOV     DPH,?XSP + 1
        MOV     R4,DPL
        MOV     R5,DPH
        MOV     DPH,#(`?<Constant {0}>` >> 8) & 0xff
        MOV     DPL,#`?<Constant {0}>` & 0xff
        MOV     A,#0xa
        LCALL   ?MOVE_LONG8_XDATA_XDATA
//  530   uint8 datacmp[10]={0};                                         //数据比较数组
        MOV     A,#0xa
        LCALL   ?XSTACK_DISP0_8
        MOV     R4,DPL
        MOV     R5,DPH
        MOV     DPH,#(`?<Constant {0}>_1` >> 8) & 0xff
        MOV     DPL,#`?<Constant {0}>_1` & 0xff
        MOV     A,#0xa
        LCALL   ?MOVE_LONG8_XDATA_XDATA
//  531   osal_memcpy(datacmp, "D", 1);                                  //数据首位为'D'
        ; Setup parameters for call to function osal_memcpy
        MOV     ?V0 + 0,#`?<Constant "D">` & 0xff
        MOV     ?V0 + 1,#(`?<Constant "D">` >> 8) & 0xff
        MOV     ?V0 + 2,A
        MOV     R0,#?V0 + 0
        LCALL   ?PUSH_XSTACK_I_THREE
        CFI CFA_XSP16 add(XSP16, 39)
        MOV     R4,#0x1
        MOV     R5,#0x0
        MOV     A,#0xd
        LCALL   ?XSTACK_DISP0_8
        LCALL   ?Subroutine8 & 0xFFFF
??CrossCallReturnLabel_40:
        LCALL   ?DEALLOC_XSTACK8
        CFI CFA_XSP16 add(XSP16, 36)
//  532   datacmp[1]=ADDR1;                                              //数据2位为地址ADDR1
        MOV     DPTR,#ADDR1
        MOVX    A,@DPTR
        PUSH    A
        CFI CFA_SP SP+-1
        MOV     A,#0xb
        LCALL   ?XSTACK_DISP0_8
        POP     A
        CFI CFA_SP SP+0
        MOVX    @DPTR,A
//  533   datacmp[2]=ADDR2;                                              //数据3位为地址ADDR2
        MOV     DPTR,#ADDR2
        MOVX    A,@DPTR
        PUSH    A
        CFI CFA_SP SP+-1
        MOV     A,#0xc
        LCALL   ?XSTACK_DISP0_8
        POP     A
        CFI CFA_SP SP+0
        MOVX    @DPTR,A
//  534   datacmp[3]=ADDR3;                                              //数据4位为地址ADDR3
        MOV     DPTR,#ADDR3
        MOVX    A,@DPTR
        PUSH    A
        CFI CFA_SP SP+-1
        MOV     A,#0xd
        LCALL   ?XSTACK_DISP0_8
        POP     A
        CFI CFA_SP SP+0
        MOVX    @DPTR,A
//  535   
//  536   switch ( pkt->clusterId )
        MOV     DPL,R6
        MOV     DPH,R7
        INC     DPTR
        INC     DPTR
        INC     DPTR
        INC     DPTR
        LCALL   ?Subroutine9 & 0xFFFF
??CrossCallReturnLabel_14:
        LCALL   ?US_SWITCH_DENSE
`?<Jumptable for SampleApp_MessageMSGCB>_0`:
        DATA
        DATA16
        DATA
        DATA16
        DW        1
        DATA
        DATA8
        DATA
        DATA8
        DB        1
        DATA
        DATA16
        DATA
        DATA16
        DW        ??SampleApp_MessageMSGCB_0
        DATA
        DATA16
        DATA
        DATA16
        DW        ??SampleApp_MessageMSGCB_1
        DATA
        DATA16
        DATA
        DATA16
        DW        ??SampleApp_MessageMSGCB_2
        CODE
//  537   {
//  538 //*************数据处理部分***************************************************//
//  539     case SAMPLEAPP_PERIODIC_CLUSTERID:                            
//  540       osal_memcpy(data,pkt->cmd.Data,pkt->cmd.DataLength);       //将数据缓存至数组data   
??SampleApp_MessageMSGCB_1:
        ; Setup parameters for call to function osal_memcpy
        LCALL   ?Subroutine16 & 0xFFFF
??CrossCallReturnLabel_27:
        LCALL   ?Subroutine9 & 0xFFFF
??CrossCallReturnLabel_15:
        LCALL   ?PUSH_XSTACK_I_THREE
        CFI CFA_XSP16 add(XSP16, 39)
        LCALL   ?Subroutine15 & 0xFFFF
??CrossCallReturnLabel_25:
        MOV     R4,A
        INC     DPTR
        MOVX    A,@DPTR
        MOV     R5,A
        MOV     A,#0x3
        LCALL   ?XSTACK_DISP0_8
        LCALL   ?Subroutine8 & 0xFFFF
??CrossCallReturnLabel_41:
        LCALL   ?DEALLOC_XSTACK8
        CFI CFA_XSP16 add(XSP16, 36)
//  541       if(osal_memcmp(datacmp,data,4) && (pkt->cmd.DataLength==9))//时钟同步和模式数据 9位
        ; Setup parameters for call to function osal_memcmp
        MOV     DPL,?XSP + 0
        MOV     DPH,?XSP + 1
        MOV     R1,DPL
        MOV     R2,DPH
        MOV     ?V0 + 0,R1
        MOV     ?V0 + 1,R2
        MOV     R0,#?V0 + 0
        LCALL   ?PUSH_XSTACK_I_THREE
        CFI CFA_XSP16 add(XSP16, 39)
        MOV     R4,#0x4
        MOV     R5,#0x0
        MOV     A,#0xd
        LCALL   ?XSTACK_DISP0_8
        MOV     R1,DPL
        MOV     R2,DPH
        MOV     R3,#0x0
        LCALL   ??osal_memcmp?relay
        MOV     A,#0x3
        LCALL   ?DEALLOC_XSTACK8
        CFI CFA_XSP16 add(XSP16, 36)
        MOV     A,R1
        JNZ     $+5
        LJMP    ??SampleApp_MessageMSGCB_0 & 0xFFFF
        LCALL   ?Subroutine15 & 0xFFFF
??CrossCallReturnLabel_26:
        XRL     A,#0x9
        JNZ     ??SampleApp_MessageMSGCB_3
        INC     DPTR
        MOVX    A,@DPTR
??SampleApp_MessageMSGCB_3:
        JZ      $+5
        LJMP    ??SampleApp_MessageMSGCB_0 & 0xFFFF
//  542       { 
//  543          osal_systemClock=(((uint32)data[4])<<24)+(((uint32)data[5])<<16)+(((uint32)data[6])<<8)+(data[7]);
        MOV     A,#0x4
        LCALL   ?XSTACK_DISP0_8
        MOVX    A,@DPTR
        MOV     ?V0 + 0,A
        CLR     A
        MOV     ?V0 + 1,A
        MOV     ?V0 + 3,A
        MOV     A,#0x18
        MOV     R0,#?V0 + 0
        LCALL   ?L_SHL
        MOV     A,#0x5
        LCALL   ?XSTACK_DISP0_8
        MOVX    A,@DPTR
        MOV     ?V0 + 4,A
        CLR     A
        MOV     ?V0 + 5,A
        MOV     ?V0 + 6,A
        MOV     ?V0 + 7,A
        MOV     A,#0x10
        MOV     R0,#?V0 + 4
        LCALL   ?L_SHL
        MOV     R0,#?V0 + 0
        MOV     R1,#?V0 + 4
        LCALL   ?L_ADD
        MOV     A,#0x6
        LCALL   ?XSTACK_DISP0_8
        MOVX    A,@DPTR
        MOV     ?V0 + 4,A
        CLR     A
        MOV     ?V0 + 6,A
        MOV     A,#0x8
        MOV     R0,#?V0 + 4
        LCALL   ?L_SHL
        MOV     R0,#?V0 + 0
        MOV     R1,#?V0 + 4
        LCALL   ?L_ADD
        MOV     A,#0x7
        LCALL   ?XSTACK_DISP0_8
        MOVX    A,@DPTR
        MOV     ?V0 + 4,A
        CLR     A
        MOV     ?V0 + 5,A
        MOV     R0,#?V0 + 0
        MOV     R1,#?V0 + 4
        LCALL   ?L_ADD
        MOV     DPTR,#osal_systemClock
        MOV     R0,#?V0 + 0
        LCALL   ?L_MOV_TO_X
//  544          Mode=data[8];                                           //前8位为时钟数据 第9位为工作模式
        MOV     A,#0x8
        LCALL   ?XSTACK_DISP0_8
        MOVX    A,@DPTR
        MOV     DPTR,#Mode
        MOVX    @DPTR,A
//  545          pf = 1;                                                 //时钟同步完成 pf置1
        MOV     DPTR,#pf
        MOV     A,#0x1
        MOVX    @DPTR,A
        SJMP    ??SampleApp_MessageMSGCB_0
//  546       }
//  547       break;
//  548       
//  549     case SAMPLEAPP_P2P_CLUSTERID:
//  550 
//  551       break;  
//  552       
//  553     case SAMPLEAPP_FLASH_CLUSTERID:
//  554       flashTime = BUILD_UINT16(pkt->cmd.Data[1], pkt->cmd.Data[2] );
//  555       HalLedBlink( HAL_LED_4, 4, 50, (flashTime / 4) );
??SampleApp_MessageMSGCB_2:
        LCALL   ?Subroutine16 & 0xFFFF
??CrossCallReturnLabel_28:
        MOVX    A,@DPTR
        MOV     R0,A
        INC     DPTR
        MOVX    A,@DPTR
        MOV     R1,A
        ; Setup parameters for call to function HalLedBlink
        MOV     DPL,R0
        MOV     DPH,R1
        INC     DPTR
        MOVX    A,@DPTR
        MOV     R2,A
        MOV     DPL,R0
        MOV     DPH,R1
        INC     DPTR
        INC     DPTR
        MOVX    A,@DPTR
        MOV     R1,A
        MOV     A,R2
        ADD     A,#0x0
        MOV     ?V0 + 0,A
        CLR     A
        ADDC    A,R1
        MOV     ?V0 + 1,A
        MOV     A,#0x2
        MOV     R0,#?V0 + 0
        LCALL   ?US_SHR
        MOV     R4,?V0 + 0
        MOV     R5,?V0 + 1
        MOV     R3,#0x32
        MOV     R2,#0x4
        MOV     R1,#0x8
        LCALL   ??HalLedBlink?relay
//  556       break;
//  557   }
//  558 }
??SampleApp_MessageMSGCB_0:
        MOV     A,#0x14
        CFI EndBlock cfiBlock23
        REQUIRE ?Subroutine1
        ; // Fall through to label ?Subroutine1

        RSEG BANKED_CODE:CODE:NOROOT(0)
?Subroutine1:
        CFI Block cfiBlock24 Using cfiCommon0
        CFI NoFunction
        CFI CFA_SP SP+0
        CFI CFA_XSP16 add(XSP16, 36)
        CFI VB load(1, XDATA, add(CFA_XSP16, literal(-15)))
        CFI DPL0 load(1, XDATA, add(CFA_XSP16, literal(-2)))
        CFI DPH0 load(1, XDATA, add(CFA_XSP16, literal(-1)))
        CFI R6 load(1, XDATA, add(CFA_XSP16, literal(-16)))
        CFI R7 load(1, XDATA, add(CFA_XSP16, literal(-6)))
        CFI V0 load(1, XDATA, add(CFA_XSP16, literal(-14)))
        CFI V1 load(1, XDATA, add(CFA_XSP16, literal(-13)))
        CFI V2 load(1, XDATA, add(CFA_XSP16, literal(-12)))
        CFI V3 load(1, XDATA, add(CFA_XSP16, literal(-11)))
        CFI V4 load(1, XDATA, add(CFA_XSP16, literal(-10)))
        CFI V5 load(1, XDATA, add(CFA_XSP16, literal(-9)))
        CFI V6 load(1, XDATA, add(CFA_XSP16, literal(-8)))
        CFI V7 load(1, XDATA, add(CFA_XSP16, literal(-7)))
        CFI ?BRET_EXT load(1, XDATA, add(CFA_XSP16, literal(-3)))
        CFI ?RET_HIGH load(1, XDATA, add(CFA_XSP16, literal(-4)))
        CFI ?RET_LOW load(1, XDATA, add(CFA_XSP16, literal(-5)))
        CFI Invalid
        LCALL   ?DEALLOC_XSTACK8
        CFI CFA_XSP16 add(XSP16, 16)
        CFI Valid
        MOV     R7,#0x8
        LJMP    ?BANKED_LEAVE_XDATA
        CFI EndBlock cfiBlock24

        RSEG BANKED_CODE:CODE:NOROOT(0)
?Subroutine16:
        CFI Block cfiCond25 Using cfiCommon0
        CFI NoFunction
        CFI Conditional ??CrossCallReturnLabel_27
        CFI R6 load(1, XDATA, add(CFA_XSP16, literal(-16)))
        CFI VB load(1, XDATA, add(CFA_XSP16, literal(-15)))
        CFI V0 load(1, XDATA, add(CFA_XSP16, literal(-14)))
        CFI V1 load(1, XDATA, add(CFA_XSP16, literal(-13)))
        CFI V2 load(1, XDATA, add(CFA_XSP16, literal(-12)))
        CFI V3 load(1, XDATA, add(CFA_XSP16, literal(-11)))
        CFI V4 load(1, XDATA, add(CFA_XSP16, literal(-10)))
        CFI V5 load(1, XDATA, add(CFA_XSP16, literal(-9)))
        CFI V6 load(1, XDATA, add(CFA_XSP16, literal(-8)))
        CFI V7 load(1, XDATA, add(CFA_XSP16, literal(-7)))
        CFI R7 load(1, XDATA, add(CFA_XSP16, literal(-6)))
        CFI ?RET_LOW load(1, XDATA, add(CFA_XSP16, literal(-5)))
        CFI ?RET_HIGH load(1, XDATA, add(CFA_XSP16, literal(-4)))
        CFI ?BRET_EXT load(1, XDATA, add(CFA_XSP16, literal(-3)))
        CFI DPL0 load(1, XDATA, add(CFA_XSP16, literal(-2)))
        CFI DPH0 load(1, XDATA, add(CFA_XSP16, literal(-1)))
        CFI CFA_SP SP+0
        CFI CFA_XSP16 add(XSP16, 36)
        CFI Block cfiCond26 Using cfiCommon0
        CFI (cfiCond26) NoFunction
        CFI (cfiCond26) Conditional ??CrossCallReturnLabel_28
        CFI (cfiCond26) R6 load(1, XDATA, add(CFA_XSP16, literal(-16)))
        CFI (cfiCond26) VB load(1, XDATA, add(CFA_XSP16, literal(-15)))
        CFI (cfiCond26) V0 load(1, XDATA, add(CFA_XSP16, literal(-14)))
        CFI (cfiCond26) V1 load(1, XDATA, add(CFA_XSP16, literal(-13)))
        CFI (cfiCond26) V2 load(1, XDATA, add(CFA_XSP16, literal(-12)))
        CFI (cfiCond26) V3 load(1, XDATA, add(CFA_XSP16, literal(-11)))
        CFI (cfiCond26) V4 load(1, XDATA, add(CFA_XSP16, literal(-10)))
        CFI (cfiCond26) V5 load(1, XDATA, add(CFA_XSP16, literal(-9)))
        CFI (cfiCond26) V6 load(1, XDATA, add(CFA_XSP16, literal(-8)))
        CFI (cfiCond26) V7 load(1, XDATA, add(CFA_XSP16, literal(-7)))
        CFI (cfiCond26) R7 load(1, XDATA, add(CFA_XSP16, literal(-6)))
        CFI (cfiCond26) ?RET_LOW load(1, XDATA, add(CFA_XSP16, literal(-5)))
        CFI (cfiCond26) ?RET_HIGH load(1, XDATA, add(CFA_XSP16, literal(-4)))
        CFI (cfiCond26) ?BRET_EXT load(1, XDATA, add(CFA_XSP16, literal(-3)))
        CFI (cfiCond26) DPL0 load(1, XDATA, add(CFA_XSP16, literal(-2)))
        CFI (cfiCond26) DPH0 load(1, XDATA, add(CFA_XSP16, literal(-1)))
        CFI (cfiCond26) CFA_SP SP+0
        CFI (cfiCond26) CFA_XSP16 add(XSP16, 36)
        CFI Block cfiPicker27 Using cfiCommon1
        CFI (cfiPicker27) NoFunction
        CFI (cfiPicker27) Picker
        MOV     A,R6
        ADD     A,#0x22
        MOV     DPL,A
        MOV     A,R7
        ADDC    A,#0x0
        MOV     DPH,A
        RET
        CFI EndBlock cfiCond25
        CFI EndBlock cfiCond26
        CFI EndBlock cfiPicker27

        RSEG BANKED_CODE:CODE:NOROOT(0)
?Subroutine15:
        CFI Block cfiCond28 Using cfiCommon0
        CFI NoFunction
        CFI Conditional ??CrossCallReturnLabel_25
        CFI R6 load(1, XDATA, add(CFA_XSP16, literal(-16)))
        CFI VB load(1, XDATA, add(CFA_XSP16, literal(-15)))
        CFI V0 load(1, XDATA, add(CFA_XSP16, literal(-14)))
        CFI V1 load(1, XDATA, add(CFA_XSP16, literal(-13)))
        CFI V2 load(1, XDATA, add(CFA_XSP16, literal(-12)))
        CFI V3 load(1, XDATA, add(CFA_XSP16, literal(-11)))
        CFI V4 load(1, XDATA, add(CFA_XSP16, literal(-10)))
        CFI V5 load(1, XDATA, add(CFA_XSP16, literal(-9)))
        CFI V6 load(1, XDATA, add(CFA_XSP16, literal(-8)))
        CFI V7 load(1, XDATA, add(CFA_XSP16, literal(-7)))
        CFI R7 load(1, XDATA, add(CFA_XSP16, literal(-6)))
        CFI ?RET_LOW load(1, XDATA, add(CFA_XSP16, literal(-5)))
        CFI ?RET_HIGH load(1, XDATA, add(CFA_XSP16, literal(-4)))
        CFI ?BRET_EXT load(1, XDATA, add(CFA_XSP16, literal(-3)))
        CFI DPL0 load(1, XDATA, add(CFA_XSP16, literal(-2)))
        CFI DPH0 load(1, XDATA, add(CFA_XSP16, literal(-1)))
        CFI CFA_SP SP+0
        CFI CFA_XSP16 add(XSP16, 39)
        CFI Block cfiCond29 Using cfiCommon0
        CFI (cfiCond29) NoFunction
        CFI (cfiCond29) Conditional ??CrossCallReturnLabel_26
        CFI (cfiCond29) R6 load(1, XDATA, add(CFA_XSP16, literal(-16)))
        CFI (cfiCond29) VB load(1, XDATA, add(CFA_XSP16, literal(-15)))
        CFI (cfiCond29) V0 load(1, XDATA, add(CFA_XSP16, literal(-14)))
        CFI (cfiCond29) V1 load(1, XDATA, add(CFA_XSP16, literal(-13)))
        CFI (cfiCond29) V2 load(1, XDATA, add(CFA_XSP16, literal(-12)))
        CFI (cfiCond29) V3 load(1, XDATA, add(CFA_XSP16, literal(-11)))
        CFI (cfiCond29) V4 load(1, XDATA, add(CFA_XSP16, literal(-10)))
        CFI (cfiCond29) V5 load(1, XDATA, add(CFA_XSP16, literal(-9)))
        CFI (cfiCond29) V6 load(1, XDATA, add(CFA_XSP16, literal(-8)))
        CFI (cfiCond29) V7 load(1, XDATA, add(CFA_XSP16, literal(-7)))
        CFI (cfiCond29) R7 load(1, XDATA, add(CFA_XSP16, literal(-6)))
        CFI (cfiCond29) ?RET_LOW load(1, XDATA, add(CFA_XSP16, literal(-5)))
        CFI (cfiCond29) ?RET_HIGH load(1, XDATA, add(CFA_XSP16, literal(-4)))
        CFI (cfiCond29) ?BRET_EXT load(1, XDATA, add(CFA_XSP16, literal(-3)))
        CFI (cfiCond29) DPL0 load(1, XDATA, add(CFA_XSP16, literal(-2)))
        CFI (cfiCond29) DPH0 load(1, XDATA, add(CFA_XSP16, literal(-1)))
        CFI (cfiCond29) CFA_SP SP+0
        CFI (cfiCond29) CFA_XSP16 add(XSP16, 36)
        CFI Block cfiPicker30 Using cfiCommon1
        CFI (cfiPicker30) NoFunction
        CFI (cfiPicker30) Picker
        MOV     A,R6
        ADD     A,#0x20
        MOV     DPL,A
        MOV     A,R7
        ADDC    A,#0x0
        MOV     DPH,A
        MOVX    A,@DPTR
        RET
        CFI EndBlock cfiCond28
        CFI EndBlock cfiCond29
        CFI EndBlock cfiPicker30

        RSEG BANKED_CODE:CODE:NOROOT(0)
?Subroutine9:
        CFI Block cfiCond31 Using cfiCommon0
        CFI NoFunction
        CFI Conditional ??CrossCallReturnLabel_14
        CFI R6 load(1, XDATA, add(CFA_XSP16, literal(-16)))
        CFI VB load(1, XDATA, add(CFA_XSP16, literal(-15)))
        CFI V0 load(1, XDATA, add(CFA_XSP16, literal(-14)))
        CFI V1 load(1, XDATA, add(CFA_XSP16, literal(-13)))
        CFI V2 load(1, XDATA, add(CFA_XSP16, literal(-12)))
        CFI V3 load(1, XDATA, add(CFA_XSP16, literal(-11)))
        CFI V4 load(1, XDATA, add(CFA_XSP16, literal(-10)))
        CFI V5 load(1, XDATA, add(CFA_XSP16, literal(-9)))
        CFI V6 load(1, XDATA, add(CFA_XSP16, literal(-8)))
        CFI V7 load(1, XDATA, add(CFA_XSP16, literal(-7)))
        CFI R7 load(1, XDATA, add(CFA_XSP16, literal(-6)))
        CFI ?RET_LOW load(1, XDATA, add(CFA_XSP16, literal(-5)))
        CFI ?RET_HIGH load(1, XDATA, add(CFA_XSP16, literal(-4)))
        CFI ?BRET_EXT load(1, XDATA, add(CFA_XSP16, literal(-3)))
        CFI DPL0 load(1, XDATA, add(CFA_XSP16, literal(-2)))
        CFI DPH0 load(1, XDATA, add(CFA_XSP16, literal(-1)))
        CFI CFA_SP SP+0
        CFI CFA_XSP16 add(XSP16, 36)
        CFI Block cfiCond32 Using cfiCommon0
        CFI (cfiCond32) NoFunction
        CFI (cfiCond32) Conditional ??CrossCallReturnLabel_15
        CFI (cfiCond32) R6 load(1, XDATA, add(CFA_XSP16, literal(-16)))
        CFI (cfiCond32) VB load(1, XDATA, add(CFA_XSP16, literal(-15)))
        CFI (cfiCond32) V0 load(1, XDATA, add(CFA_XSP16, literal(-14)))
        CFI (cfiCond32) V1 load(1, XDATA, add(CFA_XSP16, literal(-13)))
        CFI (cfiCond32) V2 load(1, XDATA, add(CFA_XSP16, literal(-12)))
        CFI (cfiCond32) V3 load(1, XDATA, add(CFA_XSP16, literal(-11)))
        CFI (cfiCond32) V4 load(1, XDATA, add(CFA_XSP16, literal(-10)))
        CFI (cfiCond32) V5 load(1, XDATA, add(CFA_XSP16, literal(-9)))
        CFI (cfiCond32) V6 load(1, XDATA, add(CFA_XSP16, literal(-8)))
        CFI (cfiCond32) V7 load(1, XDATA, add(CFA_XSP16, literal(-7)))
        CFI (cfiCond32) R7 load(1, XDATA, add(CFA_XSP16, literal(-6)))
        CFI (cfiCond32) ?RET_LOW load(1, XDATA, add(CFA_XSP16, literal(-5)))
        CFI (cfiCond32) ?RET_HIGH load(1, XDATA, add(CFA_XSP16, literal(-4)))
        CFI (cfiCond32) ?BRET_EXT load(1, XDATA, add(CFA_XSP16, literal(-3)))
        CFI (cfiCond32) DPL0 load(1, XDATA, add(CFA_XSP16, literal(-2)))
        CFI (cfiCond32) DPH0 load(1, XDATA, add(CFA_XSP16, literal(-1)))
        CFI (cfiCond32) CFA_SP SP+0
        CFI (cfiCond32) CFA_XSP16 add(XSP16, 36)
        CFI Block cfiPicker33 Using cfiCommon1
        CFI (cfiPicker33) NoFunction
        CFI (cfiPicker33) Picker
        MOVX    A,@DPTR
        MOV     ?V0 + 0,A
        INC     DPTR
        MOVX    A,@DPTR
        MOV     ?V0 + 1,A
        MOV     R0,#?V0 + 0
        RET
        CFI EndBlock cfiCond31
        CFI EndBlock cfiCond32
        CFI EndBlock cfiPicker33

        RSEG BANKED_CODE:CODE:NOROOT(0)
?Subroutine8:
        CFI Block cfiCond34 Using cfiCommon0
        CFI NoFunction
        CFI Conditional ??CrossCallReturnLabel_40
        CFI R6 load(1, XDATA, add(CFA_XSP16, literal(-16)))
        CFI VB load(1, XDATA, add(CFA_XSP16, literal(-15)))
        CFI V0 load(1, XDATA, add(CFA_XSP16, literal(-14)))
        CFI V1 load(1, XDATA, add(CFA_XSP16, literal(-13)))
        CFI V2 load(1, XDATA, add(CFA_XSP16, literal(-12)))
        CFI V3 load(1, XDATA, add(CFA_XSP16, literal(-11)))
        CFI V4 load(1, XDATA, add(CFA_XSP16, literal(-10)))
        CFI V5 load(1, XDATA, add(CFA_XSP16, literal(-9)))
        CFI V6 load(1, XDATA, add(CFA_XSP16, literal(-8)))
        CFI V7 load(1, XDATA, add(CFA_XSP16, literal(-7)))
        CFI R7 load(1, XDATA, add(CFA_XSP16, literal(-6)))
        CFI ?RET_LOW load(1, XDATA, add(CFA_XSP16, literal(-5)))
        CFI ?RET_HIGH load(1, XDATA, add(CFA_XSP16, literal(-4)))
        CFI ?BRET_EXT load(1, XDATA, add(CFA_XSP16, literal(-3)))
        CFI DPL0 load(1, XDATA, add(CFA_XSP16, literal(-2)))
        CFI DPH0 load(1, XDATA, add(CFA_XSP16, literal(-1)))
        CFI CFA_SP SP+0
        CFI CFA_XSP16 add(XSP16, 39)
        CFI Block cfiCond35 Using cfiCommon0
        CFI (cfiCond35) NoFunction
        CFI (cfiCond35) Conditional ??CrossCallReturnLabel_41
        CFI (cfiCond35) R6 load(1, XDATA, add(CFA_XSP16, literal(-16)))
        CFI (cfiCond35) VB load(1, XDATA, add(CFA_XSP16, literal(-15)))
        CFI (cfiCond35) V0 load(1, XDATA, add(CFA_XSP16, literal(-14)))
        CFI (cfiCond35) V1 load(1, XDATA, add(CFA_XSP16, literal(-13)))
        CFI (cfiCond35) V2 load(1, XDATA, add(CFA_XSP16, literal(-12)))
        CFI (cfiCond35) V3 load(1, XDATA, add(CFA_XSP16, literal(-11)))
        CFI (cfiCond35) V4 load(1, XDATA, add(CFA_XSP16, literal(-10)))
        CFI (cfiCond35) V5 load(1, XDATA, add(CFA_XSP16, literal(-9)))
        CFI (cfiCond35) V6 load(1, XDATA, add(CFA_XSP16, literal(-8)))
        CFI (cfiCond35) V7 load(1, XDATA, add(CFA_XSP16, literal(-7)))
        CFI (cfiCond35) R7 load(1, XDATA, add(CFA_XSP16, literal(-6)))
        CFI (cfiCond35) ?RET_LOW load(1, XDATA, add(CFA_XSP16, literal(-5)))
        CFI (cfiCond35) ?RET_HIGH load(1, XDATA, add(CFA_XSP16, literal(-4)))
        CFI (cfiCond35) ?BRET_EXT load(1, XDATA, add(CFA_XSP16, literal(-3)))
        CFI (cfiCond35) DPL0 load(1, XDATA, add(CFA_XSP16, literal(-2)))
        CFI (cfiCond35) DPH0 load(1, XDATA, add(CFA_XSP16, literal(-1)))
        CFI (cfiCond35) CFA_SP SP+0
        CFI (cfiCond35) CFA_XSP16 add(XSP16, 39)
        CFI Block cfiCond36 Using cfiCommon0
        CFI (cfiCond36) NoFunction
        CFI (cfiCond36) Conditional ??CrossCallReturnLabel_42
        CFI (cfiCond36) R6 load(1, XDATA, add(CFA_XSP16, literal(-16)))
        CFI (cfiCond36) VB load(1, XDATA, add(CFA_XSP16, literal(-15)))
        CFI (cfiCond36) V0 load(1, XDATA, add(CFA_XSP16, literal(-14)))
        CFI (cfiCond36) V1 load(1, XDATA, add(CFA_XSP16, literal(-13)))
        CFI (cfiCond36) V2 load(1, XDATA, add(CFA_XSP16, literal(-12)))
        CFI (cfiCond36) V3 load(1, XDATA, add(CFA_XSP16, literal(-11)))
        CFI (cfiCond36) V4 load(1, XDATA, add(CFA_XSP16, literal(-10)))
        CFI (cfiCond36) V5 load(1, XDATA, add(CFA_XSP16, literal(-9)))
        CFI (cfiCond36) V6 load(1, XDATA, add(CFA_XSP16, literal(-8)))
        CFI (cfiCond36) V7 load(1, XDATA, add(CFA_XSP16, literal(-7)))
        CFI (cfiCond36) R7 load(1, XDATA, add(CFA_XSP16, literal(-6)))
        CFI (cfiCond36) ?RET_LOW load(1, XDATA, add(CFA_XSP16, literal(-5)))
        CFI (cfiCond36) ?RET_HIGH load(1, XDATA, add(CFA_XSP16, literal(-4)))
        CFI (cfiCond36) ?BRET_EXT load(1, XDATA, add(CFA_XSP16, literal(-3)))
        CFI (cfiCond36) DPL0 load(1, XDATA, add(CFA_XSP16, literal(-2)))
        CFI (cfiCond36) DPH0 load(1, XDATA, add(CFA_XSP16, literal(-1)))
        CFI (cfiCond36) CFA_SP SP+0
        CFI (cfiCond36) CFA_XSP16 add(XSP16, 80)
        CFI Block cfiCond37 Using cfiCommon0
        CFI (cfiCond37) NoFunction
        CFI (cfiCond37) Conditional ??CrossCallReturnLabel_43
        CFI (cfiCond37) R6 load(1, XDATA, add(CFA_XSP16, literal(-16)))
        CFI (cfiCond37) VB load(1, XDATA, add(CFA_XSP16, literal(-15)))
        CFI (cfiCond37) V0 load(1, XDATA, add(CFA_XSP16, literal(-14)))
        CFI (cfiCond37) V1 load(1, XDATA, add(CFA_XSP16, literal(-13)))
        CFI (cfiCond37) V2 load(1, XDATA, add(CFA_XSP16, literal(-12)))
        CFI (cfiCond37) V3 load(1, XDATA, add(CFA_XSP16, literal(-11)))
        CFI (cfiCond37) V4 load(1, XDATA, add(CFA_XSP16, literal(-10)))
        CFI (cfiCond37) V5 load(1, XDATA, add(CFA_XSP16, literal(-9)))
        CFI (cfiCond37) V6 load(1, XDATA, add(CFA_XSP16, literal(-8)))
        CFI (cfiCond37) V7 load(1, XDATA, add(CFA_XSP16, literal(-7)))
        CFI (cfiCond37) R7 load(1, XDATA, add(CFA_XSP16, literal(-6)))
        CFI (cfiCond37) ?RET_LOW load(1, XDATA, add(CFA_XSP16, literal(-5)))
        CFI (cfiCond37) ?RET_HIGH load(1, XDATA, add(CFA_XSP16, literal(-4)))
        CFI (cfiCond37) ?BRET_EXT load(1, XDATA, add(CFA_XSP16, literal(-3)))
        CFI (cfiCond37) DPL0 load(1, XDATA, add(CFA_XSP16, literal(-2)))
        CFI (cfiCond37) DPH0 load(1, XDATA, add(CFA_XSP16, literal(-1)))
        CFI (cfiCond37) CFA_SP SP+0
        CFI (cfiCond37) CFA_XSP16 add(XSP16, 80)
        CFI Block cfiCond38 Using cfiCommon0
        CFI (cfiCond38) NoFunction
        CFI (cfiCond38) Conditional ??CrossCallReturnLabel_44
        CFI (cfiCond38) R6 load(1, XDATA, add(CFA_XSP16, literal(-16)))
        CFI (cfiCond38) VB load(1, XDATA, add(CFA_XSP16, literal(-15)))
        CFI (cfiCond38) V0 load(1, XDATA, add(CFA_XSP16, literal(-14)))
        CFI (cfiCond38) V1 load(1, XDATA, add(CFA_XSP16, literal(-13)))
        CFI (cfiCond38) V2 load(1, XDATA, add(CFA_XSP16, literal(-12)))
        CFI (cfiCond38) V3 load(1, XDATA, add(CFA_XSP16, literal(-11)))
        CFI (cfiCond38) V4 load(1, XDATA, add(CFA_XSP16, literal(-10)))
        CFI (cfiCond38) V5 load(1, XDATA, add(CFA_XSP16, literal(-9)))
        CFI (cfiCond38) V6 load(1, XDATA, add(CFA_XSP16, literal(-8)))
        CFI (cfiCond38) V7 load(1, XDATA, add(CFA_XSP16, literal(-7)))
        CFI (cfiCond38) R7 load(1, XDATA, add(CFA_XSP16, literal(-6)))
        CFI (cfiCond38) ?RET_LOW load(1, XDATA, add(CFA_XSP16, literal(-5)))
        CFI (cfiCond38) ?RET_HIGH load(1, XDATA, add(CFA_XSP16, literal(-4)))
        CFI (cfiCond38) ?BRET_EXT load(1, XDATA, add(CFA_XSP16, literal(-3)))
        CFI (cfiCond38) DPL0 load(1, XDATA, add(CFA_XSP16, literal(-2)))
        CFI (cfiCond38) DPH0 load(1, XDATA, add(CFA_XSP16, literal(-1)))
        CFI (cfiCond38) CFA_SP SP+0
        CFI (cfiCond38) CFA_XSP16 add(XSP16, 80)
        CFI Block cfiCond39 Using cfiCommon0
        CFI (cfiCond39) NoFunction
        CFI (cfiCond39) Conditional ??CrossCallReturnLabel_45
        CFI (cfiCond39) R6 load(1, XDATA, add(CFA_XSP16, literal(-16)))
        CFI (cfiCond39) VB load(1, XDATA, add(CFA_XSP16, literal(-15)))
        CFI (cfiCond39) V0 load(1, XDATA, add(CFA_XSP16, literal(-14)))
        CFI (cfiCond39) V1 load(1, XDATA, add(CFA_XSP16, literal(-13)))
        CFI (cfiCond39) V2 load(1, XDATA, add(CFA_XSP16, literal(-12)))
        CFI (cfiCond39) V3 load(1, XDATA, add(CFA_XSP16, literal(-11)))
        CFI (cfiCond39) V4 load(1, XDATA, add(CFA_XSP16, literal(-10)))
        CFI (cfiCond39) V5 load(1, XDATA, add(CFA_XSP16, literal(-9)))
        CFI (cfiCond39) V6 load(1, XDATA, add(CFA_XSP16, literal(-8)))
        CFI (cfiCond39) V7 load(1, XDATA, add(CFA_XSP16, literal(-7)))
        CFI (cfiCond39) R7 load(1, XDATA, add(CFA_XSP16, literal(-6)))
        CFI (cfiCond39) ?RET_LOW load(1, XDATA, add(CFA_XSP16, literal(-5)))
        CFI (cfiCond39) ?RET_HIGH load(1, XDATA, add(CFA_XSP16, literal(-4)))
        CFI (cfiCond39) ?BRET_EXT load(1, XDATA, add(CFA_XSP16, literal(-3)))
        CFI (cfiCond39) DPL0 load(1, XDATA, add(CFA_XSP16, literal(-2)))
        CFI (cfiCond39) DPH0 load(1, XDATA, add(CFA_XSP16, literal(-1)))
        CFI (cfiCond39) CFA_SP SP+0
        CFI (cfiCond39) CFA_XSP16 add(XSP16, 80)
        CFI Block cfiCond40 Using cfiCommon0
        CFI (cfiCond40) NoFunction
        CFI (cfiCond40) Conditional ??CrossCallReturnLabel_46
        CFI (cfiCond40) R6 load(1, XDATA, add(CFA_XSP16, literal(-16)))
        CFI (cfiCond40) VB load(1, XDATA, add(CFA_XSP16, literal(-15)))
        CFI (cfiCond40) V0 load(1, XDATA, add(CFA_XSP16, literal(-14)))
        CFI (cfiCond40) V1 load(1, XDATA, add(CFA_XSP16, literal(-13)))
        CFI (cfiCond40) V2 load(1, XDATA, add(CFA_XSP16, literal(-12)))
        CFI (cfiCond40) V3 load(1, XDATA, add(CFA_XSP16, literal(-11)))
        CFI (cfiCond40) V4 load(1, XDATA, add(CFA_XSP16, literal(-10)))
        CFI (cfiCond40) V5 load(1, XDATA, add(CFA_XSP16, literal(-9)))
        CFI (cfiCond40) V6 load(1, XDATA, add(CFA_XSP16, literal(-8)))
        CFI (cfiCond40) V7 load(1, XDATA, add(CFA_XSP16, literal(-7)))
        CFI (cfiCond40) R7 load(1, XDATA, add(CFA_XSP16, literal(-6)))
        CFI (cfiCond40) ?RET_LOW load(1, XDATA, add(CFA_XSP16, literal(-5)))
        CFI (cfiCond40) ?RET_HIGH load(1, XDATA, add(CFA_XSP16, literal(-4)))
        CFI (cfiCond40) ?BRET_EXT load(1, XDATA, add(CFA_XSP16, literal(-3)))
        CFI (cfiCond40) DPL0 load(1, XDATA, add(CFA_XSP16, literal(-2)))
        CFI (cfiCond40) DPH0 load(1, XDATA, add(CFA_XSP16, literal(-1)))
        CFI (cfiCond40) CFA_SP SP+0
        CFI (cfiCond40) CFA_XSP16 add(XSP16, 80)
        CFI Block cfiCond41 Using cfiCommon0
        CFI (cfiCond41) NoFunction
        CFI (cfiCond41) Conditional ??CrossCallReturnLabel_47
        CFI (cfiCond41) R6 load(1, XDATA, add(CFA_XSP16, literal(-16)))
        CFI (cfiCond41) VB load(1, XDATA, add(CFA_XSP16, literal(-15)))
        CFI (cfiCond41) V0 load(1, XDATA, add(CFA_XSP16, literal(-14)))
        CFI (cfiCond41) V1 load(1, XDATA, add(CFA_XSP16, literal(-13)))
        CFI (cfiCond41) V2 load(1, XDATA, add(CFA_XSP16, literal(-12)))
        CFI (cfiCond41) V3 load(1, XDATA, add(CFA_XSP16, literal(-11)))
        CFI (cfiCond41) V4 load(1, XDATA, add(CFA_XSP16, literal(-10)))
        CFI (cfiCond41) V5 load(1, XDATA, add(CFA_XSP16, literal(-9)))
        CFI (cfiCond41) V6 load(1, XDATA, add(CFA_XSP16, literal(-8)))
        CFI (cfiCond41) V7 load(1, XDATA, add(CFA_XSP16, literal(-7)))
        CFI (cfiCond41) R7 load(1, XDATA, add(CFA_XSP16, literal(-6)))
        CFI (cfiCond41) ?RET_LOW load(1, XDATA, add(CFA_XSP16, literal(-5)))
        CFI (cfiCond41) ?RET_HIGH load(1, XDATA, add(CFA_XSP16, literal(-4)))
        CFI (cfiCond41) ?BRET_EXT load(1, XDATA, add(CFA_XSP16, literal(-3)))
        CFI (cfiCond41) DPL0 load(1, XDATA, add(CFA_XSP16, literal(-2)))
        CFI (cfiCond41) DPH0 load(1, XDATA, add(CFA_XSP16, literal(-1)))
        CFI (cfiCond41) CFA_SP SP+0
        CFI (cfiCond41) CFA_XSP16 add(XSP16, 80)
        CFI Block cfiCond42 Using cfiCommon0
        CFI (cfiCond42) NoFunction
        CFI (cfiCond42) Conditional ??CrossCallReturnLabel_48
        CFI (cfiCond42) R6 load(1, XDATA, add(CFA_XSP16, literal(-16)))
        CFI (cfiCond42) VB load(1, XDATA, add(CFA_XSP16, literal(-15)))
        CFI (cfiCond42) V0 load(1, XDATA, add(CFA_XSP16, literal(-14)))
        CFI (cfiCond42) V1 load(1, XDATA, add(CFA_XSP16, literal(-13)))
        CFI (cfiCond42) V2 load(1, XDATA, add(CFA_XSP16, literal(-12)))
        CFI (cfiCond42) V3 load(1, XDATA, add(CFA_XSP16, literal(-11)))
        CFI (cfiCond42) V4 load(1, XDATA, add(CFA_XSP16, literal(-10)))
        CFI (cfiCond42) V5 load(1, XDATA, add(CFA_XSP16, literal(-9)))
        CFI (cfiCond42) V6 load(1, XDATA, add(CFA_XSP16, literal(-8)))
        CFI (cfiCond42) V7 load(1, XDATA, add(CFA_XSP16, literal(-7)))
        CFI (cfiCond42) R7 load(1, XDATA, add(CFA_XSP16, literal(-6)))
        CFI (cfiCond42) ?RET_LOW load(1, XDATA, add(CFA_XSP16, literal(-5)))
        CFI (cfiCond42) ?RET_HIGH load(1, XDATA, add(CFA_XSP16, literal(-4)))
        CFI (cfiCond42) ?BRET_EXT load(1, XDATA, add(CFA_XSP16, literal(-3)))
        CFI (cfiCond42) DPL0 load(1, XDATA, add(CFA_XSP16, literal(-2)))
        CFI (cfiCond42) DPH0 load(1, XDATA, add(CFA_XSP16, literal(-1)))
        CFI (cfiCond42) CFA_SP SP+0
        CFI (cfiCond42) CFA_XSP16 add(XSP16, 80)
        CFI Block cfiPicker43 Using cfiCommon1
        CFI (cfiPicker43) NoFunction
        CFI (cfiPicker43) Picker
        MOV     R2,DPL
        MOV     R3,DPH
        CFI EndBlock cfiCond34
        CFI EndBlock cfiCond35
        CFI EndBlock cfiCond36
        CFI EndBlock cfiCond37
        CFI EndBlock cfiCond38
        CFI EndBlock cfiCond39
        CFI EndBlock cfiCond40
        CFI EndBlock cfiCond41
        CFI EndBlock cfiCond42
        CFI EndBlock cfiPicker43
        REQUIRE ??Subroutine21_0
        ; // Fall through to label ??Subroutine21_0

        RSEG BANKED_CODE:CODE:NOROOT(0)
??Subroutine21_0:
        CFI Block cfiCond44 Using cfiCommon0
        CFI NoFunction
        CFI Conditional ??CrossCallReturnLabel_49
        CFI R6 load(1, XDATA, add(CFA_XSP16, literal(-11)))
        CFI VB load(1, XDATA, add(CFA_XSP16, literal(-10)))
        CFI V0 load(1, XDATA, add(CFA_XSP16, literal(-9)))
        CFI V1 load(1, XDATA, add(CFA_XSP16, literal(-8)))
        CFI V2 load(1, XDATA, add(CFA_XSP16, literal(-7)))
        CFI R7 load(1, XDATA, add(CFA_XSP16, literal(-6)))
        CFI ?RET_LOW load(1, XDATA, add(CFA_XSP16, literal(-5)))
        CFI ?RET_HIGH load(1, XDATA, add(CFA_XSP16, literal(-4)))
        CFI ?BRET_EXT load(1, XDATA, add(CFA_XSP16, literal(-3)))
        CFI DPL0 load(1, XDATA, add(CFA_XSP16, literal(-2)))
        CFI DPH0 load(1, XDATA, add(CFA_XSP16, literal(-1)))
        CFI CFA_SP SP+0
        CFI CFA_XSP16 add(XSP16, 14)
        CFI Block cfiCond45 Using cfiCommon0
        CFI (cfiCond45) NoFunction
        CFI (cfiCond45) Conditional ??CrossCallReturnLabel_40
        CFI (cfiCond45) R6 load(1, XDATA, add(CFA_XSP16, literal(-16)))
        CFI (cfiCond45) VB load(1, XDATA, add(CFA_XSP16, literal(-15)))
        CFI (cfiCond45) V0 load(1, XDATA, add(CFA_XSP16, literal(-14)))
        CFI (cfiCond45) V1 load(1, XDATA, add(CFA_XSP16, literal(-13)))
        CFI (cfiCond45) V2 load(1, XDATA, add(CFA_XSP16, literal(-12)))
        CFI (cfiCond45) V3 load(1, XDATA, add(CFA_XSP16, literal(-11)))
        CFI (cfiCond45) V4 load(1, XDATA, add(CFA_XSP16, literal(-10)))
        CFI (cfiCond45) V5 load(1, XDATA, add(CFA_XSP16, literal(-9)))
        CFI (cfiCond45) V6 load(1, XDATA, add(CFA_XSP16, literal(-8)))
        CFI (cfiCond45) V7 load(1, XDATA, add(CFA_XSP16, literal(-7)))
        CFI (cfiCond45) R7 load(1, XDATA, add(CFA_XSP16, literal(-6)))
        CFI (cfiCond45) ?RET_LOW load(1, XDATA, add(CFA_XSP16, literal(-5)))
        CFI (cfiCond45) ?RET_HIGH load(1, XDATA, add(CFA_XSP16, literal(-4)))
        CFI (cfiCond45) ?BRET_EXT load(1, XDATA, add(CFA_XSP16, literal(-3)))
        CFI (cfiCond45) DPL0 load(1, XDATA, add(CFA_XSP16, literal(-2)))
        CFI (cfiCond45) DPH0 load(1, XDATA, add(CFA_XSP16, literal(-1)))
        CFI (cfiCond45) CFA_SP SP+0
        CFI (cfiCond45) CFA_XSP16 add(XSP16, 39)
        CFI Block cfiCond46 Using cfiCommon0
        CFI (cfiCond46) NoFunction
        CFI (cfiCond46) Conditional ??CrossCallReturnLabel_41
        CFI (cfiCond46) R6 load(1, XDATA, add(CFA_XSP16, literal(-16)))
        CFI (cfiCond46) VB load(1, XDATA, add(CFA_XSP16, literal(-15)))
        CFI (cfiCond46) V0 load(1, XDATA, add(CFA_XSP16, literal(-14)))
        CFI (cfiCond46) V1 load(1, XDATA, add(CFA_XSP16, literal(-13)))
        CFI (cfiCond46) V2 load(1, XDATA, add(CFA_XSP16, literal(-12)))
        CFI (cfiCond46) V3 load(1, XDATA, add(CFA_XSP16, literal(-11)))
        CFI (cfiCond46) V4 load(1, XDATA, add(CFA_XSP16, literal(-10)))
        CFI (cfiCond46) V5 load(1, XDATA, add(CFA_XSP16, literal(-9)))
        CFI (cfiCond46) V6 load(1, XDATA, add(CFA_XSP16, literal(-8)))
        CFI (cfiCond46) V7 load(1, XDATA, add(CFA_XSP16, literal(-7)))
        CFI (cfiCond46) R7 load(1, XDATA, add(CFA_XSP16, literal(-6)))
        CFI (cfiCond46) ?RET_LOW load(1, XDATA, add(CFA_XSP16, literal(-5)))
        CFI (cfiCond46) ?RET_HIGH load(1, XDATA, add(CFA_XSP16, literal(-4)))
        CFI (cfiCond46) ?BRET_EXT load(1, XDATA, add(CFA_XSP16, literal(-3)))
        CFI (cfiCond46) DPL0 load(1, XDATA, add(CFA_XSP16, literal(-2)))
        CFI (cfiCond46) DPH0 load(1, XDATA, add(CFA_XSP16, literal(-1)))
        CFI (cfiCond46) CFA_SP SP+0
        CFI (cfiCond46) CFA_XSP16 add(XSP16, 39)
        CFI Block cfiCond47 Using cfiCommon0
        CFI (cfiCond47) NoFunction
        CFI (cfiCond47) Conditional ??CrossCallReturnLabel_42
        CFI (cfiCond47) R6 load(1, XDATA, add(CFA_XSP16, literal(-16)))
        CFI (cfiCond47) VB load(1, XDATA, add(CFA_XSP16, literal(-15)))
        CFI (cfiCond47) V0 load(1, XDATA, add(CFA_XSP16, literal(-14)))
        CFI (cfiCond47) V1 load(1, XDATA, add(CFA_XSP16, literal(-13)))
        CFI (cfiCond47) V2 load(1, XDATA, add(CFA_XSP16, literal(-12)))
        CFI (cfiCond47) V3 load(1, XDATA, add(CFA_XSP16, literal(-11)))
        CFI (cfiCond47) V4 load(1, XDATA, add(CFA_XSP16, literal(-10)))
        CFI (cfiCond47) V5 load(1, XDATA, add(CFA_XSP16, literal(-9)))
        CFI (cfiCond47) V6 load(1, XDATA, add(CFA_XSP16, literal(-8)))
        CFI (cfiCond47) V7 load(1, XDATA, add(CFA_XSP16, literal(-7)))
        CFI (cfiCond47) R7 load(1, XDATA, add(CFA_XSP16, literal(-6)))
        CFI (cfiCond47) ?RET_LOW load(1, XDATA, add(CFA_XSP16, literal(-5)))
        CFI (cfiCond47) ?RET_HIGH load(1, XDATA, add(CFA_XSP16, literal(-4)))
        CFI (cfiCond47) ?BRET_EXT load(1, XDATA, add(CFA_XSP16, literal(-3)))
        CFI (cfiCond47) DPL0 load(1, XDATA, add(CFA_XSP16, literal(-2)))
        CFI (cfiCond47) DPH0 load(1, XDATA, add(CFA_XSP16, literal(-1)))
        CFI (cfiCond47) CFA_SP SP+0
        CFI (cfiCond47) CFA_XSP16 add(XSP16, 80)
        CFI Block cfiCond48 Using cfiCommon0
        CFI (cfiCond48) NoFunction
        CFI (cfiCond48) Conditional ??CrossCallReturnLabel_43
        CFI (cfiCond48) R6 load(1, XDATA, add(CFA_XSP16, literal(-16)))
        CFI (cfiCond48) VB load(1, XDATA, add(CFA_XSP16, literal(-15)))
        CFI (cfiCond48) V0 load(1, XDATA, add(CFA_XSP16, literal(-14)))
        CFI (cfiCond48) V1 load(1, XDATA, add(CFA_XSP16, literal(-13)))
        CFI (cfiCond48) V2 load(1, XDATA, add(CFA_XSP16, literal(-12)))
        CFI (cfiCond48) V3 load(1, XDATA, add(CFA_XSP16, literal(-11)))
        CFI (cfiCond48) V4 load(1, XDATA, add(CFA_XSP16, literal(-10)))
        CFI (cfiCond48) V5 load(1, XDATA, add(CFA_XSP16, literal(-9)))
        CFI (cfiCond48) V6 load(1, XDATA, add(CFA_XSP16, literal(-8)))
        CFI (cfiCond48) V7 load(1, XDATA, add(CFA_XSP16, literal(-7)))
        CFI (cfiCond48) R7 load(1, XDATA, add(CFA_XSP16, literal(-6)))
        CFI (cfiCond48) ?RET_LOW load(1, XDATA, add(CFA_XSP16, literal(-5)))
        CFI (cfiCond48) ?RET_HIGH load(1, XDATA, add(CFA_XSP16, literal(-4)))
        CFI (cfiCond48) ?BRET_EXT load(1, XDATA, add(CFA_XSP16, literal(-3)))
        CFI (cfiCond48) DPL0 load(1, XDATA, add(CFA_XSP16, literal(-2)))
        CFI (cfiCond48) DPH0 load(1, XDATA, add(CFA_XSP16, literal(-1)))
        CFI (cfiCond48) CFA_SP SP+0
        CFI (cfiCond48) CFA_XSP16 add(XSP16, 80)
        CFI Block cfiCond49 Using cfiCommon0
        CFI (cfiCond49) NoFunction
        CFI (cfiCond49) Conditional ??CrossCallReturnLabel_44
        CFI (cfiCond49) R6 load(1, XDATA, add(CFA_XSP16, literal(-16)))
        CFI (cfiCond49) VB load(1, XDATA, add(CFA_XSP16, literal(-15)))
        CFI (cfiCond49) V0 load(1, XDATA, add(CFA_XSP16, literal(-14)))
        CFI (cfiCond49) V1 load(1, XDATA, add(CFA_XSP16, literal(-13)))
        CFI (cfiCond49) V2 load(1, XDATA, add(CFA_XSP16, literal(-12)))
        CFI (cfiCond49) V3 load(1, XDATA, add(CFA_XSP16, literal(-11)))
        CFI (cfiCond49) V4 load(1, XDATA, add(CFA_XSP16, literal(-10)))
        CFI (cfiCond49) V5 load(1, XDATA, add(CFA_XSP16, literal(-9)))
        CFI (cfiCond49) V6 load(1, XDATA, add(CFA_XSP16, literal(-8)))
        CFI (cfiCond49) V7 load(1, XDATA, add(CFA_XSP16, literal(-7)))
        CFI (cfiCond49) R7 load(1, XDATA, add(CFA_XSP16, literal(-6)))
        CFI (cfiCond49) ?RET_LOW load(1, XDATA, add(CFA_XSP16, literal(-5)))
        CFI (cfiCond49) ?RET_HIGH load(1, XDATA, add(CFA_XSP16, literal(-4)))
        CFI (cfiCond49) ?BRET_EXT load(1, XDATA, add(CFA_XSP16, literal(-3)))
        CFI (cfiCond49) DPL0 load(1, XDATA, add(CFA_XSP16, literal(-2)))
        CFI (cfiCond49) DPH0 load(1, XDATA, add(CFA_XSP16, literal(-1)))
        CFI (cfiCond49) CFA_SP SP+0
        CFI (cfiCond49) CFA_XSP16 add(XSP16, 80)
        CFI Block cfiCond50 Using cfiCommon0
        CFI (cfiCond50) NoFunction
        CFI (cfiCond50) Conditional ??CrossCallReturnLabel_45
        CFI (cfiCond50) R6 load(1, XDATA, add(CFA_XSP16, literal(-16)))
        CFI (cfiCond50) VB load(1, XDATA, add(CFA_XSP16, literal(-15)))
        CFI (cfiCond50) V0 load(1, XDATA, add(CFA_XSP16, literal(-14)))
        CFI (cfiCond50) V1 load(1, XDATA, add(CFA_XSP16, literal(-13)))
        CFI (cfiCond50) V2 load(1, XDATA, add(CFA_XSP16, literal(-12)))
        CFI (cfiCond50) V3 load(1, XDATA, add(CFA_XSP16, literal(-11)))
        CFI (cfiCond50) V4 load(1, XDATA, add(CFA_XSP16, literal(-10)))
        CFI (cfiCond50) V5 load(1, XDATA, add(CFA_XSP16, literal(-9)))
        CFI (cfiCond50) V6 load(1, XDATA, add(CFA_XSP16, literal(-8)))
        CFI (cfiCond50) V7 load(1, XDATA, add(CFA_XSP16, literal(-7)))
        CFI (cfiCond50) R7 load(1, XDATA, add(CFA_XSP16, literal(-6)))
        CFI (cfiCond50) ?RET_LOW load(1, XDATA, add(CFA_XSP16, literal(-5)))
        CFI (cfiCond50) ?RET_HIGH load(1, XDATA, add(CFA_XSP16, literal(-4)))
        CFI (cfiCond50) ?BRET_EXT load(1, XDATA, add(CFA_XSP16, literal(-3)))
        CFI (cfiCond50) DPL0 load(1, XDATA, add(CFA_XSP16, literal(-2)))
        CFI (cfiCond50) DPH0 load(1, XDATA, add(CFA_XSP16, literal(-1)))
        CFI (cfiCond50) CFA_SP SP+0
        CFI (cfiCond50) CFA_XSP16 add(XSP16, 80)
        CFI Block cfiCond51 Using cfiCommon0
        CFI (cfiCond51) NoFunction
        CFI (cfiCond51) Conditional ??CrossCallReturnLabel_46
        CFI (cfiCond51) R6 load(1, XDATA, add(CFA_XSP16, literal(-16)))
        CFI (cfiCond51) VB load(1, XDATA, add(CFA_XSP16, literal(-15)))
        CFI (cfiCond51) V0 load(1, XDATA, add(CFA_XSP16, literal(-14)))
        CFI (cfiCond51) V1 load(1, XDATA, add(CFA_XSP16, literal(-13)))
        CFI (cfiCond51) V2 load(1, XDATA, add(CFA_XSP16, literal(-12)))
        CFI (cfiCond51) V3 load(1, XDATA, add(CFA_XSP16, literal(-11)))
        CFI (cfiCond51) V4 load(1, XDATA, add(CFA_XSP16, literal(-10)))
        CFI (cfiCond51) V5 load(1, XDATA, add(CFA_XSP16, literal(-9)))
        CFI (cfiCond51) V6 load(1, XDATA, add(CFA_XSP16, literal(-8)))
        CFI (cfiCond51) V7 load(1, XDATA, add(CFA_XSP16, literal(-7)))
        CFI (cfiCond51) R7 load(1, XDATA, add(CFA_XSP16, literal(-6)))
        CFI (cfiCond51) ?RET_LOW load(1, XDATA, add(CFA_XSP16, literal(-5)))
        CFI (cfiCond51) ?RET_HIGH load(1, XDATA, add(CFA_XSP16, literal(-4)))
        CFI (cfiCond51) ?BRET_EXT load(1, XDATA, add(CFA_XSP16, literal(-3)))
        CFI (cfiCond51) DPL0 load(1, XDATA, add(CFA_XSP16, literal(-2)))
        CFI (cfiCond51) DPH0 load(1, XDATA, add(CFA_XSP16, literal(-1)))
        CFI (cfiCond51) CFA_SP SP+0
        CFI (cfiCond51) CFA_XSP16 add(XSP16, 80)
        CFI Block cfiCond52 Using cfiCommon0
        CFI (cfiCond52) NoFunction
        CFI (cfiCond52) Conditional ??CrossCallReturnLabel_47
        CFI (cfiCond52) R6 load(1, XDATA, add(CFA_XSP16, literal(-16)))
        CFI (cfiCond52) VB load(1, XDATA, add(CFA_XSP16, literal(-15)))
        CFI (cfiCond52) V0 load(1, XDATA, add(CFA_XSP16, literal(-14)))
        CFI (cfiCond52) V1 load(1, XDATA, add(CFA_XSP16, literal(-13)))
        CFI (cfiCond52) V2 load(1, XDATA, add(CFA_XSP16, literal(-12)))
        CFI (cfiCond52) V3 load(1, XDATA, add(CFA_XSP16, literal(-11)))
        CFI (cfiCond52) V4 load(1, XDATA, add(CFA_XSP16, literal(-10)))
        CFI (cfiCond52) V5 load(1, XDATA, add(CFA_XSP16, literal(-9)))
        CFI (cfiCond52) V6 load(1, XDATA, add(CFA_XSP16, literal(-8)))
        CFI (cfiCond52) V7 load(1, XDATA, add(CFA_XSP16, literal(-7)))
        CFI (cfiCond52) R7 load(1, XDATA, add(CFA_XSP16, literal(-6)))
        CFI (cfiCond52) ?RET_LOW load(1, XDATA, add(CFA_XSP16, literal(-5)))
        CFI (cfiCond52) ?RET_HIGH load(1, XDATA, add(CFA_XSP16, literal(-4)))
        CFI (cfiCond52) ?BRET_EXT load(1, XDATA, add(CFA_XSP16, literal(-3)))
        CFI (cfiCond52) DPL0 load(1, XDATA, add(CFA_XSP16, literal(-2)))
        CFI (cfiCond52) DPH0 load(1, XDATA, add(CFA_XSP16, literal(-1)))
        CFI (cfiCond52) CFA_SP SP+0
        CFI (cfiCond52) CFA_XSP16 add(XSP16, 80)
        CFI Block cfiCond53 Using cfiCommon0
        CFI (cfiCond53) NoFunction
        CFI (cfiCond53) Conditional ??CrossCallReturnLabel_48
        CFI (cfiCond53) R6 load(1, XDATA, add(CFA_XSP16, literal(-16)))
        CFI (cfiCond53) VB load(1, XDATA, add(CFA_XSP16, literal(-15)))
        CFI (cfiCond53) V0 load(1, XDATA, add(CFA_XSP16, literal(-14)))
        CFI (cfiCond53) V1 load(1, XDATA, add(CFA_XSP16, literal(-13)))
        CFI (cfiCond53) V2 load(1, XDATA, add(CFA_XSP16, literal(-12)))
        CFI (cfiCond53) V3 load(1, XDATA, add(CFA_XSP16, literal(-11)))
        CFI (cfiCond53) V4 load(1, XDATA, add(CFA_XSP16, literal(-10)))
        CFI (cfiCond53) V5 load(1, XDATA, add(CFA_XSP16, literal(-9)))
        CFI (cfiCond53) V6 load(1, XDATA, add(CFA_XSP16, literal(-8)))
        CFI (cfiCond53) V7 load(1, XDATA, add(CFA_XSP16, literal(-7)))
        CFI (cfiCond53) R7 load(1, XDATA, add(CFA_XSP16, literal(-6)))
        CFI (cfiCond53) ?RET_LOW load(1, XDATA, add(CFA_XSP16, literal(-5)))
        CFI (cfiCond53) ?RET_HIGH load(1, XDATA, add(CFA_XSP16, literal(-4)))
        CFI (cfiCond53) ?BRET_EXT load(1, XDATA, add(CFA_XSP16, literal(-3)))
        CFI (cfiCond53) DPL0 load(1, XDATA, add(CFA_XSP16, literal(-2)))
        CFI (cfiCond53) DPH0 load(1, XDATA, add(CFA_XSP16, literal(-1)))
        CFI (cfiCond53) CFA_SP SP+0
        CFI (cfiCond53) CFA_XSP16 add(XSP16, 80)
        CFI Block cfiPicker54 Using cfiCommon1
        CFI (cfiPicker54) NoFunction
        CFI (cfiPicker54) Picker
        LCALL   ??osal_memcpy?relay
        MOV     A,#0x3
        RET
        CFI EndBlock cfiCond44
        CFI EndBlock cfiCond45
        CFI EndBlock cfiCond46
        CFI EndBlock cfiCond47
        CFI EndBlock cfiCond48
        CFI EndBlock cfiCond49
        CFI EndBlock cfiCond50
        CFI EndBlock cfiCond51
        CFI EndBlock cfiCond52
        CFI EndBlock cfiCond53
        CFI EndBlock cfiPicker54
//  559 
//  560 /*********************************************************************
//  561  * @fn      SampleApp_SendPeriodicMessage
//  562  *
//  563  * @brief   Send the periodic message.
//  564  *
//  565  * @param   none
//  566  *
//  567  * @return  none
//  568  */

        RSEG BANKED_CODE:CODE:NOROOT(0)
//  569 void SampleApp_SendPeriodicMessage(uint8 ADR)
SampleApp_SendPeriodicMessage:
        CFI Block cfiBlock55 Using cfiCommon0
        CFI Function SampleApp_SendPeriodicMessage
        CODE
//  570 {
        FUNCALL SampleApp_SendPeriodicMessage, AF_DataRequest
        LOCFRAME ISTACK, 0, STACK
        LOCFRAME PSTACK, 0, STACK
        LOCFRAME XSTACK, 22, STACK
        LOCFRAME IOVERLAY, 0, STATIC
        LOCFRAME DOVERLAY, 0, STATIC
        ARGFRAME ISTACK, 0, STACK
        ARGFRAME PSTACK, 0, STACK
        ARGFRAME XSTACK, 22, STACK
        ARGFRAME IOVERLAY, 0, STATIC
        ARGFRAME DOVERLAY, 0, STATIC
        MOV     A,#-0xa
        LCALL   ?BANKED_ENTER_XDATA
        CFI DPH0 load(1, XDATA, add(CFA_XSP16, literal(-1)))
        CFI DPL0 load(1, XDATA, add(CFA_XSP16, literal(-2)))
        CFI ?BRET_EXT load(1, XDATA, add(CFA_XSP16, literal(-3)))
        CFI ?RET_HIGH load(1, XDATA, add(CFA_XSP16, literal(-4)))
        CFI ?RET_LOW load(1, XDATA, add(CFA_XSP16, literal(-5)))
        CFI R7 load(1, XDATA, add(CFA_XSP16, literal(-6)))
        CFI V1 load(1, XDATA, add(CFA_XSP16, literal(-7)))
        CFI V0 load(1, XDATA, add(CFA_XSP16, literal(-8)))
        CFI VB load(1, XDATA, add(CFA_XSP16, literal(-9)))
        CFI R6 load(1, XDATA, add(CFA_XSP16, literal(-10)))
        CFI CFA_SP SP+0
        CFI CFA_XSP16 add(XSP16, 10)
        ; Saved register size: 10
        ; Auto size: 3
        MOV     A,#-0x3
        LCALL   ?ALLOC_XSTACK8
        CFI CFA_XSP16 add(XSP16, 13)
        MOV     A,R1
        MOV     R6,A
//  571   uint8 data[]="D1";
        MOV     DPL,?XSP + 0
        MOV     DPH,?XSP + 1
        MOV     R4,DPL
        MOV     R5,DPH
        MOV     DPH,#(`?<Constant "D1">` >> 8) & 0xff
        MOV     DPL,#`?<Constant "D1">` & 0xff
        MOV     A,#0x3
        LCALL   ?MOVE_LONG8_XDATA_XDATA
//  572   data[1]=ADR+0X30;
        MOV     A,#0x30
        ADD     A,R6
        PUSH    A
        CFI CFA_SP SP+-1
        MOV     A,#0x1
        LCALL   ?XSTACK_DISP0_8
        POP     A
        CFI CFA_SP SP+0
        MOVX    @DPTR,A
//  573   if ( AF_DataRequest( &SampleApp_Periodic_DstAddr, &SampleApp_epDesc,
//  574                        SAMPLEAPP_PERIODIC_CLUSTERID,
//  575                        2,
//  576                        data,
//  577                        &SampleApp_TransID,
//  578                        AF_DISCV_ROUTE,
//  579                        AF_DEFAULT_RADIUS ) == afStatus_SUCCESS )
        ; Setup parameters for call to function AF_DataRequest
        MOV     ?V0 + 0,#0x1e
        MOV     R0,#?V0 + 0
        LCALL   ?PUSH_XSTACK_I_ONE
        CFI CFA_XSP16 add(XSP16, 14)
        MOV     ?V0 + 0,#SampleApp_TransID & 0xff
        MOV     ?V0 + 1,#(SampleApp_TransID >> 8) & 0xff
        MOV     R0,#?V0 + 0
        LCALL   ?PUSH_XSTACK_I_TWO
        CFI CFA_XSP16 add(XSP16, 16)
        MOV     A,#0x3
        LCALL   ?XSTACK_DISP0_8
        MOV     ?V0 + 0,DPL
        MOV     ?V0 + 1,DPH
        MOV     R0,#?V0 + 0
        LCALL   ?PUSH_XSTACK_I_TWO
        CFI CFA_XSP16 add(XSP16, 18)
        MOV     ?V0 + 0,#0x2
        MOV     ?V0 + 1,#0x0
        MOV     R0,#?V0 + 0
        LCALL   ?PUSH_XSTACK_I_TWO
        CFI CFA_XSP16 add(XSP16, 20)
        MOV     ?V0 + 0,#0x1
        MOV     R0,#?V0 + 0
        LCALL   ?PUSH_XSTACK_I_TWO
        CFI CFA_XSP16 add(XSP16, 22)
        MOV     R1,#0x20
        MOV     R4,#SampleApp_epDesc & 0xff
        MOV     R5,#(SampleApp_epDesc >> 8) & 0xff
        MOV     R2,#SampleApp_Periodic_DstAddr & 0xff
        MOV     R3,#(SampleApp_Periodic_DstAddr >> 8) & 0xff
        CFI EndBlock cfiBlock55
        REQUIRE ?Subroutine0
        ; // Fall through to label ?Subroutine0
//  580   {
//  581   }
//  582   else
//  583   {
//  584     // Error occurred in request to send.
//  585   }
//  586 }

        RSEG BANKED_CODE:CODE:NOROOT(0)
?Subroutine0:
        CFI Block cfiBlock56 Using cfiCommon0
        CFI NoFunction
        CFI CFA_SP SP+0
        CFI CFA_XSP16 add(XSP16, 22)
        CFI VB load(1, XDATA, add(CFA_XSP16, literal(-9)))
        CFI DPL0 load(1, XDATA, add(CFA_XSP16, literal(-2)))
        CFI DPH0 load(1, XDATA, add(CFA_XSP16, literal(-1)))
        CFI R6 load(1, XDATA, add(CFA_XSP16, literal(-10)))
        CFI R7 load(1, XDATA, add(CFA_XSP16, literal(-6)))
        CFI V0 load(1, XDATA, add(CFA_XSP16, literal(-8)))
        CFI V1 load(1, XDATA, add(CFA_XSP16, literal(-7)))
        CFI ?BRET_EXT load(1, XDATA, add(CFA_XSP16, literal(-3)))
        CFI ?RET_HIGH load(1, XDATA, add(CFA_XSP16, literal(-4)))
        CFI ?RET_LOW load(1, XDATA, add(CFA_XSP16, literal(-5)))
        LCALL   ??AF_DataRequest?relay
        MOV     A,#0x9
        LCALL   ?DEALLOC_XSTACK8
        CFI CFA_XSP16 add(XSP16, 13)
        MOV     A,#0x3
        LCALL   ?DEALLOC_XSTACK8
        CFI EndBlock cfiBlock56
        REQUIRE ??Subroutine22_0
        ; // Fall through to label ??Subroutine22_0

        RSEG BANKED_CODE:CODE:NOROOT(0)
??Subroutine22_0:
        CFI Block cfiBlock57 Using cfiCommon0
        CFI NoFunction
        CFI CFA_SP SP+0
        CFI CFA_XSP16 add(XSP16, 10)
        CFI VB load(1, XDATA, add(CFA_XSP16, literal(-9)))
        CFI DPL0 load(1, XDATA, add(CFA_XSP16, literal(-2)))
        CFI DPH0 load(1, XDATA, add(CFA_XSP16, literal(-1)))
        CFI R6 load(1, XDATA, add(CFA_XSP16, literal(-10)))
        CFI R7 load(1, XDATA, add(CFA_XSP16, literal(-6)))
        CFI V0 load(1, XDATA, add(CFA_XSP16, literal(-8)))
        CFI V1 load(1, XDATA, add(CFA_XSP16, literal(-7)))
        CFI ?BRET_EXT load(1, XDATA, add(CFA_XSP16, literal(-3)))
        CFI ?RET_HIGH load(1, XDATA, add(CFA_XSP16, literal(-4)))
        CFI ?RET_LOW load(1, XDATA, add(CFA_XSP16, literal(-5)))
        MOV     R7,#0x2
        LJMP    ?BANKED_LEAVE_XDATA
        CFI EndBlock cfiBlock57
//  587 
//  588 /*********************************************************************
//  589  * @fn      SampleApp_SendFlashMessage
//  590  *
//  591  * @brief   Send the flash message to group 1.
//  592  *
//  593  * @param   flashTime - in milliseconds
//  594  *
//  595  * @return  none
//  596  */

        RSEG BANKED_CODE:CODE:NOROOT(0)
//  597 void SampleApp_SendFlashMessage( uint16 flashTime )
SampleApp_SendFlashMessage:
        CFI Block cfiBlock58 Using cfiCommon0
        CFI Function SampleApp_SendFlashMessage
        CODE
//  598 {
        FUNCALL SampleApp_SendFlashMessage, AF_DataRequest
        LOCFRAME ISTACK, 0, STACK
        LOCFRAME PSTACK, 0, STACK
        LOCFRAME XSTACK, 22, STACK
        LOCFRAME IOVERLAY, 0, STATIC
        LOCFRAME DOVERLAY, 0, STATIC
        ARGFRAME ISTACK, 0, STACK
        ARGFRAME PSTACK, 0, STACK
        ARGFRAME XSTACK, 22, STACK
        ARGFRAME IOVERLAY, 0, STATIC
        ARGFRAME DOVERLAY, 0, STATIC
        MOV     A,#-0xa
        LCALL   ?BANKED_ENTER_XDATA
        CFI DPH0 load(1, XDATA, add(CFA_XSP16, literal(-1)))
        CFI DPL0 load(1, XDATA, add(CFA_XSP16, literal(-2)))
        CFI ?BRET_EXT load(1, XDATA, add(CFA_XSP16, literal(-3)))
        CFI ?RET_HIGH load(1, XDATA, add(CFA_XSP16, literal(-4)))
        CFI ?RET_LOW load(1, XDATA, add(CFA_XSP16, literal(-5)))
        CFI R7 load(1, XDATA, add(CFA_XSP16, literal(-6)))
        CFI V1 load(1, XDATA, add(CFA_XSP16, literal(-7)))
        CFI V0 load(1, XDATA, add(CFA_XSP16, literal(-8)))
        CFI VB load(1, XDATA, add(CFA_XSP16, literal(-9)))
        CFI R6 load(1, XDATA, add(CFA_XSP16, literal(-10)))
        CFI CFA_SP SP+0
        CFI CFA_XSP16 add(XSP16, 10)
        ; Saved register size: 10
        ; Auto size: 3
        MOV     A,#-0x3
        LCALL   ?ALLOC_XSTACK8
        CFI CFA_XSP16 add(XSP16, 13)
//  599   uint8 buffer[3];
//  600   buffer[0] = (uint8)(SampleAppFlashCounter++);
        MOV     DPTR,#SampleAppFlashCounter
        MOVX    A,@DPTR
        MOV     DPL,?XSP + 0
        MOV     DPH,?XSP + 1
        MOVX    @DPTR,A
        MOV     DPTR,#SampleAppFlashCounter
        MOVX    A,@DPTR
        INC     A
        MOVX    @DPTR,A
//  601   buffer[1] = LO_UINT16( flashTime );
        MOV     A,#0x1
        LCALL   ?XSTACK_DISP0_8
        MOV     A,R2
        MOVX    @DPTR,A
//  602   buffer[2] = HI_UINT16( flashTime );
        MOV     A,#0x2
        LCALL   ?XSTACK_DISP0_8
        MOV     A,R3
        MOVX    @DPTR,A
//  603 
//  604   if ( AF_DataRequest( &SampleApp_Flash_DstAddr, &SampleApp_epDesc,
//  605                        SAMPLEAPP_FLASH_CLUSTERID,
//  606                        3,
//  607                        buffer,
//  608                        &SampleApp_TransID,
//  609                        AF_DISCV_ROUTE,
//  610                        AF_DEFAULT_RADIUS ) == afStatus_SUCCESS )
        ; Setup parameters for call to function AF_DataRequest
        MOV     ?V0 + 0,#0x1e
        MOV     R0,#?V0 + 0
        LCALL   ?PUSH_XSTACK_I_ONE
        CFI CFA_XSP16 add(XSP16, 14)
        MOV     ?V0 + 0,#SampleApp_TransID & 0xff
        MOV     ?V0 + 1,#(SampleApp_TransID >> 8) & 0xff
        MOV     R0,#?V0 + 0
        LCALL   ?PUSH_XSTACK_I_TWO
        CFI CFA_XSP16 add(XSP16, 16)
        MOV     A,#0x3
        LCALL   ?XSTACK_DISP0_8
        MOV     ?V0 + 0,DPL
        MOV     ?V0 + 1,DPH
        MOV     R0,#?V0 + 0
        LCALL   ?PUSH_XSTACK_I_TWO
        CFI CFA_XSP16 add(XSP16, 18)
        MOV     ?V0 + 0,#0x3
        MOV     ?V0 + 1,#0x0
        MOV     R0,#?V0 + 0
        LCALL   ?PUSH_XSTACK_I_TWO
        CFI CFA_XSP16 add(XSP16, 20)
        MOV     ?V0 + 0,#0x2
        MOV     R0,#?V0 + 0
        LCALL   ?PUSH_XSTACK_I_TWO
        CFI CFA_XSP16 add(XSP16, 22)
        MOV     R1,#0x20
        MOV     R4,#SampleApp_epDesc & 0xff
        MOV     R5,#(SampleApp_epDesc >> 8) & 0xff
        MOV     R2,#SampleApp_Flash_DstAddr & 0xff
        MOV     R3,#(SampleApp_Flash_DstAddr >> 8) & 0xff
        SJMP    ?Subroutine0
        CFI EndBlock cfiBlock58
//  611   {
//  612   }
//  613   else
//  614   {
//  615     // Error occurred in request to send.
//  616   }
//  617 }
//  618 /*************************************************************
//  619 发送端到端数据
//  620 select：发送信息类型  1：数据  2同步请求
//  621 **************************************************************/

        RSEG BANKED_CODE:CODE:NOROOT(0)
//  622 void SampleApp_Send_P2P_Message( uint8 select ) 
SampleApp_Send_P2P_Message:
        CFI Block cfiBlock59 Using cfiCommon0
        CFI Function SampleApp_Send_P2P_Message
        CODE
//  623 { 
        FUNCALL SampleApp_Send_P2P_Message, osal_memcpy
        LOCFRAME ISTACK, 0, STACK
        LOCFRAME PSTACK, 0, STACK
        LOCFRAME XSTACK, 80, STACK
        LOCFRAME IOVERLAY, 0, STATIC
        LOCFRAME DOVERLAY, 0, STATIC
        ARGFRAME ISTACK, 0, STACK
        ARGFRAME PSTACK, 0, STACK
        ARGFRAME XSTACK, 80, STACK
        ARGFRAME IOVERLAY, 0, STATIC
        ARGFRAME DOVERLAY, 0, STATIC
        FUNCALL SampleApp_Send_P2P_Message, osal_memcpy
        LOCFRAME ISTACK, 0, STACK
        LOCFRAME PSTACK, 0, STACK
        LOCFRAME XSTACK, 80, STACK
        LOCFRAME IOVERLAY, 0, STATIC
        LOCFRAME DOVERLAY, 0, STATIC
        ARGFRAME ISTACK, 0, STACK
        ARGFRAME PSTACK, 0, STACK
        ARGFRAME XSTACK, 80, STACK
        ARGFRAME IOVERLAY, 0, STATIC
        ARGFRAME DOVERLAY, 0, STATIC
        FUNCALL SampleApp_Send_P2P_Message, osal_memcpy
        LOCFRAME ISTACK, 0, STACK
        LOCFRAME PSTACK, 0, STACK
        LOCFRAME XSTACK, 80, STACK
        LOCFRAME IOVERLAY, 0, STATIC
        LOCFRAME DOVERLAY, 0, STATIC
        ARGFRAME ISTACK, 0, STACK
        ARGFRAME PSTACK, 0, STACK
        ARGFRAME XSTACK, 80, STACK
        ARGFRAME IOVERLAY, 0, STATIC
        ARGFRAME DOVERLAY, 0, STATIC
        FUNCALL SampleApp_Send_P2P_Message, SHT_DataRevise
        LOCFRAME ISTACK, 0, STACK
        LOCFRAME PSTACK, 0, STACK
        LOCFRAME XSTACK, 77, STACK
        LOCFRAME IOVERLAY, 0, STATIC
        LOCFRAME DOVERLAY, 0, STATIC
        ARGFRAME ISTACK, 0, STACK
        ARGFRAME PSTACK, 0, STACK
        ARGFRAME XSTACK, 77, STACK
        ARGFRAME IOVERLAY, 0, STATIC
        ARGFRAME DOVERLAY, 0, STATIC
        FUNCALL SampleApp_Send_P2P_Message, Delay_ms
        LOCFRAME ISTACK, 0, STACK
        LOCFRAME PSTACK, 0, STACK
        LOCFRAME XSTACK, 77, STACK
        LOCFRAME IOVERLAY, 0, STATIC
        LOCFRAME DOVERLAY, 0, STATIC
        ARGFRAME ISTACK, 0, STACK
        ARGFRAME PSTACK, 0, STACK
        ARGFRAME XSTACK, 77, STACK
        ARGFRAME IOVERLAY, 0, STATIC
        ARGFRAME DOVERLAY, 0, STATIC
        FUNCALL SampleApp_Send_P2P_Message, lux
        LOCFRAME ISTACK, 0, STACK
        LOCFRAME PSTACK, 0, STACK
        LOCFRAME XSTACK, 77, STACK
        LOCFRAME IOVERLAY, 0, STATIC
        LOCFRAME DOVERLAY, 0, STATIC
        ARGFRAME ISTACK, 0, STACK
        ARGFRAME PSTACK, 0, STACK
        ARGFRAME XSTACK, 77, STACK
        ARGFRAME IOVERLAY, 0, STATIC
        ARGFRAME DOVERLAY, 0, STATIC
        FUNCALL SampleApp_Send_P2P_Message, Delay_ms
        LOCFRAME ISTACK, 0, STACK
        LOCFRAME PSTACK, 0, STACK
        LOCFRAME XSTACK, 77, STACK
        LOCFRAME IOVERLAY, 0, STATIC
        LOCFRAME DOVERLAY, 0, STATIC
        ARGFRAME ISTACK, 0, STACK
        ARGFRAME PSTACK, 0, STACK
        ARGFRAME XSTACK, 77, STACK
        ARGFRAME IOVERLAY, 0, STATIC
        ARGFRAME DOVERLAY, 0, STATIC
        FUNCALL SampleApp_Send_P2P_Message, osal_memcpy
        LOCFRAME ISTACK, 0, STACK
        LOCFRAME PSTACK, 0, STACK
        LOCFRAME XSTACK, 80, STACK
        LOCFRAME IOVERLAY, 0, STATIC
        LOCFRAME DOVERLAY, 0, STATIC
        ARGFRAME ISTACK, 0, STACK
        ARGFRAME PSTACK, 0, STACK
        ARGFRAME XSTACK, 80, STACK
        ARGFRAME IOVERLAY, 0, STATIC
        ARGFRAME DOVERLAY, 0, STATIC
        FUNCALL SampleApp_Send_P2P_Message, osal_memcpy
        LOCFRAME ISTACK, 0, STACK
        LOCFRAME PSTACK, 0, STACK
        LOCFRAME XSTACK, 80, STACK
        LOCFRAME IOVERLAY, 0, STATIC
        LOCFRAME DOVERLAY, 0, STATIC
        ARGFRAME ISTACK, 0, STACK
        ARGFRAME PSTACK, 0, STACK
        ARGFRAME XSTACK, 80, STACK
        ARGFRAME IOVERLAY, 0, STATIC
        ARGFRAME DOVERLAY, 0, STATIC
        FUNCALL SampleApp_Send_P2P_Message, osal_memcpy
        LOCFRAME ISTACK, 0, STACK
        LOCFRAME PSTACK, 0, STACK
        LOCFRAME XSTACK, 80, STACK
        LOCFRAME IOVERLAY, 0, STATIC
        LOCFRAME DOVERLAY, 0, STATIC
        ARGFRAME ISTACK, 0, STACK
        ARGFRAME PSTACK, 0, STACK
        ARGFRAME XSTACK, 80, STACK
        ARGFRAME IOVERLAY, 0, STATIC
        ARGFRAME DOVERLAY, 0, STATIC
        FUNCALL SampleApp_Send_P2P_Message, osal_memcpy
        LOCFRAME ISTACK, 0, STACK
        LOCFRAME PSTACK, 0, STACK
        LOCFRAME XSTACK, 80, STACK
        LOCFRAME IOVERLAY, 0, STATIC
        LOCFRAME DOVERLAY, 0, STATIC
        ARGFRAME ISTACK, 0, STACK
        ARGFRAME PSTACK, 0, STACK
        ARGFRAME XSTACK, 80, STACK
        ARGFRAME IOVERLAY, 0, STATIC
        ARGFRAME DOVERLAY, 0, STATIC
        FUNCALL SampleApp_Send_P2P_Message, osal_memcpy
        LOCFRAME ISTACK, 0, STACK
        LOCFRAME PSTACK, 0, STACK
        LOCFRAME XSTACK, 80, STACK
        LOCFRAME IOVERLAY, 0, STATIC
        LOCFRAME DOVERLAY, 0, STATIC
        ARGFRAME ISTACK, 0, STACK
        ARGFRAME PSTACK, 0, STACK
        ARGFRAME XSTACK, 80, STACK
        ARGFRAME IOVERLAY, 0, STATIC
        ARGFRAME DOVERLAY, 0, STATIC
        FUNCALL SampleApp_Send_P2P_Message, osal_memcpy
        LOCFRAME ISTACK, 0, STACK
        LOCFRAME PSTACK, 0, STACK
        LOCFRAME XSTACK, 80, STACK
        LOCFRAME IOVERLAY, 0, STATIC
        LOCFRAME DOVERLAY, 0, STATIC
        ARGFRAME ISTACK, 0, STACK
        ARGFRAME PSTACK, 0, STACK
        ARGFRAME XSTACK, 80, STACK
        ARGFRAME IOVERLAY, 0, STATIC
        ARGFRAME DOVERLAY, 0, STATIC
        FUNCALL SampleApp_Send_P2P_Message, osal_memset
        LOCFRAME ISTACK, 0, STACK
        LOCFRAME PSTACK, 0, STACK
        LOCFRAME XSTACK, 77, STACK
        LOCFRAME IOVERLAY, 0, STATIC
        LOCFRAME DOVERLAY, 0, STATIC
        ARGFRAME ISTACK, 0, STACK
        ARGFRAME PSTACK, 0, STACK
        ARGFRAME XSTACK, 77, STACK
        ARGFRAME IOVERLAY, 0, STATIC
        ARGFRAME DOVERLAY, 0, STATIC
        FUNCALL SampleApp_Send_P2P_Message, osal_memset
        LOCFRAME ISTACK, 0, STACK
        LOCFRAME PSTACK, 0, STACK
        LOCFRAME XSTACK, 77, STACK
        LOCFRAME IOVERLAY, 0, STATIC
        LOCFRAME DOVERLAY, 0, STATIC
        ARGFRAME ISTACK, 0, STACK
        ARGFRAME PSTACK, 0, STACK
        ARGFRAME XSTACK, 77, STACK
        ARGFRAME IOVERLAY, 0, STATIC
        ARGFRAME DOVERLAY, 0, STATIC
        FUNCALL SampleApp_Send_P2P_Message, osal_memset
        LOCFRAME ISTACK, 0, STACK
        LOCFRAME PSTACK, 0, STACK
        LOCFRAME XSTACK, 77, STACK
        LOCFRAME IOVERLAY, 0, STATIC
        LOCFRAME DOVERLAY, 0, STATIC
        ARGFRAME ISTACK, 0, STACK
        ARGFRAME PSTACK, 0, STACK
        ARGFRAME XSTACK, 77, STACK
        ARGFRAME IOVERLAY, 0, STATIC
        ARGFRAME DOVERLAY, 0, STATIC
        FUNCALL SampleApp_Send_P2P_Message, AF_DataRequest
        LOCFRAME ISTACK, 0, STACK
        LOCFRAME PSTACK, 0, STACK
        LOCFRAME XSTACK, 86, STACK
        LOCFRAME IOVERLAY, 0, STATIC
        LOCFRAME DOVERLAY, 0, STATIC
        ARGFRAME ISTACK, 0, STACK
        ARGFRAME PSTACK, 0, STACK
        ARGFRAME XSTACK, 86, STACK
        ARGFRAME IOVERLAY, 0, STATIC
        ARGFRAME DOVERLAY, 0, STATIC
        FUNCALL SampleApp_Send_P2P_Message, AF_DataRequest
        LOCFRAME ISTACK, 0, STACK
        LOCFRAME PSTACK, 0, STACK
        LOCFRAME XSTACK, 86, STACK
        LOCFRAME IOVERLAY, 0, STATIC
        LOCFRAME DOVERLAY, 0, STATIC
        ARGFRAME ISTACK, 0, STACK
        ARGFRAME PSTACK, 0, STACK
        ARGFRAME XSTACK, 86, STACK
        ARGFRAME IOVERLAY, 0, STATIC
        ARGFRAME DOVERLAY, 0, STATIC
        MOV     A,#-0x10
        LCALL   ?BANKED_ENTER_XDATA
        CFI DPH0 load(1, XDATA, add(CFA_XSP16, literal(-1)))
        CFI DPL0 load(1, XDATA, add(CFA_XSP16, literal(-2)))
        CFI ?BRET_EXT load(1, XDATA, add(CFA_XSP16, literal(-3)))
        CFI ?RET_HIGH load(1, XDATA, add(CFA_XSP16, literal(-4)))
        CFI ?RET_LOW load(1, XDATA, add(CFA_XSP16, literal(-5)))
        CFI R7 load(1, XDATA, add(CFA_XSP16, literal(-6)))
        CFI V7 load(1, XDATA, add(CFA_XSP16, literal(-7)))
        CFI V6 load(1, XDATA, add(CFA_XSP16, literal(-8)))
        CFI V5 load(1, XDATA, add(CFA_XSP16, literal(-9)))
        CFI V4 load(1, XDATA, add(CFA_XSP16, literal(-10)))
        CFI V3 load(1, XDATA, add(CFA_XSP16, literal(-11)))
        CFI V2 load(1, XDATA, add(CFA_XSP16, literal(-12)))
        CFI V1 load(1, XDATA, add(CFA_XSP16, literal(-13)))
        CFI V0 load(1, XDATA, add(CFA_XSP16, literal(-14)))
        CFI VB load(1, XDATA, add(CFA_XSP16, literal(-15)))
        CFI R6 load(1, XDATA, add(CFA_XSP16, literal(-16)))
        CFI CFA_SP SP+0
        CFI CFA_XSP16 add(XSP16, 16)
        ; Saved register size: 16
        ; Auto size: 61
        MOV     A,#-0x3d
        LCALL   ?ALLOC_XSTACK8
        CFI CFA_XSP16 add(XSP16, 77)
        MOV     A,R1
        MOV     R7,A
//  624   uint8 i;                                        //循环计数
//  625   double TIMER[3],HUM[3],temp;                    //温度、湿度缓存数组和中间变量
//  626   uint16 LIGHT[3],Temp;                           //光照缓存数组和中间变量
//  627   uint8  strTemp[21]={0};                         //采集数据缓存数组
        MOV     DPL,?XSP + 0
        MOV     DPH,?XSP + 1
        MOV     R4,DPL
        MOV     R5,DPH
        MOV     DPH,#(`?<Constant {0}>_2` >> 8) & 0xff
        MOV     DPL,#`?<Constant {0}>_2` & 0xff
        MOV     A,#0x15
        LCALL   ?MOVE_LONG8_XDATA_XDATA
//  628   uint8  timerq[10]={0};                          //同步请求缓存数组
        MOV     A,#0x33
        LCALL   ?XSTACK_DISP0_8
        MOV     R4,DPL
        MOV     R5,DPH
        MOV     DPH,#(`?<Constant {0}>_3` >> 8) & 0xff
        MOV     DPL,#`?<Constant {0}>_3` & 0xff
        MOV     A,#0xa
        LCALL   ?MOVE_LONG8_XDATA_XDATA
//  629   
//  630 //****************数据计算和赋值**********************************************//
//  631 //* 数据格式：DA01T 24.32H64I  347@ --21位
//  632 //* 每种数据采集三次，取中间值
//  633 //* 同步请求数据格式：TA01 --4位
//  634   osal_memcpy(strTemp,"D", 1);                   
        ; Setup parameters for call to function osal_memcpy
        MOV     ?V0 + 0,#`?<Constant "D">` & 0xff
        MOV     ?V0 + 1,#(`?<Constant "D">` >> 8) & 0xff
        MOV     ?V0 + 2,A
        MOV     R0,#?V0 + 0
        LCALL   ?PUSH_XSTACK_I_THREE
        CFI CFA_XSP16 add(XSP16, 80)
        MOV     R4,#0x1
        MOV     R5,#0x0
        MOV     A,#0x3
        LCALL   ?XSTACK_DISP0_8
        LCALL   ?Subroutine8 & 0xFFFF
??CrossCallReturnLabel_42:
        LCALL   ?DEALLOC_XSTACK8
        CFI CFA_XSP16 add(XSP16, 77)
//  635   strTemp[1]=ADDR1;
        MOV     DPTR,#ADDR1
        MOVX    A,@DPTR
        PUSH    A
        CFI CFA_SP SP+-1
        MOV     A,#0x1
        LCALL   ?XSTACK_DISP0_8
        POP     A
        CFI CFA_SP SP+0
        MOVX    @DPTR,A
//  636   strTemp[2]=ADDR2;
        MOV     DPTR,#ADDR2
        MOVX    A,@DPTR
        PUSH    A
        CFI CFA_SP SP+-1
        MOV     A,#0x2
        LCALL   ?XSTACK_DISP0_8
        POP     A
        CFI CFA_SP SP+0
        MOVX    @DPTR,A
//  637   strTemp[3]=ADDR3;
        MOV     DPTR,#ADDR3
        MOVX    A,@DPTR
        PUSH    A
        CFI CFA_SP SP+-1
        MOV     A,#0x3
        LCALL   ?XSTACK_DISP0_8
        POP     A
        CFI CFA_SP SP+0
        MOVX    @DPTR,A
//  638   osal_memcpy(timerq,"T", 1);
        ; Setup parameters for call to function osal_memcpy
        MOV     ?V0 + 0,#`?<Constant "T">` & 0xff
        MOV     ?V0 + 1,#(`?<Constant "T">` >> 8) & 0xff
        MOV     R0,#?V0 + 0
        LCALL   ?PUSH_XSTACK_I_THREE
        CFI CFA_XSP16 add(XSP16, 80)
        MOV     R4,#0x1
        MOV     R5,#0x0
        MOV     A,#0x36
        LCALL   ?XSTACK_DISP0_8
        LCALL   ?Subroutine8 & 0xFFFF
??CrossCallReturnLabel_43:
        LCALL   ?DEALLOC_XSTACK8
        CFI CFA_XSP16 add(XSP16, 77)
//  639   osal_memcpy(&timerq[1],&strTemp[1],3);
        ; Setup parameters for call to function osal_memcpy
        MOV     A,#0x1
        LCALL   ?XSTACK_DISP0_8
        MOV     R1,DPL
        MOV     R2,DPH
        MOV     ?V0 + 0,R1
        MOV     ?V0 + 1,R2
        MOV     R0,#?V0 + 0
        LCALL   ?PUSH_XSTACK_I_THREE
        CFI CFA_XSP16 add(XSP16, 80)
        MOV     R4,#0x3
        MOV     R5,#0x0
        MOV     A,#0x37
        LCALL   ?XSTACK_DISP0_8
        LCALL   ?Subroutine8 & 0xFFFF
??CrossCallReturnLabel_44:
        LCALL   ?DEALLOC_XSTACK8
        CFI CFA_XSP16 add(XSP16, 77)
//  640   if(select==0x01)
        MOV     A,#0x1
        XRL     A,R7
        JZ      $+5
        LJMP    ??SampleApp_Send_P2P_Message_0 & 0xFFFF
//  641   {
//  642 //*******************温湿度****************************************
//  643     for(i=0;i<3;i++)
        MOV     R6,#0x0
//  644     {
//  645       SHT_DataRevise();
??SampleApp_Send_P2P_Message_1:
        ; Setup parameters for call to function SHT_DataRevise
        LCALL   ??SHT_DataRevise?relay
//  646       TIMER[i]=temper;
        MOV     ?V0 + 0,R6
        MOV     ?V0 + 1,#0x0
        MOV     A,#0x2
        MOV     R0,#?V0 + 0
        LCALL   ?S_SHL
        MOV     R0,?V0 + 0
        MOV     R1,?V0 + 1
        MOV     DPTR,#temper
        LCALL   ?XLOAD_R2345
        MOV     A,#0x1b
        LCALL   ?XSTACK_DISP0_8
        LCALL   ?Subroutine13 & 0xFFFF
??CrossCallReturnLabel_20:
        LCALL   ?XSTORE_R2345
//  647       HUM[i]=humid;
        MOV     DPTR,#humid
        LCALL   ?XLOAD_R2345
        MOV     A,#0x27
        LCALL   ?XSTACK_DISP0_8
        LCALL   ?Subroutine13 & 0xFFFF
??CrossCallReturnLabel_21:
        LCALL   ?XSTORE_R2345
//  648       Delay_ms(10);
        ; Setup parameters for call to function Delay_ms
        MOV     R2,#0xa
        LCALL   ?Subroutine7 & 0xFFFF
//  649     }
??CrossCallReturnLabel_12:
        JC      ??SampleApp_Send_P2P_Message_1
//  650     for(i=0;i<2;i++)
        MOV     R6,#0x0
//  651     {
//  652       if(TIMER[i]>=TIMER[i+1])
??SampleApp_Send_P2P_Message_2:
        MOV     ?V0 + 0,R6
        MOV     ?V0 + 1,#0x0
        MOV     A,#0x2
        MOV     R0,#?V0 + 0
        LCALL   ?S_SHL
        MOV     R0,?V0 + 0
        MOV     R1,?V0 + 1
        MOV     A,#0x1b
        LCALL   ?XSTACK_DISP0_8
        LCALL   ?Subroutine12 & 0xFFFF
??CrossCallReturnLabel_18:
        LCALL   ?L_MOV_X
        MOV     DPL,?V0 + 4
        MOV     DPH,?V0 + 5
        INC     DPTR
        INC     DPTR
        INC     DPTR
        INC     DPTR
        MOV     R0,#?V0 + 4
        LCALL   ?L_MOV_X
        MOV     R0,#?V0 + 0
        MOV     R1,#?V0 + 4
        LCALL   ?FLT_GE
        JNC     ??SampleApp_Send_P2P_Message_3
//  653       {
//  654         temp=TIMER[i+1];
        MOV     ?V0 + 0,R6
        MOV     ?V0 + 1,#0x0
        MOV     A,#0x2
        MOV     R0,#?V0 + 0
        LCALL   ?S_SHL
        MOV     R0,?V0 + 0
        MOV     R1,?V0 + 1
        MOV     A,#0x1b
        LCALL   ?XSTACK_DISP0_8
        LCALL   ?Subroutine11 & 0xFFFF
??CrossCallReturnLabel_16:
        LCALL   ?L_MOV_X
//  655         TIMER[i+1]=TIMER[i];
        MOV     DPL,?V0 + 4
        MOV     DPH,?V0 + 5
        LCALL   ?XLOAD_R2345
        MOV     DPL,?V0 + 6
        MOV     DPH,?V0 + 7
        LCALL   ?XSTORE_R2345
//  656         TIMER[i]=temp;
        MOV     DPL,?V0 + 4
        MOV     DPH,?V0 + 5
        MOV     R0,#?V0 + 0
        LCALL   ?L_MOV_TO_X
//  657       }
//  658       if(HUM[i]>=HUM[i+1])
??SampleApp_Send_P2P_Message_3:
        MOV     ?V0 + 0,R6
        MOV     ?V0 + 1,#0x0
        MOV     A,#0x2
        MOV     R0,#?V0 + 0
        LCALL   ?S_SHL
        MOV     R0,?V0 + 0
        MOV     R1,?V0 + 1
        MOV     A,#0x27
        LCALL   ?XSTACK_DISP0_8
        LCALL   ?Subroutine12 & 0xFFFF
??CrossCallReturnLabel_19:
        LCALL   ?L_MOV_X
        MOV     DPL,?V0 + 4
        MOV     DPH,?V0 + 5
        INC     DPTR
        INC     DPTR
        INC     DPTR
        INC     DPTR
        MOV     R0,#?V0 + 4
        LCALL   ?L_MOV_X
        MOV     R0,#?V0 + 0
        MOV     R1,#?V0 + 4
        LCALL   ?FLT_GE
        JNC     ??SampleApp_Send_P2P_Message_4
//  659       {
//  660         temp=HUM[i+1];
        MOV     ?V0 + 0,R6
        MOV     ?V0 + 1,#0x0
        MOV     A,#0x2
        MOV     R0,#?V0 + 0
        LCALL   ?S_SHL
        MOV     R0,?V0 + 0
        MOV     R1,?V0 + 1
        MOV     A,#0x27
        LCALL   ?XSTACK_DISP0_8
        LCALL   ?Subroutine11 & 0xFFFF
??CrossCallReturnLabel_17:
        LCALL   ?L_MOV_X
//  661         HUM[i+1]=HUM[i];
        MOV     DPL,?V0 + 4
        MOV     DPH,?V0 + 5
        LCALL   ?XLOAD_R2345
        MOV     DPL,?V0 + 6
        MOV     DPH,?V0 + 7
        LCALL   ?XSTORE_R2345
//  662         HUM[i]=temp;
        MOV     DPL,?V0 + 4
        MOV     DPH,?V0 + 5
        MOV     R0,#?V0 + 0
        LCALL   ?L_MOV_TO_X
//  663       }
//  664     }
??SampleApp_Send_P2P_Message_4:
        INC     R6
        MOV     A,R6
        CLR     C
        SUBB    A,#0x2
        JNC     $+5
        LJMP    ??SampleApp_Send_P2P_Message_2 & 0xFFFF
//  665 //***********************光照****************************************
//  666     for(i=0;i<3;i++)
        MOV     R6,#0x0
//  667     {
//  668       lux();
??SampleApp_Send_P2P_Message_5:
        ; Setup parameters for call to function lux
        LCALL   ??lux?relay
//  669       LIGHT[i]=Light;
        MOV     DPTR,#Light
        MOVX    A,@DPTR
        MOV     R2,A
        INC     DPTR
        MOVX    A,@DPTR
        MOV     R3,A
        MOV     A,R6
        CLR     C
        RLC     A
        MOV     R0,A
        CLR     A
        RLC     A
        MOV     R1,A
        MOV     A,#0x15
        LCALL   ?XSTACK_DISP0_8
        LCALL   ?Subroutine13 & 0xFFFF
??CrossCallReturnLabel_22:
        MOV     A,R2
        MOVX    @DPTR,A
        INC     DPTR
        MOV     A,R3
        MOVX    @DPTR,A
//  670       Delay_ms(200);
        ; Setup parameters for call to function Delay_ms
        MOV     R2,#-0x38
        LCALL   ?Subroutine7 & 0xFFFF
//  671     }
??CrossCallReturnLabel_13:
        JC      ??SampleApp_Send_P2P_Message_5
//  672     for(i=0;i<2;i++)
        MOV     R6,#0x0
//  673     {
//  674       if(LIGHT[i]>=LIGHT[i+1])
??SampleApp_Send_P2P_Message_6:
        MOV     A,R6
        CLR     C
        RLC     A
        MOV     R0,A
        CLR     A
        RLC     A
        MOV     R1,A
        MOV     A,#0x15
        LCALL   ?XSTACK_DISP0_8
        MOV     A,DPL
        ADD     A,R0
        MOV     R0,A
        MOV     A,DPH
        ADDC    A,R1
        MOV     R1,A
        MOV     DPL,R0
        MOV     DPH,R1
        PUSH    DPL
        CFI CFA_SP SP+-1
        PUSH    DPH
        CFI CFA_SP SP+-2
        INC     DPTR
        INC     DPTR
        MOVX    A,@DPTR
        MOV     R0,A
        INC     DPTR
        MOVX    A,@DPTR
        MOV     R1,A
        POP     DPH
        CFI CFA_SP SP+-1
        POP     DPL
        CFI CFA_SP SP+0
        CLR     C
        MOVX    A,@DPTR
        SUBB    A,R0
        INC     DPTR
        MOVX    A,@DPTR
        SUBB    A,R1
        JC      ??SampleApp_Send_P2P_Message_7
//  675       {
//  676         Temp=LIGHT[i+1];
        MOV     A,R6
        CLR     C
        RLC     A
        MOV     R0,A
        CLR     A
        RLC     A
        MOV     R1,A
        MOV     A,#0x15
        LCALL   ?XSTACK_DISP0_8
        MOV     A,DPL
        ADD     A,R0
        MOV     R0,A
        MOV     A,DPH
        ADDC    A,R1
        MOV     R1,A
        MOV     A,R0
        ADD     A,#0x2
        MOV     R2,A
        MOV     A,R1
        ADDC    A,#0x0
        MOV     R3,A
        MOV     DPL,R2
        MOV     DPH,R3
        MOVX    A,@DPTR
        MOV     R4,A
        INC     DPTR
        MOVX    A,@DPTR
        MOV     R5,A
//  677         LIGHT[i+1]=LIGHT[i];
        MOV     DPL,R0
        MOV     DPH,R1
        MOVX    A,@DPTR
        MOV     ?V0 + 0,A
        INC     DPTR
        MOVX    A,@DPTR
        MOV     ?V0 + 1,A
        MOV     DPL,R2
        MOV     DPH,R3
        MOV     A,?V0 + 0
        MOVX    @DPTR,A
        INC     DPTR
        MOV     A,?V0 + 1
        MOVX    @DPTR,A
//  678         LIGHT[i]=Temp;
        MOV     DPL,R0
        MOV     DPH,R1
        MOV     A,R4
        MOVX    @DPTR,A
        INC     DPTR
        MOV     A,R5
        MOVX    @DPTR,A
//  679       }
//  680     }
??SampleApp_Send_P2P_Message_7:
        INC     R6
        MOV     A,R6
        CLR     C
        SUBB    A,#0x2
        JC      ??SampleApp_Send_P2P_Message_6
//  681 //*****************数据转换*******************************************   
//  682 //***************温度***************************
//  683     if(TIMER[1]<0)
        MOV     A,#0x1f
        LCALL   ?XSTACK_DISP0_8
        MOV     R0,#?V0 + 0
        LCALL   ?L_MOV_X
        MOV     DPTR,#__Constant_0
        MOV     R0,#?V0 + 4
        LCALL   ?L_MOV_X
        MOV     R0,#?V0 + 0
        MOV     R1,#?V0 + 4
        LCALL   ?FLT_LT
        MOV     A,#0x5
        JNC     ??SampleApp_Send_P2P_Message_8
//  684     {
//  685       strTemp[5]='-';
        LCALL   ?XSTACK_DISP0_8
        MOV     A,#0x2d
        MOVX    @DPTR,A
//  686       TIMER[1]=-TIMER[1];
        MOV     A,#0x1f
        LCALL   ?XSTACK_DISP0_8
        MOV     R0,#?V0 + 0
        LCALL   ?L_MOV_X
        MOV     A,?V0 + 3
        CPL     0xE0 /* A   */.7
        MOV     ?V0 + 3,A
        MOV     A,#0x1f
        LCALL   ?XSTACK_DISP0_8
        MOV     R0,#?V0 + 0
        LCALL   ?L_MOV_TO_X
        SJMP    ??SampleApp_Send_P2P_Message_9
//  687     }
//  688     else
//  689     {
//  690       strTemp[5]=' ';
??SampleApp_Send_P2P_Message_8:
        LCALL   ?XSTACK_DISP0_8
        MOV     A,#0x20
        MOVX    @DPTR,A
//  691     }
//  692     Temp=(uint16)(TIMER[1]*100);
//  693     Temp%=10000;
??SampleApp_Send_P2P_Message_9:
        MOV     A,#0x1f
        LCALL   ?XSTACK_DISP0_8
        MOV     R0,#?V0 + 0
        LCALL   ?L_MOV_X
        MOV     DPTR,#__Constant_42c80000
        MOV     R0,#?V0 + 4
        LCALL   ?L_MOV_X
        MOV     R0,#?V0 + 0
        MOV     R1,#?V0 + 4
        LCALL   ?FLT_MUL
        MOV     R0,#?V0 + 0
        LCALL   ?FLT_TO_L
        MOV     R0,?V0 + 0
        MOV     R1,?V0 + 1
        MOV     R2,#0x10
        MOV     R3,#0x27
        LCALL   ?US_DIV_MOD
        MOV     ?V0 + 0,R2
        MOV     ?V0 + 1,R3
        MOV     R4,?V0 + 0
        MOV     R5,?V0 + 1
//  694     strTemp[6]=Temp/1000+0x30;
        MOV     A,R4
        MOV     R0,A
        MOV     A,R5
        MOV     R1,A
        MOV     R2,#-0x18
        MOV     R3,#0x3
        LCALL   ?US_DIV_MOD
        MOV     A,R0
        ADD     A,#0x30
        PUSH    A
        CFI CFA_SP SP+-1
        MOV     A,#0x6
        LCALL   ?XSTACK_DISP0_8
        POP     A
        CFI CFA_SP SP+0
        LCALL   ?Subroutine5 & 0xFFFF
//  695     Temp%=1000;
??CrossCallReturnLabel_8:
        LCALL   ?US_DIV_MOD
        MOV     ?V0 + 0,R2
        MOV     ?V0 + 1,R3
        MOV     R4,?V0 + 0
        MOV     R5,?V0 + 1
//  696     strTemp[7]=Temp/100+0x30;
        MOV     A,R4
        MOV     R0,A
        MOV     A,R5
        MOV     R1,A
        MOV     R2,#0x64
        MOV     R3,#0x0
        LCALL   ?US_DIV_MOD
        MOV     A,R0
        ADD     A,#0x30
        PUSH    A
        CFI CFA_SP SP+-1
        MOV     A,#0x7
        LCALL   ?XSTACK_DISP0_8
        POP     A
        CFI CFA_SP SP+0
        LCALL   ?Subroutine6 & 0xFFFF
//  697     Temp%=100;
??CrossCallReturnLabel_10:
        LCALL   ?US_DIV_MOD
        MOV     ?V0 + 0,R2
        MOV     ?V0 + 1,R3
        MOV     R4,?V0 + 0
        MOV     R5,?V0 + 1
//  698     strTemp[8]='.';
        MOV     A,#0x8
        LCALL   ?XSTACK_DISP0_8
        MOV     A,#0x2e
        LCALL   ?Subroutine3 & 0xFFFF
//  699     strTemp[9]=Temp/10+0x30; 
??CrossCallReturnLabel_2:
        LCALL   ?US_DIV_MOD
        MOV     A,R0
        ADD     A,#0x30
        PUSH    A
        CFI CFA_SP SP+-1
        MOV     A,#0x9
        LCALL   ?XSTACK_DISP0_8
        POP     A
        CFI CFA_SP SP+0
        LCALL   ?Subroutine3 & 0xFFFF
//  700     strTemp[10]=Temp%10+0x30;  
??CrossCallReturnLabel_3:
        LCALL   ?US_DIV_MOD
        MOV     A,R2
        ADD     A,#0x30
        PUSH    A
        CFI CFA_SP SP+-1
        MOV     A,#0xa
        LCALL   ?XSTACK_DISP0_8
        POP     A
        CFI CFA_SP SP+0
        MOVX    @DPTR,A
//  701     
//  702 //***************湿度***************************    
//  703     Temp=(uint16)HUM[1];
        MOV     A,#0x2b
        LCALL   ?XSTACK_DISP0_8
        LCALL   ?XLOAD_R2345
        LCALL   ?R2345_FLT_TO_L
        MOV     R4,?V0 + 0
        MOV     R5,?V0 + 1
//  704     if(Temp>=100)
        CLR     C
        MOV     A,R4
        SUBB    A,#0x64
        MOV     A,R5
        SUBB    A,#0x0
        JC      ??SampleApp_Send_P2P_Message_10
//  705     {
//  706         Temp=99;
        MOV     R4,#0x63
        MOV     R5,#0x0
//  707     }
//  708     strTemp[12]=Temp/10+0x30; 
??SampleApp_Send_P2P_Message_10:
        MOV     A,R4
        MOV     R0,A
        MOV     A,R5
        MOV     R1,A
        MOV     R2,#0xa
        MOV     R3,#0x0
        LCALL   ?US_DIV_MOD
        MOV     A,R0
        ADD     A,#0x30
        PUSH    A
        CFI CFA_SP SP+-1
        MOV     A,#0xc
        LCALL   ?XSTACK_DISP0_8
        POP     A
        CFI CFA_SP SP+0
        LCALL   ?Subroutine3 & 0xFFFF
//  709     strTemp[13]=Temp%10+0x30;
??CrossCallReturnLabel_4:
        LCALL   ?US_DIV_MOD
        MOV     A,R2
        ADD     A,#0x30
        PUSH    A
        CFI CFA_SP SP+-1
        MOV     A,#0xd
        LCALL   ?XSTACK_DISP0_8
        POP     A
        CFI CFA_SP SP+0
        MOVX    @DPTR,A
//  710 
//  711 //********温湿度检错***************************    
//  712     if(SHTerror)
        MOV     DPTR,#SHTerror
        MOVX    A,@DPTR
        JZ      ??SampleApp_Send_P2P_Message_11
//  713     {
//  714         osal_memcpy(&strTemp[4],"T-99.99", 7);  //温度错误显示
        ; Setup parameters for call to function osal_memcpy
        MOV     ?V0 + 0,#`?<Constant "T-99.99">` & 0xff
        MOV     ?V0 + 1,#(`?<Constant "T-99.99">` >> 8) & 0xff
        MOV     ?V0 + 2,#0x0
        MOV     R0,#?V0 + 0
        LCALL   ?PUSH_XSTACK_I_THREE
        CFI CFA_XSP16 add(XSP16, 80)
        MOV     R4,#0x7
        MOV     R5,#0x0
        MOV     A,R4
        LCALL   ?XSTACK_DISP0_8
        LCALL   ?Subroutine8 & 0xFFFF
??CrossCallReturnLabel_45:
        LCALL   ?DEALLOC_XSTACK8
        CFI CFA_XSP16 add(XSP16, 77)
//  715         osal_memcpy(&strTemp[11],"H-1", 3);     //湿度错误显示
        ; Setup parameters for call to function osal_memcpy
        MOV     ?V0 + 0,#`?<Constant "H-1">` & 0xff
        MOV     ?V0 + 1,#(`?<Constant "H-1">` >> 8) & 0xff
        MOV     R0,#?V0 + 0
        LCALL   ?PUSH_XSTACK_I_THREE
        CFI CFA_XSP16 add(XSP16, 80)
        MOV     R4,#0x3
        SJMP    ??SampleApp_Send_P2P_Message_12
        CFI CFA_XSP16 add(XSP16, 77)
//  716     }
//  717     else
//  718     {
//  719         osal_memcpy(&strTemp[4],"T", 1);
??SampleApp_Send_P2P_Message_11:
        ; Setup parameters for call to function osal_memcpy
        MOV     ?V0 + 0,#`?<Constant "T">` & 0xff
        MOV     ?V0 + 1,#(`?<Constant "T">` >> 8) & 0xff
        MOV     ?V0 + 2,#0x0
        MOV     R0,#?V0 + 0
        LCALL   ?PUSH_XSTACK_I_THREE
        CFI CFA_XSP16 add(XSP16, 80)
        MOV     R4,#0x1
        MOV     R5,#0x0
        MOV     A,#0x7
        LCALL   ?XSTACK_DISP0_8
        LCALL   ?Subroutine8 & 0xFFFF
??CrossCallReturnLabel_46:
        LCALL   ?DEALLOC_XSTACK8
        CFI CFA_XSP16 add(XSP16, 77)
//  720         osal_memcpy(&strTemp[11],"H", 1);
        ; Setup parameters for call to function osal_memcpy
        MOV     ?V0 + 0,#`?<Constant "H">` & 0xff
        MOV     ?V0 + 1,#(`?<Constant "H">` >> 8) & 0xff
        MOV     R0,#?V0 + 0
        LCALL   ?PUSH_XSTACK_I_THREE
        CFI CFA_XSP16 add(XSP16, 80)
        MOV     R4,#0x1
??SampleApp_Send_P2P_Message_12:
        MOV     R5,#0x0
        MOV     A,#0xe
        LCALL   ?XSTACK_DISP0_8
//  721     }
        LCALL   ?Subroutine8 & 0xFFFF
??CrossCallReturnLabel_47:
        LCALL   ?DEALLOC_XSTACK8
        CFI CFA_XSP16 add(XSP16, 77)
//  722     SHTerror=0;
        MOV     DPTR,#SHTerror
        CLR     A
        MOVX    @DPTR,A
//  723     
//  724 //***************光照**************************   
//  725     Temp=LIGHT[1];
        MOV     A,#0x17
        LCALL   ?XSTACK_DISP0_8
        MOVX    A,@DPTR
        MOV     R4,A
        INC     DPTR
        MOVX    A,@DPTR
        MOV     R5,A
//  726     strTemp[15]=Temp/10000+0x30;
        MOV     A,R4
        MOV     R0,A
        MOV     A,R5
        MOV     R1,A
        MOV     R2,#0x10
        MOV     R3,#0x27
        LCALL   ?US_DIV_MOD
        MOV     A,R0
        ADD     A,#0x30
        PUSH    A
        CFI CFA_SP SP+-1
        MOV     A,#0xf
        LCALL   ?XSTACK_DISP0_8
        POP     A
        CFI CFA_SP SP+0
        LCALL   ?Subroutine18 & 0xFFFF
//  727     Temp%=10000;
??CrossCallReturnLabel_31:
        MOV     R2,#0x10
        MOV     R3,#0x27
        LCALL   ?US_DIV_MOD
        MOV     ?V0 + 0,R2
        MOV     ?V0 + 1,R3
        MOV     R4,?V0 + 0
        MOV     R5,?V0 + 1
//  728     strTemp[16]=Temp/1000+0x30;
        MOV     A,R4
        MOV     R0,A
        MOV     A,R5
        MOV     R1,A
        MOV     R2,#-0x18
        MOV     R3,#0x3
        LCALL   ?US_DIV_MOD
        MOV     A,R0
        ADD     A,#0x30
        PUSH    A
        CFI CFA_SP SP+-1
        MOV     A,#0x10
        LCALL   ?XSTACK_DISP0_8
        POP     A
        CFI CFA_SP SP+0
        LCALL   ?Subroutine5 & 0xFFFF
//  729     Temp%=1000;
??CrossCallReturnLabel_9:
        LCALL   ?US_DIV_MOD
        MOV     ?V0 + 0,R2
        MOV     ?V0 + 1,R3
        MOV     R4,?V0 + 0
        MOV     R5,?V0 + 1
//  730     strTemp[17]=Temp/100+0x30;
        MOV     A,R4
        MOV     R0,A
        MOV     A,R5
        MOV     R1,A
        MOV     R2,#0x64
        MOV     R3,#0x0
        LCALL   ?US_DIV_MOD
        MOV     A,R0
        ADD     A,#0x30
        PUSH    A
        CFI CFA_SP SP+-1
        MOV     A,#0x11
        LCALL   ?XSTACK_DISP0_8
        POP     A
        CFI CFA_SP SP+0
        LCALL   ?Subroutine6 & 0xFFFF
//  731     Temp%=100;
??CrossCallReturnLabel_11:
        LCALL   ?US_DIV_MOD
        MOV     ?V0 + 0,R2
        MOV     ?V0 + 1,R3
        MOV     R4,?V0 + 0
        MOV     R5,?V0 + 1
//  732     strTemp[18]=Temp/10+0x30;  
        MOV     A,R4
        MOV     R0,A
        MOV     A,R5
        MOV     R1,A
        MOV     R2,#0xa
        MOV     R3,#0x0
        LCALL   ?US_DIV_MOD
        MOV     A,R0
        ADD     A,#0x30
        PUSH    A
        CFI CFA_SP SP+-1
        MOV     A,#0x12
        LCALL   ?XSTACK_DISP0_8
        POP     A
        CFI CFA_SP SP+0
        LCALL   ?Subroutine3 & 0xFFFF
//  733     strTemp[19]=Temp%10+0x30; 
??CrossCallReturnLabel_5:
        LCALL   ?US_DIV_MOD
        MOV     A,R2
        ADD     A,#0x30
        PUSH    A
        CFI CFA_SP SP+-1
        MOV     A,#0x13
        LCALL   ?XSTACK_DISP0_8
        POP     A
        CFI CFA_SP SP+0
        MOVX    @DPTR,A
//  734     
//  735 //***********光照检错*************************** 
//  736     if(LUXerror)
        MOV     DPTR,#LUXerror
        MOVX    A,@DPTR
        JZ      ??SampleApp_Send_P2P_Message_13
//  737     {
//  738         osal_memcpy(&strTemp[14],"I65535", 6);
        ; Setup parameters for call to function osal_memcpy
        MOV     ?V0 + 0,#`?<Constant "I65535">` & 0xff
        MOV     ?V0 + 1,#(`?<Constant "I65535">` >> 8) & 0xff
        MOV     R0,#?V0 + 0
        LCALL   ?PUSH_XSTACK_I_THREE
        CFI CFA_XSP16 add(XSP16, 80)
        MOV     R4,#0x6
        SJMP    ??SampleApp_Send_P2P_Message_14
        CFI CFA_XSP16 add(XSP16, 77)
//  739     }                                        
//  740     else
//  741     {
//  742       osal_memcpy(&strTemp[14],"I", 1);
??SampleApp_Send_P2P_Message_13:
        ; Setup parameters for call to function osal_memcpy
        MOV     ?V0 + 0,#`?<Constant "I">` & 0xff
        MOV     ?V0 + 1,#(`?<Constant "I">` >> 8) & 0xff
        MOV     R0,#?V0 + 0
        LCALL   ?PUSH_XSTACK_I_THREE
        CFI CFA_XSP16 add(XSP16, 80)
        MOV     R4,#0x1
??SampleApp_Send_P2P_Message_14:
        MOV     R5,#0x0
        MOV     A,#0x11
        LCALL   ?XSTACK_DISP0_8
//  743     }
        LCALL   ?Subroutine8 & 0xFFFF
??CrossCallReturnLabel_48:
        LCALL   ?DEALLOC_XSTACK8
        CFI CFA_XSP16 add(XSP16, 77)
//  744     LUXerror=0;
        MOV     DPTR,#LUXerror
        CLR     A
        MOVX    @DPTR,A
//  745     strTemp[20]='@';
        MOV     A,#0x14
        LCALL   ?XSTACK_DISP0_8
        MOV     A,#0x40
        MOVX    @DPTR,A
//  746 //************消去数据首零***********************
//  747      if(strTemp[6]=='0')
        MOV     A,#0x6
        LCALL   ?XSTACK_DISP0_8
        MOVX    A,@DPTR
        XRL     A,#0x30
        JNZ     ??SampleApp_Send_P2P_Message_15
//  748      {
//  749         strTemp[6]=' ';
        MOV     A,#0x20
        MOVX    @DPTR,A
//  750      }
//  751      if(strTemp[12]=='0')
??SampleApp_Send_P2P_Message_15:
        MOV     A,#0xc
        LCALL   ?XSTACK_DISP0_8
        MOVX    A,@DPTR
        XRL     A,#0x30
        JNZ     ??SampleApp_Send_P2P_Message_16
//  752      {
//  753         strTemp[12]=' ';
        MOV     A,#0x20
        MOVX    @DPTR,A
//  754      }
//  755      for(i=0;i<4;i++)
??SampleApp_Send_P2P_Message_16:
        MOV     R6,#0x0
//  756      {
//  757         if(strTemp[15+i]=='0')
??SampleApp_Send_P2P_Message_17:
        MOV     ?V0 + 0,R6
        MOV     DPL,?XSP + 0
        MOV     DPH,?XSP + 1
        MOV     A,DPL
        ADD     A,?V0 + 0
        MOV     R0,A
        MOV     A,DPH
        ADDC    A,#0x0
        MOV     R1,A
        MOV     A,R0
        ADD     A,#0xf
        MOV     DPL,A
        MOV     A,R1
        ADDC    A,#0x0
        MOV     DPH,A
        MOVX    A,@DPTR
        XRL     A,#0x30
        JNZ     ??SampleApp_Send_P2P_Message_18
//  758         {
//  759           strTemp[15+i]=' ';
        MOV     A,#0x20
        MOVX    @DPTR,A
//  760         }
//  761         else
//  762         {
//  763           break;
//  764         }
//  765      } 
        INC     R6
        MOV     A,R6
        CLR     C
        SUBB    A,#0x4
        JC      ??SampleApp_Send_P2P_Message_17
//  766 //**************清空数组**************************
//  767      osal_memset(TIMER,0,sizeof(TIMER));
??SampleApp_Send_P2P_Message_18:
        ; Setup parameters for call to function osal_memset
        MOV     R4,#0xc
        MOV     R5,#0x0
        MOV     R1,#0x0
        MOV     A,#0x1b
        LCALL   ?XSTACK_DISP0_8
        MOV     R2,DPL
        MOV     R3,DPH
        LCALL   ??osal_memset?relay
//  768      osal_memset(HUM,0,sizeof(HUM));
        ; Setup parameters for call to function osal_memset
        MOV     R4,#0xc
        MOV     R5,#0x0
        MOV     R1,#0x0
        MOV     A,#0x27
        LCALL   ?XSTACK_DISP0_8
        MOV     R2,DPL
        MOV     R3,DPH
        LCALL   ??osal_memset?relay
//  769      osal_memset(LIGHT,0,sizeof(LIGHT));
        ; Setup parameters for call to function osal_memset
        MOV     R4,#0x6
        MOV     R5,#0x0
        MOV     R1,#0x0
        MOV     A,#0x15
        LCALL   ?XSTACK_DISP0_8
        MOV     R2,DPL
        MOV     R3,DPH
        LCALL   ??osal_memset?relay
//  770 
//  771 //**************发送******************************    
//  772     if ( AF_DataRequest( &SampleApp_P2P_DstAddr, &SampleApp_epDesc, 
//  773                           SAMPLEAPP_P2P_CLUSTERID, 
//  774                           21, 
//  775                           strTemp, 
//  776                           &SampleApp_TransID, 
//  777                           AF_DISCV_ROUTE, 
//  778                           AF_DEFAULT_RADIUS ) == afStatus_SUCCESS ) 
        ; Setup parameters for call to function AF_DataRequest
        MOV     ?V0 + 0,#0x1e
        MOV     R0,#?V0 + 0
        LCALL   ?PUSH_XSTACK_I_ONE
        CFI CFA_XSP16 add(XSP16, 78)
        MOV     ?V0 + 0,#SampleApp_TransID & 0xff
        MOV     ?V0 + 1,#(SampleApp_TransID >> 8) & 0xff
        MOV     R0,#?V0 + 0
        LCALL   ?PUSH_XSTACK_I_TWO
        CFI CFA_XSP16 add(XSP16, 80)
        MOV     A,#0x3
        LCALL   ?XSTACK_DISP0_8
        MOV     ?V0 + 0,DPL
        MOV     ?V0 + 1,DPH
        MOV     R0,#?V0 + 0
        LCALL   ?PUSH_XSTACK_I_TWO
        CFI CFA_XSP16 add(XSP16, 82)
        MOV     ?V0 + 0,#0x15
        MOV     ?V0 + 1,#0x0
        MOV     R0,#?V0 + 0
        LCALL   ?PUSH_XSTACK_I_TWO
        CFI CFA_XSP16 add(XSP16, 84)
        MOV     ?V0 + 0,#0x4
        SJMP    ??SampleApp_Send_P2P_Message_19
        CFI CFA_XSP16 add(XSP16, 77)
//  779     { 
//  780     }
//  781     else 
//  782     { 
//  783         // Error occurred in request to send. 
//  784     } 
//  785   }
//  786 //*****************发送时间同步请求*******************************************//
//  787   else if(select==0x02)
??SampleApp_Send_P2P_Message_0:
        MOV     A,#0x2
        XRL     A,R7
        JNZ     ??SampleApp_Send_P2P_Message_20
//  788   {  
//  789     if ( AF_DataRequest( &SampleApp_P2P_DstAddr, &SampleApp_epDesc, 
//  790                           SAMPLEAPP_P2P_CLUSTERID, 
//  791                           4, 
//  792                           timerq, 
//  793                           &SampleApp_TransID, 
//  794                           AF_DISCV_ROUTE, 
//  795                           AF_DEFAULT_RADIUS ) == afStatus_SUCCESS ) 
        ; Setup parameters for call to function AF_DataRequest
        MOV     ?V0 + 0,#0x1e
        MOV     R0,#?V0 + 0
        LCALL   ?PUSH_XSTACK_I_ONE
        CFI CFA_XSP16 add(XSP16, 78)
        MOV     ?V0 + 0,#SampleApp_TransID & 0xff
        MOV     ?V0 + 1,#(SampleApp_TransID >> 8) & 0xff
        MOV     R0,#?V0 + 0
        LCALL   ?PUSH_XSTACK_I_TWO
        CFI CFA_XSP16 add(XSP16, 80)
        MOV     A,#0x36
        LCALL   ?XSTACK_DISP0_8
        MOV     ?V0 + 0,DPL
        MOV     ?V0 + 1,DPH
        MOV     R0,#?V0 + 0
        LCALL   ?PUSH_XSTACK_I_TWO
        CFI CFA_XSP16 add(XSP16, 82)
        MOV     ?V0 + 0,#0x4
        MOV     ?V0 + 1,#0x0
        MOV     R0,#?V0 + 0
        LCALL   ?PUSH_XSTACK_I_TWO
        CFI CFA_XSP16 add(XSP16, 84)
??SampleApp_Send_P2P_Message_19:
        MOV     R0,#?V0 + 0
        LCALL   ?PUSH_XSTACK_I_TWO
        CFI CFA_XSP16 add(XSP16, 86)
        MOV     R1,#0x20
        MOV     R4,#SampleApp_epDesc & 0xff
        MOV     R5,#(SampleApp_epDesc >> 8) & 0xff
        MOV     R2,#SampleApp_P2P_DstAddr & 0xff
        MOV     R3,#(SampleApp_P2P_DstAddr >> 8) & 0xff
        LCALL   ??AF_DataRequest?relay
        MOV     A,#0x9
        LCALL   ?DEALLOC_XSTACK8
        CFI CFA_XSP16 add(XSP16, 77)
//  796     { 
//  797     }
//  798     else 
//  799     { 
//  800         // Error occurred in request to send. 
//  801     } 
//  802   }
//  803 } 
??SampleApp_Send_P2P_Message_20:
        MOV     A,#0x3d
        LJMP    ?Subroutine1 & 0xFFFF
        CFI EndBlock cfiBlock59

        RSEG BANKED_CODE:CODE:NOROOT(0)
?Subroutine13:
        CFI Block cfiCond60 Using cfiCommon0
        CFI NoFunction
        CFI Conditional ??CrossCallReturnLabel_20
        CFI R6 load(1, XDATA, add(CFA_XSP16, literal(-16)))
        CFI VB load(1, XDATA, add(CFA_XSP16, literal(-15)))
        CFI V0 load(1, XDATA, add(CFA_XSP16, literal(-14)))
        CFI V1 load(1, XDATA, add(CFA_XSP16, literal(-13)))
        CFI V2 load(1, XDATA, add(CFA_XSP16, literal(-12)))
        CFI V3 load(1, XDATA, add(CFA_XSP16, literal(-11)))
        CFI V4 load(1, XDATA, add(CFA_XSP16, literal(-10)))
        CFI V5 load(1, XDATA, add(CFA_XSP16, literal(-9)))
        CFI V6 load(1, XDATA, add(CFA_XSP16, literal(-8)))
        CFI V7 load(1, XDATA, add(CFA_XSP16, literal(-7)))
        CFI R7 load(1, XDATA, add(CFA_XSP16, literal(-6)))
        CFI ?RET_LOW load(1, XDATA, add(CFA_XSP16, literal(-5)))
        CFI ?RET_HIGH load(1, XDATA, add(CFA_XSP16, literal(-4)))
        CFI ?BRET_EXT load(1, XDATA, add(CFA_XSP16, literal(-3)))
        CFI DPL0 load(1, XDATA, add(CFA_XSP16, literal(-2)))
        CFI DPH0 load(1, XDATA, add(CFA_XSP16, literal(-1)))
        CFI CFA_SP SP+0
        CFI CFA_XSP16 add(XSP16, 77)
        CFI Block cfiCond61 Using cfiCommon0
        CFI (cfiCond61) NoFunction
        CFI (cfiCond61) Conditional ??CrossCallReturnLabel_21
        CFI (cfiCond61) R6 load(1, XDATA, add(CFA_XSP16, literal(-16)))
        CFI (cfiCond61) VB load(1, XDATA, add(CFA_XSP16, literal(-15)))
        CFI (cfiCond61) V0 load(1, XDATA, add(CFA_XSP16, literal(-14)))
        CFI (cfiCond61) V1 load(1, XDATA, add(CFA_XSP16, literal(-13)))
        CFI (cfiCond61) V2 load(1, XDATA, add(CFA_XSP16, literal(-12)))
        CFI (cfiCond61) V3 load(1, XDATA, add(CFA_XSP16, literal(-11)))
        CFI (cfiCond61) V4 load(1, XDATA, add(CFA_XSP16, literal(-10)))
        CFI (cfiCond61) V5 load(1, XDATA, add(CFA_XSP16, literal(-9)))
        CFI (cfiCond61) V6 load(1, XDATA, add(CFA_XSP16, literal(-8)))
        CFI (cfiCond61) V7 load(1, XDATA, add(CFA_XSP16, literal(-7)))
        CFI (cfiCond61) R7 load(1, XDATA, add(CFA_XSP16, literal(-6)))
        CFI (cfiCond61) ?RET_LOW load(1, XDATA, add(CFA_XSP16, literal(-5)))
        CFI (cfiCond61) ?RET_HIGH load(1, XDATA, add(CFA_XSP16, literal(-4)))
        CFI (cfiCond61) ?BRET_EXT load(1, XDATA, add(CFA_XSP16, literal(-3)))
        CFI (cfiCond61) DPL0 load(1, XDATA, add(CFA_XSP16, literal(-2)))
        CFI (cfiCond61) DPH0 load(1, XDATA, add(CFA_XSP16, literal(-1)))
        CFI (cfiCond61) CFA_SP SP+0
        CFI (cfiCond61) CFA_XSP16 add(XSP16, 77)
        CFI Block cfiCond62 Using cfiCommon0
        CFI (cfiCond62) NoFunction
        CFI (cfiCond62) Conditional ??CrossCallReturnLabel_22
        CFI (cfiCond62) R6 load(1, XDATA, add(CFA_XSP16, literal(-16)))
        CFI (cfiCond62) VB load(1, XDATA, add(CFA_XSP16, literal(-15)))
        CFI (cfiCond62) V0 load(1, XDATA, add(CFA_XSP16, literal(-14)))
        CFI (cfiCond62) V1 load(1, XDATA, add(CFA_XSP16, literal(-13)))
        CFI (cfiCond62) V2 load(1, XDATA, add(CFA_XSP16, literal(-12)))
        CFI (cfiCond62) V3 load(1, XDATA, add(CFA_XSP16, literal(-11)))
        CFI (cfiCond62) V4 load(1, XDATA, add(CFA_XSP16, literal(-10)))
        CFI (cfiCond62) V5 load(1, XDATA, add(CFA_XSP16, literal(-9)))
        CFI (cfiCond62) V6 load(1, XDATA, add(CFA_XSP16, literal(-8)))
        CFI (cfiCond62) V7 load(1, XDATA, add(CFA_XSP16, literal(-7)))
        CFI (cfiCond62) R7 load(1, XDATA, add(CFA_XSP16, literal(-6)))
        CFI (cfiCond62) ?RET_LOW load(1, XDATA, add(CFA_XSP16, literal(-5)))
        CFI (cfiCond62) ?RET_HIGH load(1, XDATA, add(CFA_XSP16, literal(-4)))
        CFI (cfiCond62) ?BRET_EXT load(1, XDATA, add(CFA_XSP16, literal(-3)))
        CFI (cfiCond62) DPL0 load(1, XDATA, add(CFA_XSP16, literal(-2)))
        CFI (cfiCond62) DPH0 load(1, XDATA, add(CFA_XSP16, literal(-1)))
        CFI (cfiCond62) CFA_SP SP+0
        CFI (cfiCond62) CFA_XSP16 add(XSP16, 77)
        CFI Block cfiPicker63 Using cfiCommon1
        CFI (cfiPicker63) NoFunction
        CFI (cfiPicker63) Picker
        MOV     A,DPL
        ADD     A,R0
        MOV     DPL,A
        MOV     A,DPH
        ADDC    A,R1
        MOV     DPH,A
        RET
        CFI EndBlock cfiCond60
        CFI EndBlock cfiCond61
        CFI EndBlock cfiCond62
        CFI EndBlock cfiPicker63

        RSEG BANKED_CODE:CODE:NOROOT(0)
?Subroutine12:
        CFI Block cfiCond64 Using cfiCommon0
        CFI NoFunction
        CFI Conditional ??CrossCallReturnLabel_18
        CFI R6 load(1, XDATA, add(CFA_XSP16, literal(-16)))
        CFI VB load(1, XDATA, add(CFA_XSP16, literal(-15)))
        CFI V0 load(1, XDATA, add(CFA_XSP16, literal(-14)))
        CFI V1 load(1, XDATA, add(CFA_XSP16, literal(-13)))
        CFI V2 load(1, XDATA, add(CFA_XSP16, literal(-12)))
        CFI V3 load(1, XDATA, add(CFA_XSP16, literal(-11)))
        CFI V4 load(1, XDATA, add(CFA_XSP16, literal(-10)))
        CFI V5 load(1, XDATA, add(CFA_XSP16, literal(-9)))
        CFI V6 load(1, XDATA, add(CFA_XSP16, literal(-8)))
        CFI V7 load(1, XDATA, add(CFA_XSP16, literal(-7)))
        CFI R7 load(1, XDATA, add(CFA_XSP16, literal(-6)))
        CFI ?RET_LOW load(1, XDATA, add(CFA_XSP16, literal(-5)))
        CFI ?RET_HIGH load(1, XDATA, add(CFA_XSP16, literal(-4)))
        CFI ?BRET_EXT load(1, XDATA, add(CFA_XSP16, literal(-3)))
        CFI DPL0 load(1, XDATA, add(CFA_XSP16, literal(-2)))
        CFI DPH0 load(1, XDATA, add(CFA_XSP16, literal(-1)))
        CFI CFA_SP SP+0
        CFI CFA_XSP16 add(XSP16, 77)
        CFI Block cfiCond65 Using cfiCommon0
        CFI (cfiCond65) NoFunction
        CFI (cfiCond65) Conditional ??CrossCallReturnLabel_19
        CFI (cfiCond65) R6 load(1, XDATA, add(CFA_XSP16, literal(-16)))
        CFI (cfiCond65) VB load(1, XDATA, add(CFA_XSP16, literal(-15)))
        CFI (cfiCond65) V0 load(1, XDATA, add(CFA_XSP16, literal(-14)))
        CFI (cfiCond65) V1 load(1, XDATA, add(CFA_XSP16, literal(-13)))
        CFI (cfiCond65) V2 load(1, XDATA, add(CFA_XSP16, literal(-12)))
        CFI (cfiCond65) V3 load(1, XDATA, add(CFA_XSP16, literal(-11)))
        CFI (cfiCond65) V4 load(1, XDATA, add(CFA_XSP16, literal(-10)))
        CFI (cfiCond65) V5 load(1, XDATA, add(CFA_XSP16, literal(-9)))
        CFI (cfiCond65) V6 load(1, XDATA, add(CFA_XSP16, literal(-8)))
        CFI (cfiCond65) V7 load(1, XDATA, add(CFA_XSP16, literal(-7)))
        CFI (cfiCond65) R7 load(1, XDATA, add(CFA_XSP16, literal(-6)))
        CFI (cfiCond65) ?RET_LOW load(1, XDATA, add(CFA_XSP16, literal(-5)))
        CFI (cfiCond65) ?RET_HIGH load(1, XDATA, add(CFA_XSP16, literal(-4)))
        CFI (cfiCond65) ?BRET_EXT load(1, XDATA, add(CFA_XSP16, literal(-3)))
        CFI (cfiCond65) DPL0 load(1, XDATA, add(CFA_XSP16, literal(-2)))
        CFI (cfiCond65) DPH0 load(1, XDATA, add(CFA_XSP16, literal(-1)))
        CFI (cfiCond65) CFA_SP SP+0
        CFI (cfiCond65) CFA_XSP16 add(XSP16, 77)
        CFI Block cfiPicker66 Using cfiCommon1
        CFI (cfiPicker66) NoFunction
        CFI (cfiPicker66) Picker
        LCALL   ?Subroutine19 & 0xFFFF
??CrossCallReturnLabel_36:
        MOV     DPL,?V0 + 4
        MOV     DPH,A
        MOV     R0,#?V0 + 0
        RET
        CFI EndBlock cfiCond64
        CFI EndBlock cfiCond65
        CFI EndBlock cfiPicker66

        RSEG BANKED_CODE:CODE:NOROOT(0)
?Subroutine11:
        CFI Block cfiCond67 Using cfiCommon0
        CFI NoFunction
        CFI Conditional ??CrossCallReturnLabel_16
        CFI R6 load(1, XDATA, add(CFA_XSP16, literal(-16)))
        CFI VB load(1, XDATA, add(CFA_XSP16, literal(-15)))
        CFI V0 load(1, XDATA, add(CFA_XSP16, literal(-14)))
        CFI V1 load(1, XDATA, add(CFA_XSP16, literal(-13)))
        CFI V2 load(1, XDATA, add(CFA_XSP16, literal(-12)))
        CFI V3 load(1, XDATA, add(CFA_XSP16, literal(-11)))
        CFI V4 load(1, XDATA, add(CFA_XSP16, literal(-10)))
        CFI V5 load(1, XDATA, add(CFA_XSP16, literal(-9)))
        CFI V6 load(1, XDATA, add(CFA_XSP16, literal(-8)))
        CFI V7 load(1, XDATA, add(CFA_XSP16, literal(-7)))
        CFI R7 load(1, XDATA, add(CFA_XSP16, literal(-6)))
        CFI ?RET_LOW load(1, XDATA, add(CFA_XSP16, literal(-5)))
        CFI ?RET_HIGH load(1, XDATA, add(CFA_XSP16, literal(-4)))
        CFI ?BRET_EXT load(1, XDATA, add(CFA_XSP16, literal(-3)))
        CFI DPL0 load(1, XDATA, add(CFA_XSP16, literal(-2)))
        CFI DPH0 load(1, XDATA, add(CFA_XSP16, literal(-1)))
        CFI CFA_SP SP+0
        CFI CFA_XSP16 add(XSP16, 77)
        CFI Block cfiCond68 Using cfiCommon0
        CFI (cfiCond68) NoFunction
        CFI (cfiCond68) Conditional ??CrossCallReturnLabel_17
        CFI (cfiCond68) R6 load(1, XDATA, add(CFA_XSP16, literal(-16)))
        CFI (cfiCond68) VB load(1, XDATA, add(CFA_XSP16, literal(-15)))
        CFI (cfiCond68) V0 load(1, XDATA, add(CFA_XSP16, literal(-14)))
        CFI (cfiCond68) V1 load(1, XDATA, add(CFA_XSP16, literal(-13)))
        CFI (cfiCond68) V2 load(1, XDATA, add(CFA_XSP16, literal(-12)))
        CFI (cfiCond68) V3 load(1, XDATA, add(CFA_XSP16, literal(-11)))
        CFI (cfiCond68) V4 load(1, XDATA, add(CFA_XSP16, literal(-10)))
        CFI (cfiCond68) V5 load(1, XDATA, add(CFA_XSP16, literal(-9)))
        CFI (cfiCond68) V6 load(1, XDATA, add(CFA_XSP16, literal(-8)))
        CFI (cfiCond68) V7 load(1, XDATA, add(CFA_XSP16, literal(-7)))
        CFI (cfiCond68) R7 load(1, XDATA, add(CFA_XSP16, literal(-6)))
        CFI (cfiCond68) ?RET_LOW load(1, XDATA, add(CFA_XSP16, literal(-5)))
        CFI (cfiCond68) ?RET_HIGH load(1, XDATA, add(CFA_XSP16, literal(-4)))
        CFI (cfiCond68) ?BRET_EXT load(1, XDATA, add(CFA_XSP16, literal(-3)))
        CFI (cfiCond68) DPL0 load(1, XDATA, add(CFA_XSP16, literal(-2)))
        CFI (cfiCond68) DPH0 load(1, XDATA, add(CFA_XSP16, literal(-1)))
        CFI (cfiCond68) CFA_SP SP+0
        CFI (cfiCond68) CFA_XSP16 add(XSP16, 77)
        CFI Block cfiPicker69 Using cfiCommon1
        CFI (cfiPicker69) NoFunction
        CFI (cfiPicker69) Picker
        LCALL   ?Subroutine19 & 0xFFFF
??CrossCallReturnLabel_35:
        MOV     A,?V0 + 4
        ADD     A,#0x4
        MOV     ?V0 + 6,A
        MOV     A,?V0 + 5
        ADDC    A,#0x0
        MOV     ?V0 + 7,A
        MOV     DPL,?V0 + 6
        MOV     DPH,A
        MOV     R0,#?V0 + 0
        RET
        CFI EndBlock cfiCond67
        CFI EndBlock cfiCond68
        CFI EndBlock cfiPicker69

        RSEG BANKED_CODE:CODE:NOROOT(0)
?Subroutine19:
        CFI Block cfiCond70 Using cfiCommon0
        CFI NoFunction
        CFI Conditional ??CrossCallReturnLabel_36, ??CrossCallReturnLabel_18
        CFI R6 load(1, XDATA, add(CFA_XSP16, literal(-16)))
        CFI VB load(1, XDATA, add(CFA_XSP16, literal(-15)))
        CFI V0 load(1, XDATA, add(CFA_XSP16, literal(-14)))
        CFI V1 load(1, XDATA, add(CFA_XSP16, literal(-13)))
        CFI V2 load(1, XDATA, add(CFA_XSP16, literal(-12)))
        CFI V3 load(1, XDATA, add(CFA_XSP16, literal(-11)))
        CFI V4 load(1, XDATA, add(CFA_XSP16, literal(-10)))
        CFI V5 load(1, XDATA, add(CFA_XSP16, literal(-9)))
        CFI V6 load(1, XDATA, add(CFA_XSP16, literal(-8)))
        CFI V7 load(1, XDATA, add(CFA_XSP16, literal(-7)))
        CFI R7 load(1, XDATA, add(CFA_XSP16, literal(-6)))
        CFI ?RET_LOW load(1, XDATA, add(CFA_XSP16, literal(-5)))
        CFI ?RET_HIGH load(1, XDATA, add(CFA_XSP16, literal(-4)))
        CFI ?BRET_EXT load(1, XDATA, add(CFA_XSP16, literal(-3)))
        CFI DPL0 load(1, XDATA, add(CFA_XSP16, literal(-2)))
        CFI DPH0 load(1, XDATA, add(CFA_XSP16, literal(-1)))
        CFI CFA_SP SP+0
        CFI CFA_XSP16 add(XSP16, 77)
        CFI Block cfiCond71 Using cfiCommon0
        CFI (cfiCond71) NoFunction
        CFI (cfiCond71) Conditional ??CrossCallReturnLabel_36, ??CrossCallReturnLabel_19
        CFI (cfiCond71) R6 load(1, XDATA, add(CFA_XSP16, literal(-16)))
        CFI (cfiCond71) VB load(1, XDATA, add(CFA_XSP16, literal(-15)))
        CFI (cfiCond71) V0 load(1, XDATA, add(CFA_XSP16, literal(-14)))
        CFI (cfiCond71) V1 load(1, XDATA, add(CFA_XSP16, literal(-13)))
        CFI (cfiCond71) V2 load(1, XDATA, add(CFA_XSP16, literal(-12)))
        CFI (cfiCond71) V3 load(1, XDATA, add(CFA_XSP16, literal(-11)))
        CFI (cfiCond71) V4 load(1, XDATA, add(CFA_XSP16, literal(-10)))
        CFI (cfiCond71) V5 load(1, XDATA, add(CFA_XSP16, literal(-9)))
        CFI (cfiCond71) V6 load(1, XDATA, add(CFA_XSP16, literal(-8)))
        CFI (cfiCond71) V7 load(1, XDATA, add(CFA_XSP16, literal(-7)))
        CFI (cfiCond71) R7 load(1, XDATA, add(CFA_XSP16, literal(-6)))
        CFI (cfiCond71) ?RET_LOW load(1, XDATA, add(CFA_XSP16, literal(-5)))
        CFI (cfiCond71) ?RET_HIGH load(1, XDATA, add(CFA_XSP16, literal(-4)))
        CFI (cfiCond71) ?BRET_EXT load(1, XDATA, add(CFA_XSP16, literal(-3)))
        CFI (cfiCond71) DPL0 load(1, XDATA, add(CFA_XSP16, literal(-2)))
        CFI (cfiCond71) DPH0 load(1, XDATA, add(CFA_XSP16, literal(-1)))
        CFI (cfiCond71) CFA_SP SP+0
        CFI (cfiCond71) CFA_XSP16 add(XSP16, 77)
        CFI Block cfiCond72 Using cfiCommon0
        CFI (cfiCond72) NoFunction
        CFI (cfiCond72) Conditional ??CrossCallReturnLabel_35, ??CrossCallReturnLabel_16
        CFI (cfiCond72) R6 load(1, XDATA, add(CFA_XSP16, literal(-16)))
        CFI (cfiCond72) VB load(1, XDATA, add(CFA_XSP16, literal(-15)))
        CFI (cfiCond72) V0 load(1, XDATA, add(CFA_XSP16, literal(-14)))
        CFI (cfiCond72) V1 load(1, XDATA, add(CFA_XSP16, literal(-13)))
        CFI (cfiCond72) V2 load(1, XDATA, add(CFA_XSP16, literal(-12)))
        CFI (cfiCond72) V3 load(1, XDATA, add(CFA_XSP16, literal(-11)))
        CFI (cfiCond72) V4 load(1, XDATA, add(CFA_XSP16, literal(-10)))
        CFI (cfiCond72) V5 load(1, XDATA, add(CFA_XSP16, literal(-9)))
        CFI (cfiCond72) V6 load(1, XDATA, add(CFA_XSP16, literal(-8)))
        CFI (cfiCond72) V7 load(1, XDATA, add(CFA_XSP16, literal(-7)))
        CFI (cfiCond72) R7 load(1, XDATA, add(CFA_XSP16, literal(-6)))
        CFI (cfiCond72) ?RET_LOW load(1, XDATA, add(CFA_XSP16, literal(-5)))
        CFI (cfiCond72) ?RET_HIGH load(1, XDATA, add(CFA_XSP16, literal(-4)))
        CFI (cfiCond72) ?BRET_EXT load(1, XDATA, add(CFA_XSP16, literal(-3)))
        CFI (cfiCond72) DPL0 load(1, XDATA, add(CFA_XSP16, literal(-2)))
        CFI (cfiCond72) DPH0 load(1, XDATA, add(CFA_XSP16, literal(-1)))
        CFI (cfiCond72) CFA_SP SP+0
        CFI (cfiCond72) CFA_XSP16 add(XSP16, 77)
        CFI Block cfiCond73 Using cfiCommon0
        CFI (cfiCond73) NoFunction
        CFI (cfiCond73) Conditional ??CrossCallReturnLabel_35, ??CrossCallReturnLabel_17
        CFI (cfiCond73) R6 load(1, XDATA, add(CFA_XSP16, literal(-16)))
        CFI (cfiCond73) VB load(1, XDATA, add(CFA_XSP16, literal(-15)))
        CFI (cfiCond73) V0 load(1, XDATA, add(CFA_XSP16, literal(-14)))
        CFI (cfiCond73) V1 load(1, XDATA, add(CFA_XSP16, literal(-13)))
        CFI (cfiCond73) V2 load(1, XDATA, add(CFA_XSP16, literal(-12)))
        CFI (cfiCond73) V3 load(1, XDATA, add(CFA_XSP16, literal(-11)))
        CFI (cfiCond73) V4 load(1, XDATA, add(CFA_XSP16, literal(-10)))
        CFI (cfiCond73) V5 load(1, XDATA, add(CFA_XSP16, literal(-9)))
        CFI (cfiCond73) V6 load(1, XDATA, add(CFA_XSP16, literal(-8)))
        CFI (cfiCond73) V7 load(1, XDATA, add(CFA_XSP16, literal(-7)))
        CFI (cfiCond73) R7 load(1, XDATA, add(CFA_XSP16, literal(-6)))
        CFI (cfiCond73) ?RET_LOW load(1, XDATA, add(CFA_XSP16, literal(-5)))
        CFI (cfiCond73) ?RET_HIGH load(1, XDATA, add(CFA_XSP16, literal(-4)))
        CFI (cfiCond73) ?BRET_EXT load(1, XDATA, add(CFA_XSP16, literal(-3)))
        CFI (cfiCond73) DPL0 load(1, XDATA, add(CFA_XSP16, literal(-2)))
        CFI (cfiCond73) DPH0 load(1, XDATA, add(CFA_XSP16, literal(-1)))
        CFI (cfiCond73) CFA_SP SP+0
        CFI (cfiCond73) CFA_XSP16 add(XSP16, 77)
        CFI Block cfiPicker74 Using cfiCommon1
        CFI (cfiPicker74) NoFunction
        CFI (cfiPicker74) Picker
        MOV     A,DPL
        ADD     A,R0
        MOV     ?V0 + 4,A
        MOV     A,DPH
        ADDC    A,R1
        MOV     ?V0 + 5,A
        RET
        CFI EndBlock cfiCond70
        CFI EndBlock cfiCond71
        CFI EndBlock cfiCond72
        CFI EndBlock cfiCond73
        CFI EndBlock cfiPicker74

        RSEG BANKED_CODE:CODE:NOROOT(0)
?Subroutine7:
        CFI Block cfiCond75 Using cfiCommon0
        CFI NoFunction
        CFI Conditional ??CrossCallReturnLabel_12
        CFI R6 load(1, XDATA, add(CFA_XSP16, literal(-16)))
        CFI VB load(1, XDATA, add(CFA_XSP16, literal(-15)))
        CFI V0 load(1, XDATA, add(CFA_XSP16, literal(-14)))
        CFI V1 load(1, XDATA, add(CFA_XSP16, literal(-13)))
        CFI V2 load(1, XDATA, add(CFA_XSP16, literal(-12)))
        CFI V3 load(1, XDATA, add(CFA_XSP16, literal(-11)))
        CFI V4 load(1, XDATA, add(CFA_XSP16, literal(-10)))
        CFI V5 load(1, XDATA, add(CFA_XSP16, literal(-9)))
        CFI V6 load(1, XDATA, add(CFA_XSP16, literal(-8)))
        CFI V7 load(1, XDATA, add(CFA_XSP16, literal(-7)))
        CFI R7 load(1, XDATA, add(CFA_XSP16, literal(-6)))
        CFI ?RET_LOW load(1, XDATA, add(CFA_XSP16, literal(-5)))
        CFI ?RET_HIGH load(1, XDATA, add(CFA_XSP16, literal(-4)))
        CFI ?BRET_EXT load(1, XDATA, add(CFA_XSP16, literal(-3)))
        CFI DPL0 load(1, XDATA, add(CFA_XSP16, literal(-2)))
        CFI DPH0 load(1, XDATA, add(CFA_XSP16, literal(-1)))
        CFI CFA_SP SP+0
        CFI CFA_XSP16 add(XSP16, 77)
        CFI Block cfiCond76 Using cfiCommon0
        CFI (cfiCond76) NoFunction
        CFI (cfiCond76) Conditional ??CrossCallReturnLabel_13
        CFI (cfiCond76) R6 load(1, XDATA, add(CFA_XSP16, literal(-16)))
        CFI (cfiCond76) VB load(1, XDATA, add(CFA_XSP16, literal(-15)))
        CFI (cfiCond76) V0 load(1, XDATA, add(CFA_XSP16, literal(-14)))
        CFI (cfiCond76) V1 load(1, XDATA, add(CFA_XSP16, literal(-13)))
        CFI (cfiCond76) V2 load(1, XDATA, add(CFA_XSP16, literal(-12)))
        CFI (cfiCond76) V3 load(1, XDATA, add(CFA_XSP16, literal(-11)))
        CFI (cfiCond76) V4 load(1, XDATA, add(CFA_XSP16, literal(-10)))
        CFI (cfiCond76) V5 load(1, XDATA, add(CFA_XSP16, literal(-9)))
        CFI (cfiCond76) V6 load(1, XDATA, add(CFA_XSP16, literal(-8)))
        CFI (cfiCond76) V7 load(1, XDATA, add(CFA_XSP16, literal(-7)))
        CFI (cfiCond76) R7 load(1, XDATA, add(CFA_XSP16, literal(-6)))
        CFI (cfiCond76) ?RET_LOW load(1, XDATA, add(CFA_XSP16, literal(-5)))
        CFI (cfiCond76) ?RET_HIGH load(1, XDATA, add(CFA_XSP16, literal(-4)))
        CFI (cfiCond76) ?BRET_EXT load(1, XDATA, add(CFA_XSP16, literal(-3)))
        CFI (cfiCond76) DPL0 load(1, XDATA, add(CFA_XSP16, literal(-2)))
        CFI (cfiCond76) DPH0 load(1, XDATA, add(CFA_XSP16, literal(-1)))
        CFI (cfiCond76) CFA_SP SP+0
        CFI (cfiCond76) CFA_XSP16 add(XSP16, 77)
        CFI Block cfiPicker77 Using cfiCommon1
        CFI (cfiPicker77) NoFunction
        CFI (cfiPicker77) Picker
        MOV     R3,#0x0
        LCALL   ??Delay_ms?relay
        INC     R6
        MOV     A,R6
        CLR     C
        SUBB    A,#0x3
        RET
        CFI EndBlock cfiCond75
        CFI EndBlock cfiCond76
        CFI EndBlock cfiPicker77

        RSEG BANKED_CODE:CODE:NOROOT(0)
?Subroutine6:
        CFI Block cfiCond78 Using cfiCommon0
        CFI NoFunction
        CFI Conditional ??CrossCallReturnLabel_10
        CFI R6 load(1, XDATA, add(CFA_XSP16, literal(-16)))
        CFI VB load(1, XDATA, add(CFA_XSP16, literal(-15)))
        CFI V0 load(1, XDATA, add(CFA_XSP16, literal(-14)))
        CFI V1 load(1, XDATA, add(CFA_XSP16, literal(-13)))
        CFI V2 load(1, XDATA, add(CFA_XSP16, literal(-12)))
        CFI V3 load(1, XDATA, add(CFA_XSP16, literal(-11)))
        CFI V4 load(1, XDATA, add(CFA_XSP16, literal(-10)))
        CFI V5 load(1, XDATA, add(CFA_XSP16, literal(-9)))
        CFI V6 load(1, XDATA, add(CFA_XSP16, literal(-8)))
        CFI V7 load(1, XDATA, add(CFA_XSP16, literal(-7)))
        CFI R7 load(1, XDATA, add(CFA_XSP16, literal(-6)))
        CFI ?RET_LOW load(1, XDATA, add(CFA_XSP16, literal(-5)))
        CFI ?RET_HIGH load(1, XDATA, add(CFA_XSP16, literal(-4)))
        CFI ?BRET_EXT load(1, XDATA, add(CFA_XSP16, literal(-3)))
        CFI DPL0 load(1, XDATA, add(CFA_XSP16, literal(-2)))
        CFI DPH0 load(1, XDATA, add(CFA_XSP16, literal(-1)))
        CFI CFA_SP SP+0
        CFI CFA_XSP16 add(XSP16, 77)
        CFI Block cfiCond79 Using cfiCommon0
        CFI (cfiCond79) NoFunction
        CFI (cfiCond79) Conditional ??CrossCallReturnLabel_11
        CFI (cfiCond79) R6 load(1, XDATA, add(CFA_XSP16, literal(-16)))
        CFI (cfiCond79) VB load(1, XDATA, add(CFA_XSP16, literal(-15)))
        CFI (cfiCond79) V0 load(1, XDATA, add(CFA_XSP16, literal(-14)))
        CFI (cfiCond79) V1 load(1, XDATA, add(CFA_XSP16, literal(-13)))
        CFI (cfiCond79) V2 load(1, XDATA, add(CFA_XSP16, literal(-12)))
        CFI (cfiCond79) V3 load(1, XDATA, add(CFA_XSP16, literal(-11)))
        CFI (cfiCond79) V4 load(1, XDATA, add(CFA_XSP16, literal(-10)))
        CFI (cfiCond79) V5 load(1, XDATA, add(CFA_XSP16, literal(-9)))
        CFI (cfiCond79) V6 load(1, XDATA, add(CFA_XSP16, literal(-8)))
        CFI (cfiCond79) V7 load(1, XDATA, add(CFA_XSP16, literal(-7)))
        CFI (cfiCond79) R7 load(1, XDATA, add(CFA_XSP16, literal(-6)))
        CFI (cfiCond79) ?RET_LOW load(1, XDATA, add(CFA_XSP16, literal(-5)))
        CFI (cfiCond79) ?RET_HIGH load(1, XDATA, add(CFA_XSP16, literal(-4)))
        CFI (cfiCond79) ?BRET_EXT load(1, XDATA, add(CFA_XSP16, literal(-3)))
        CFI (cfiCond79) DPL0 load(1, XDATA, add(CFA_XSP16, literal(-2)))
        CFI (cfiCond79) DPH0 load(1, XDATA, add(CFA_XSP16, literal(-1)))
        CFI (cfiCond79) CFA_SP SP+0
        CFI (cfiCond79) CFA_XSP16 add(XSP16, 77)
        CFI Block cfiPicker80 Using cfiCommon1
        CFI (cfiPicker80) NoFunction
        CFI (cfiPicker80) Picker
        LCALL   ?Subroutine18 & 0xFFFF
??CrossCallReturnLabel_32:
        MOV     R2,#0x64
        MOV     R3,#0x0
        RET
        CFI EndBlock cfiCond78
        CFI EndBlock cfiCond79
        CFI EndBlock cfiPicker80

        RSEG BANKED_CODE:CODE:NOROOT(0)
?Subroutine5:
        CFI Block cfiCond81 Using cfiCommon0
        CFI NoFunction
        CFI Conditional ??CrossCallReturnLabel_8
        CFI R6 load(1, XDATA, add(CFA_XSP16, literal(-16)))
        CFI VB load(1, XDATA, add(CFA_XSP16, literal(-15)))
        CFI V0 load(1, XDATA, add(CFA_XSP16, literal(-14)))
        CFI V1 load(1, XDATA, add(CFA_XSP16, literal(-13)))
        CFI V2 load(1, XDATA, add(CFA_XSP16, literal(-12)))
        CFI V3 load(1, XDATA, add(CFA_XSP16, literal(-11)))
        CFI V4 load(1, XDATA, add(CFA_XSP16, literal(-10)))
        CFI V5 load(1, XDATA, add(CFA_XSP16, literal(-9)))
        CFI V6 load(1, XDATA, add(CFA_XSP16, literal(-8)))
        CFI V7 load(1, XDATA, add(CFA_XSP16, literal(-7)))
        CFI R7 load(1, XDATA, add(CFA_XSP16, literal(-6)))
        CFI ?RET_LOW load(1, XDATA, add(CFA_XSP16, literal(-5)))
        CFI ?RET_HIGH load(1, XDATA, add(CFA_XSP16, literal(-4)))
        CFI ?BRET_EXT load(1, XDATA, add(CFA_XSP16, literal(-3)))
        CFI DPL0 load(1, XDATA, add(CFA_XSP16, literal(-2)))
        CFI DPH0 load(1, XDATA, add(CFA_XSP16, literal(-1)))
        CFI CFA_SP SP+0
        CFI CFA_XSP16 add(XSP16, 77)
        CFI Block cfiCond82 Using cfiCommon0
        CFI (cfiCond82) NoFunction
        CFI (cfiCond82) Conditional ??CrossCallReturnLabel_9
        CFI (cfiCond82) R6 load(1, XDATA, add(CFA_XSP16, literal(-16)))
        CFI (cfiCond82) VB load(1, XDATA, add(CFA_XSP16, literal(-15)))
        CFI (cfiCond82) V0 load(1, XDATA, add(CFA_XSP16, literal(-14)))
        CFI (cfiCond82) V1 load(1, XDATA, add(CFA_XSP16, literal(-13)))
        CFI (cfiCond82) V2 load(1, XDATA, add(CFA_XSP16, literal(-12)))
        CFI (cfiCond82) V3 load(1, XDATA, add(CFA_XSP16, literal(-11)))
        CFI (cfiCond82) V4 load(1, XDATA, add(CFA_XSP16, literal(-10)))
        CFI (cfiCond82) V5 load(1, XDATA, add(CFA_XSP16, literal(-9)))
        CFI (cfiCond82) V6 load(1, XDATA, add(CFA_XSP16, literal(-8)))
        CFI (cfiCond82) V7 load(1, XDATA, add(CFA_XSP16, literal(-7)))
        CFI (cfiCond82) R7 load(1, XDATA, add(CFA_XSP16, literal(-6)))
        CFI (cfiCond82) ?RET_LOW load(1, XDATA, add(CFA_XSP16, literal(-5)))
        CFI (cfiCond82) ?RET_HIGH load(1, XDATA, add(CFA_XSP16, literal(-4)))
        CFI (cfiCond82) ?BRET_EXT load(1, XDATA, add(CFA_XSP16, literal(-3)))
        CFI (cfiCond82) DPL0 load(1, XDATA, add(CFA_XSP16, literal(-2)))
        CFI (cfiCond82) DPH0 load(1, XDATA, add(CFA_XSP16, literal(-1)))
        CFI (cfiCond82) CFA_SP SP+0
        CFI (cfiCond82) CFA_XSP16 add(XSP16, 77)
        CFI Block cfiPicker83 Using cfiCommon1
        CFI (cfiPicker83) NoFunction
        CFI (cfiPicker83) Picker
        LCALL   ?Subroutine18 & 0xFFFF
??CrossCallReturnLabel_33:
        MOV     R2,#-0x18
        MOV     R3,#0x3
        RET
        CFI EndBlock cfiCond81
        CFI EndBlock cfiCond82
        CFI EndBlock cfiPicker83

        RSEG BANKED_CODE:CODE:NOROOT(0)
?Subroutine18:
        CFI Block cfiCond84 Using cfiCommon0
        CFI NoFunction
        CFI Conditional ??CrossCallReturnLabel_31
        CFI R6 load(1, XDATA, add(CFA_XSP16, literal(-16)))
        CFI VB load(1, XDATA, add(CFA_XSP16, literal(-15)))
        CFI V0 load(1, XDATA, add(CFA_XSP16, literal(-14)))
        CFI V1 load(1, XDATA, add(CFA_XSP16, literal(-13)))
        CFI V2 load(1, XDATA, add(CFA_XSP16, literal(-12)))
        CFI V3 load(1, XDATA, add(CFA_XSP16, literal(-11)))
        CFI V4 load(1, XDATA, add(CFA_XSP16, literal(-10)))
        CFI V5 load(1, XDATA, add(CFA_XSP16, literal(-9)))
        CFI V6 load(1, XDATA, add(CFA_XSP16, literal(-8)))
        CFI V7 load(1, XDATA, add(CFA_XSP16, literal(-7)))
        CFI R7 load(1, XDATA, add(CFA_XSP16, literal(-6)))
        CFI ?RET_LOW load(1, XDATA, add(CFA_XSP16, literal(-5)))
        CFI ?RET_HIGH load(1, XDATA, add(CFA_XSP16, literal(-4)))
        CFI ?BRET_EXT load(1, XDATA, add(CFA_XSP16, literal(-3)))
        CFI DPL0 load(1, XDATA, add(CFA_XSP16, literal(-2)))
        CFI DPH0 load(1, XDATA, add(CFA_XSP16, literal(-1)))
        CFI CFA_SP SP+0
        CFI CFA_XSP16 add(XSP16, 77)
        CFI Block cfiCond85 Using cfiCommon0
        CFI (cfiCond85) NoFunction
        CFI (cfiCond85) Conditional ??CrossCallReturnLabel_32, ??CrossCallReturnLabel_10
        CFI (cfiCond85) R6 load(1, XDATA, add(CFA_XSP16, literal(-16)))
        CFI (cfiCond85) VB load(1, XDATA, add(CFA_XSP16, literal(-15)))
        CFI (cfiCond85) V0 load(1, XDATA, add(CFA_XSP16, literal(-14)))
        CFI (cfiCond85) V1 load(1, XDATA, add(CFA_XSP16, literal(-13)))
        CFI (cfiCond85) V2 load(1, XDATA, add(CFA_XSP16, literal(-12)))
        CFI (cfiCond85) V3 load(1, XDATA, add(CFA_XSP16, literal(-11)))
        CFI (cfiCond85) V4 load(1, XDATA, add(CFA_XSP16, literal(-10)))
        CFI (cfiCond85) V5 load(1, XDATA, add(CFA_XSP16, literal(-9)))
        CFI (cfiCond85) V6 load(1, XDATA, add(CFA_XSP16, literal(-8)))
        CFI (cfiCond85) V7 load(1, XDATA, add(CFA_XSP16, literal(-7)))
        CFI (cfiCond85) R7 load(1, XDATA, add(CFA_XSP16, literal(-6)))
        CFI (cfiCond85) ?RET_LOW load(1, XDATA, add(CFA_XSP16, literal(-5)))
        CFI (cfiCond85) ?RET_HIGH load(1, XDATA, add(CFA_XSP16, literal(-4)))
        CFI (cfiCond85) ?BRET_EXT load(1, XDATA, add(CFA_XSP16, literal(-3)))
        CFI (cfiCond85) DPL0 load(1, XDATA, add(CFA_XSP16, literal(-2)))
        CFI (cfiCond85) DPH0 load(1, XDATA, add(CFA_XSP16, literal(-1)))
        CFI (cfiCond85) CFA_SP SP+0
        CFI (cfiCond85) CFA_XSP16 add(XSP16, 77)
        CFI Block cfiCond86 Using cfiCommon0
        CFI (cfiCond86) NoFunction
        CFI (cfiCond86) Conditional ??CrossCallReturnLabel_32, ??CrossCallReturnLabel_11
        CFI (cfiCond86) R6 load(1, XDATA, add(CFA_XSP16, literal(-16)))
        CFI (cfiCond86) VB load(1, XDATA, add(CFA_XSP16, literal(-15)))
        CFI (cfiCond86) V0 load(1, XDATA, add(CFA_XSP16, literal(-14)))
        CFI (cfiCond86) V1 load(1, XDATA, add(CFA_XSP16, literal(-13)))
        CFI (cfiCond86) V2 load(1, XDATA, add(CFA_XSP16, literal(-12)))
        CFI (cfiCond86) V3 load(1, XDATA, add(CFA_XSP16, literal(-11)))
        CFI (cfiCond86) V4 load(1, XDATA, add(CFA_XSP16, literal(-10)))
        CFI (cfiCond86) V5 load(1, XDATA, add(CFA_XSP16, literal(-9)))
        CFI (cfiCond86) V6 load(1, XDATA, add(CFA_XSP16, literal(-8)))
        CFI (cfiCond86) V7 load(1, XDATA, add(CFA_XSP16, literal(-7)))
        CFI (cfiCond86) R7 load(1, XDATA, add(CFA_XSP16, literal(-6)))
        CFI (cfiCond86) ?RET_LOW load(1, XDATA, add(CFA_XSP16, literal(-5)))
        CFI (cfiCond86) ?RET_HIGH load(1, XDATA, add(CFA_XSP16, literal(-4)))
        CFI (cfiCond86) ?BRET_EXT load(1, XDATA, add(CFA_XSP16, literal(-3)))
        CFI (cfiCond86) DPL0 load(1, XDATA, add(CFA_XSP16, literal(-2)))
        CFI (cfiCond86) DPH0 load(1, XDATA, add(CFA_XSP16, literal(-1)))
        CFI (cfiCond86) CFA_SP SP+0
        CFI (cfiCond86) CFA_XSP16 add(XSP16, 77)
        CFI Block cfiCond87 Using cfiCommon0
        CFI (cfiCond87) NoFunction
        CFI (cfiCond87) Conditional ??CrossCallReturnLabel_33, ??CrossCallReturnLabel_8
        CFI (cfiCond87) R6 load(1, XDATA, add(CFA_XSP16, literal(-16)))
        CFI (cfiCond87) VB load(1, XDATA, add(CFA_XSP16, literal(-15)))
        CFI (cfiCond87) V0 load(1, XDATA, add(CFA_XSP16, literal(-14)))
        CFI (cfiCond87) V1 load(1, XDATA, add(CFA_XSP16, literal(-13)))
        CFI (cfiCond87) V2 load(1, XDATA, add(CFA_XSP16, literal(-12)))
        CFI (cfiCond87) V3 load(1, XDATA, add(CFA_XSP16, literal(-11)))
        CFI (cfiCond87) V4 load(1, XDATA, add(CFA_XSP16, literal(-10)))
        CFI (cfiCond87) V5 load(1, XDATA, add(CFA_XSP16, literal(-9)))
        CFI (cfiCond87) V6 load(1, XDATA, add(CFA_XSP16, literal(-8)))
        CFI (cfiCond87) V7 load(1, XDATA, add(CFA_XSP16, literal(-7)))
        CFI (cfiCond87) R7 load(1, XDATA, add(CFA_XSP16, literal(-6)))
        CFI (cfiCond87) ?RET_LOW load(1, XDATA, add(CFA_XSP16, literal(-5)))
        CFI (cfiCond87) ?RET_HIGH load(1, XDATA, add(CFA_XSP16, literal(-4)))
        CFI (cfiCond87) ?BRET_EXT load(1, XDATA, add(CFA_XSP16, literal(-3)))
        CFI (cfiCond87) DPL0 load(1, XDATA, add(CFA_XSP16, literal(-2)))
        CFI (cfiCond87) DPH0 load(1, XDATA, add(CFA_XSP16, literal(-1)))
        CFI (cfiCond87) CFA_SP SP+0
        CFI (cfiCond87) CFA_XSP16 add(XSP16, 77)
        CFI Block cfiCond88 Using cfiCommon0
        CFI (cfiCond88) NoFunction
        CFI (cfiCond88) Conditional ??CrossCallReturnLabel_33, ??CrossCallReturnLabel_9
        CFI (cfiCond88) R6 load(1, XDATA, add(CFA_XSP16, literal(-16)))
        CFI (cfiCond88) VB load(1, XDATA, add(CFA_XSP16, literal(-15)))
        CFI (cfiCond88) V0 load(1, XDATA, add(CFA_XSP16, literal(-14)))
        CFI (cfiCond88) V1 load(1, XDATA, add(CFA_XSP16, literal(-13)))
        CFI (cfiCond88) V2 load(1, XDATA, add(CFA_XSP16, literal(-12)))
        CFI (cfiCond88) V3 load(1, XDATA, add(CFA_XSP16, literal(-11)))
        CFI (cfiCond88) V4 load(1, XDATA, add(CFA_XSP16, literal(-10)))
        CFI (cfiCond88) V5 load(1, XDATA, add(CFA_XSP16, literal(-9)))
        CFI (cfiCond88) V6 load(1, XDATA, add(CFA_XSP16, literal(-8)))
        CFI (cfiCond88) V7 load(1, XDATA, add(CFA_XSP16, literal(-7)))
        CFI (cfiCond88) R7 load(1, XDATA, add(CFA_XSP16, literal(-6)))
        CFI (cfiCond88) ?RET_LOW load(1, XDATA, add(CFA_XSP16, literal(-5)))
        CFI (cfiCond88) ?RET_HIGH load(1, XDATA, add(CFA_XSP16, literal(-4)))
        CFI (cfiCond88) ?BRET_EXT load(1, XDATA, add(CFA_XSP16, literal(-3)))
        CFI (cfiCond88) DPL0 load(1, XDATA, add(CFA_XSP16, literal(-2)))
        CFI (cfiCond88) DPH0 load(1, XDATA, add(CFA_XSP16, literal(-1)))
        CFI (cfiCond88) CFA_SP SP+0
        CFI (cfiCond88) CFA_XSP16 add(XSP16, 77)
        CFI Block cfiCond89 Using cfiCommon0
        CFI (cfiCond89) NoFunction
        CFI (cfiCond89) Conditional ??CrossCallReturnLabel_34, ??CrossCallReturnLabel_2
        CFI (cfiCond89) R6 load(1, XDATA, add(CFA_XSP16, literal(-16)))
        CFI (cfiCond89) VB load(1, XDATA, add(CFA_XSP16, literal(-15)))
        CFI (cfiCond89) V0 load(1, XDATA, add(CFA_XSP16, literal(-14)))
        CFI (cfiCond89) V1 load(1, XDATA, add(CFA_XSP16, literal(-13)))
        CFI (cfiCond89) V2 load(1, XDATA, add(CFA_XSP16, literal(-12)))
        CFI (cfiCond89) V3 load(1, XDATA, add(CFA_XSP16, literal(-11)))
        CFI (cfiCond89) V4 load(1, XDATA, add(CFA_XSP16, literal(-10)))
        CFI (cfiCond89) V5 load(1, XDATA, add(CFA_XSP16, literal(-9)))
        CFI (cfiCond89) V6 load(1, XDATA, add(CFA_XSP16, literal(-8)))
        CFI (cfiCond89) V7 load(1, XDATA, add(CFA_XSP16, literal(-7)))
        CFI (cfiCond89) R7 load(1, XDATA, add(CFA_XSP16, literal(-6)))
        CFI (cfiCond89) ?RET_LOW load(1, XDATA, add(CFA_XSP16, literal(-5)))
        CFI (cfiCond89) ?RET_HIGH load(1, XDATA, add(CFA_XSP16, literal(-4)))
        CFI (cfiCond89) ?BRET_EXT load(1, XDATA, add(CFA_XSP16, literal(-3)))
        CFI (cfiCond89) DPL0 load(1, XDATA, add(CFA_XSP16, literal(-2)))
        CFI (cfiCond89) DPH0 load(1, XDATA, add(CFA_XSP16, literal(-1)))
        CFI (cfiCond89) CFA_SP SP+0
        CFI (cfiCond89) CFA_XSP16 add(XSP16, 77)
        CFI Block cfiCond90 Using cfiCommon0
        CFI (cfiCond90) NoFunction
        CFI (cfiCond90) Conditional ??CrossCallReturnLabel_34, ??CrossCallReturnLabel_3
        CFI (cfiCond90) R6 load(1, XDATA, add(CFA_XSP16, literal(-16)))
        CFI (cfiCond90) VB load(1, XDATA, add(CFA_XSP16, literal(-15)))
        CFI (cfiCond90) V0 load(1, XDATA, add(CFA_XSP16, literal(-14)))
        CFI (cfiCond90) V1 load(1, XDATA, add(CFA_XSP16, literal(-13)))
        CFI (cfiCond90) V2 load(1, XDATA, add(CFA_XSP16, literal(-12)))
        CFI (cfiCond90) V3 load(1, XDATA, add(CFA_XSP16, literal(-11)))
        CFI (cfiCond90) V4 load(1, XDATA, add(CFA_XSP16, literal(-10)))
        CFI (cfiCond90) V5 load(1, XDATA, add(CFA_XSP16, literal(-9)))
        CFI (cfiCond90) V6 load(1, XDATA, add(CFA_XSP16, literal(-8)))
        CFI (cfiCond90) V7 load(1, XDATA, add(CFA_XSP16, literal(-7)))
        CFI (cfiCond90) R7 load(1, XDATA, add(CFA_XSP16, literal(-6)))
        CFI (cfiCond90) ?RET_LOW load(1, XDATA, add(CFA_XSP16, literal(-5)))
        CFI (cfiCond90) ?RET_HIGH load(1, XDATA, add(CFA_XSP16, literal(-4)))
        CFI (cfiCond90) ?BRET_EXT load(1, XDATA, add(CFA_XSP16, literal(-3)))
        CFI (cfiCond90) DPL0 load(1, XDATA, add(CFA_XSP16, literal(-2)))
        CFI (cfiCond90) DPH0 load(1, XDATA, add(CFA_XSP16, literal(-1)))
        CFI (cfiCond90) CFA_SP SP+0
        CFI (cfiCond90) CFA_XSP16 add(XSP16, 77)
        CFI Block cfiCond91 Using cfiCommon0
        CFI (cfiCond91) NoFunction
        CFI (cfiCond91) Conditional ??CrossCallReturnLabel_34, ??CrossCallReturnLabel_4
        CFI (cfiCond91) R6 load(1, XDATA, add(CFA_XSP16, literal(-16)))
        CFI (cfiCond91) VB load(1, XDATA, add(CFA_XSP16, literal(-15)))
        CFI (cfiCond91) V0 load(1, XDATA, add(CFA_XSP16, literal(-14)))
        CFI (cfiCond91) V1 load(1, XDATA, add(CFA_XSP16, literal(-13)))
        CFI (cfiCond91) V2 load(1, XDATA, add(CFA_XSP16, literal(-12)))
        CFI (cfiCond91) V3 load(1, XDATA, add(CFA_XSP16, literal(-11)))
        CFI (cfiCond91) V4 load(1, XDATA, add(CFA_XSP16, literal(-10)))
        CFI (cfiCond91) V5 load(1, XDATA, add(CFA_XSP16, literal(-9)))
        CFI (cfiCond91) V6 load(1, XDATA, add(CFA_XSP16, literal(-8)))
        CFI (cfiCond91) V7 load(1, XDATA, add(CFA_XSP16, literal(-7)))
        CFI (cfiCond91) R7 load(1, XDATA, add(CFA_XSP16, literal(-6)))
        CFI (cfiCond91) ?RET_LOW load(1, XDATA, add(CFA_XSP16, literal(-5)))
        CFI (cfiCond91) ?RET_HIGH load(1, XDATA, add(CFA_XSP16, literal(-4)))
        CFI (cfiCond91) ?BRET_EXT load(1, XDATA, add(CFA_XSP16, literal(-3)))
        CFI (cfiCond91) DPL0 load(1, XDATA, add(CFA_XSP16, literal(-2)))
        CFI (cfiCond91) DPH0 load(1, XDATA, add(CFA_XSP16, literal(-1)))
        CFI (cfiCond91) CFA_SP SP+0
        CFI (cfiCond91) CFA_XSP16 add(XSP16, 77)
        CFI Block cfiCond92 Using cfiCommon0
        CFI (cfiCond92) NoFunction
        CFI (cfiCond92) Conditional ??CrossCallReturnLabel_34, ??CrossCallReturnLabel_5
        CFI (cfiCond92) R6 load(1, XDATA, add(CFA_XSP16, literal(-16)))
        CFI (cfiCond92) VB load(1, XDATA, add(CFA_XSP16, literal(-15)))
        CFI (cfiCond92) V0 load(1, XDATA, add(CFA_XSP16, literal(-14)))
        CFI (cfiCond92) V1 load(1, XDATA, add(CFA_XSP16, literal(-13)))
        CFI (cfiCond92) V2 load(1, XDATA, add(CFA_XSP16, literal(-12)))
        CFI (cfiCond92) V3 load(1, XDATA, add(CFA_XSP16, literal(-11)))
        CFI (cfiCond92) V4 load(1, XDATA, add(CFA_XSP16, literal(-10)))
        CFI (cfiCond92) V5 load(1, XDATA, add(CFA_XSP16, literal(-9)))
        CFI (cfiCond92) V6 load(1, XDATA, add(CFA_XSP16, literal(-8)))
        CFI (cfiCond92) V7 load(1, XDATA, add(CFA_XSP16, literal(-7)))
        CFI (cfiCond92) R7 load(1, XDATA, add(CFA_XSP16, literal(-6)))
        CFI (cfiCond92) ?RET_LOW load(1, XDATA, add(CFA_XSP16, literal(-5)))
        CFI (cfiCond92) ?RET_HIGH load(1, XDATA, add(CFA_XSP16, literal(-4)))
        CFI (cfiCond92) ?BRET_EXT load(1, XDATA, add(CFA_XSP16, literal(-3)))
        CFI (cfiCond92) DPL0 load(1, XDATA, add(CFA_XSP16, literal(-2)))
        CFI (cfiCond92) DPH0 load(1, XDATA, add(CFA_XSP16, literal(-1)))
        CFI (cfiCond92) CFA_SP SP+0
        CFI (cfiCond92) CFA_XSP16 add(XSP16, 77)
        CFI Block cfiPicker93 Using cfiCommon1
        CFI (cfiPicker93) NoFunction
        CFI (cfiPicker93) Picker
        MOVX    @DPTR,A
        MOV     A,R4
        MOV     R0,A
        MOV     A,R5
        MOV     R1,A
        RET
        CFI EndBlock cfiCond84
        CFI EndBlock cfiCond85
        CFI EndBlock cfiCond86
        CFI EndBlock cfiCond87
        CFI EndBlock cfiCond88
        CFI EndBlock cfiCond89
        CFI EndBlock cfiCond90
        CFI EndBlock cfiCond91
        CFI EndBlock cfiCond92
        CFI EndBlock cfiPicker93

        RSEG BANKED_CODE:CODE:NOROOT(0)
?Subroutine3:
        CFI Block cfiCond94 Using cfiCommon0
        CFI NoFunction
        CFI Conditional ??CrossCallReturnLabel_2
        CFI R6 load(1, XDATA, add(CFA_XSP16, literal(-16)))
        CFI VB load(1, XDATA, add(CFA_XSP16, literal(-15)))
        CFI V0 load(1, XDATA, add(CFA_XSP16, literal(-14)))
        CFI V1 load(1, XDATA, add(CFA_XSP16, literal(-13)))
        CFI V2 load(1, XDATA, add(CFA_XSP16, literal(-12)))
        CFI V3 load(1, XDATA, add(CFA_XSP16, literal(-11)))
        CFI V4 load(1, XDATA, add(CFA_XSP16, literal(-10)))
        CFI V5 load(1, XDATA, add(CFA_XSP16, literal(-9)))
        CFI V6 load(1, XDATA, add(CFA_XSP16, literal(-8)))
        CFI V7 load(1, XDATA, add(CFA_XSP16, literal(-7)))
        CFI R7 load(1, XDATA, add(CFA_XSP16, literal(-6)))
        CFI ?RET_LOW load(1, XDATA, add(CFA_XSP16, literal(-5)))
        CFI ?RET_HIGH load(1, XDATA, add(CFA_XSP16, literal(-4)))
        CFI ?BRET_EXT load(1, XDATA, add(CFA_XSP16, literal(-3)))
        CFI DPL0 load(1, XDATA, add(CFA_XSP16, literal(-2)))
        CFI DPH0 load(1, XDATA, add(CFA_XSP16, literal(-1)))
        CFI CFA_SP SP+0
        CFI CFA_XSP16 add(XSP16, 77)
        CFI Block cfiCond95 Using cfiCommon0
        CFI (cfiCond95) NoFunction
        CFI (cfiCond95) Conditional ??CrossCallReturnLabel_3
        CFI (cfiCond95) R6 load(1, XDATA, add(CFA_XSP16, literal(-16)))
        CFI (cfiCond95) VB load(1, XDATA, add(CFA_XSP16, literal(-15)))
        CFI (cfiCond95) V0 load(1, XDATA, add(CFA_XSP16, literal(-14)))
        CFI (cfiCond95) V1 load(1, XDATA, add(CFA_XSP16, literal(-13)))
        CFI (cfiCond95) V2 load(1, XDATA, add(CFA_XSP16, literal(-12)))
        CFI (cfiCond95) V3 load(1, XDATA, add(CFA_XSP16, literal(-11)))
        CFI (cfiCond95) V4 load(1, XDATA, add(CFA_XSP16, literal(-10)))
        CFI (cfiCond95) V5 load(1, XDATA, add(CFA_XSP16, literal(-9)))
        CFI (cfiCond95) V6 load(1, XDATA, add(CFA_XSP16, literal(-8)))
        CFI (cfiCond95) V7 load(1, XDATA, add(CFA_XSP16, literal(-7)))
        CFI (cfiCond95) R7 load(1, XDATA, add(CFA_XSP16, literal(-6)))
        CFI (cfiCond95) ?RET_LOW load(1, XDATA, add(CFA_XSP16, literal(-5)))
        CFI (cfiCond95) ?RET_HIGH load(1, XDATA, add(CFA_XSP16, literal(-4)))
        CFI (cfiCond95) ?BRET_EXT load(1, XDATA, add(CFA_XSP16, literal(-3)))
        CFI (cfiCond95) DPL0 load(1, XDATA, add(CFA_XSP16, literal(-2)))
        CFI (cfiCond95) DPH0 load(1, XDATA, add(CFA_XSP16, literal(-1)))
        CFI (cfiCond95) CFA_SP SP+0
        CFI (cfiCond95) CFA_XSP16 add(XSP16, 77)
        CFI Block cfiCond96 Using cfiCommon0
        CFI (cfiCond96) NoFunction
        CFI (cfiCond96) Conditional ??CrossCallReturnLabel_4
        CFI (cfiCond96) R6 load(1, XDATA, add(CFA_XSP16, literal(-16)))
        CFI (cfiCond96) VB load(1, XDATA, add(CFA_XSP16, literal(-15)))
        CFI (cfiCond96) V0 load(1, XDATA, add(CFA_XSP16, literal(-14)))
        CFI (cfiCond96) V1 load(1, XDATA, add(CFA_XSP16, literal(-13)))
        CFI (cfiCond96) V2 load(1, XDATA, add(CFA_XSP16, literal(-12)))
        CFI (cfiCond96) V3 load(1, XDATA, add(CFA_XSP16, literal(-11)))
        CFI (cfiCond96) V4 load(1, XDATA, add(CFA_XSP16, literal(-10)))
        CFI (cfiCond96) V5 load(1, XDATA, add(CFA_XSP16, literal(-9)))
        CFI (cfiCond96) V6 load(1, XDATA, add(CFA_XSP16, literal(-8)))
        CFI (cfiCond96) V7 load(1, XDATA, add(CFA_XSP16, literal(-7)))
        CFI (cfiCond96) R7 load(1, XDATA, add(CFA_XSP16, literal(-6)))
        CFI (cfiCond96) ?RET_LOW load(1, XDATA, add(CFA_XSP16, literal(-5)))
        CFI (cfiCond96) ?RET_HIGH load(1, XDATA, add(CFA_XSP16, literal(-4)))
        CFI (cfiCond96) ?BRET_EXT load(1, XDATA, add(CFA_XSP16, literal(-3)))
        CFI (cfiCond96) DPL0 load(1, XDATA, add(CFA_XSP16, literal(-2)))
        CFI (cfiCond96) DPH0 load(1, XDATA, add(CFA_XSP16, literal(-1)))
        CFI (cfiCond96) CFA_SP SP+0
        CFI (cfiCond96) CFA_XSP16 add(XSP16, 77)
        CFI Block cfiCond97 Using cfiCommon0
        CFI (cfiCond97) NoFunction
        CFI (cfiCond97) Conditional ??CrossCallReturnLabel_5
        CFI (cfiCond97) R6 load(1, XDATA, add(CFA_XSP16, literal(-16)))
        CFI (cfiCond97) VB load(1, XDATA, add(CFA_XSP16, literal(-15)))
        CFI (cfiCond97) V0 load(1, XDATA, add(CFA_XSP16, literal(-14)))
        CFI (cfiCond97) V1 load(1, XDATA, add(CFA_XSP16, literal(-13)))
        CFI (cfiCond97) V2 load(1, XDATA, add(CFA_XSP16, literal(-12)))
        CFI (cfiCond97) V3 load(1, XDATA, add(CFA_XSP16, literal(-11)))
        CFI (cfiCond97) V4 load(1, XDATA, add(CFA_XSP16, literal(-10)))
        CFI (cfiCond97) V5 load(1, XDATA, add(CFA_XSP16, literal(-9)))
        CFI (cfiCond97) V6 load(1, XDATA, add(CFA_XSP16, literal(-8)))
        CFI (cfiCond97) V7 load(1, XDATA, add(CFA_XSP16, literal(-7)))
        CFI (cfiCond97) R7 load(1, XDATA, add(CFA_XSP16, literal(-6)))
        CFI (cfiCond97) ?RET_LOW load(1, XDATA, add(CFA_XSP16, literal(-5)))
        CFI (cfiCond97) ?RET_HIGH load(1, XDATA, add(CFA_XSP16, literal(-4)))
        CFI (cfiCond97) ?BRET_EXT load(1, XDATA, add(CFA_XSP16, literal(-3)))
        CFI (cfiCond97) DPL0 load(1, XDATA, add(CFA_XSP16, literal(-2)))
        CFI (cfiCond97) DPH0 load(1, XDATA, add(CFA_XSP16, literal(-1)))
        CFI (cfiCond97) CFA_SP SP+0
        CFI (cfiCond97) CFA_XSP16 add(XSP16, 77)
        CFI Block cfiPicker98 Using cfiCommon1
        CFI (cfiPicker98) NoFunction
        CFI (cfiPicker98) Picker
        LCALL   ?Subroutine18 & 0xFFFF
??CrossCallReturnLabel_34:
        MOV     R2,#0xa
        MOV     R3,#0x0
        RET
        CFI EndBlock cfiCond94
        CFI EndBlock cfiCond95
        CFI EndBlock cfiCond96
        CFI EndBlock cfiCond97
        CFI EndBlock cfiPicker98

        RSEG XDATA_ID:CODE:NOROOT(0)
`?<Initializer for Mode>`:
        DATA8
        DB 67

        RSEG BANK_RELAYS:CODE:REORDER:NOROOT(0)
??SampleApp_Init?relay:
        LCALL   ?BDISPATCH
        DATA
        DC24    SampleApp_Init

        RSEG BANK_RELAYS:CODE:REORDER:NOROOT(0)
??SampleApp_ProcessEvent?relay:
        LCALL   ?BDISPATCH
        DATA
        DC24    SampleApp_ProcessEvent

        RSEG BANK_RELAYS:CODE:REORDER:NOROOT(0)
??SampleApp_HandleKeys?relay:
        LCALL   ?BDISPATCH
        DATA
        DC24    SampleApp_HandleKeys

        RSEG BANK_RELAYS:CODE:REORDER:NOROOT(0)
??SampleApp_MessageMSGCB?relay:
        LCALL   ?BDISPATCH
        DATA
        DC24    SampleApp_MessageMSGCB

        RSEG BANK_RELAYS:CODE:REORDER:NOROOT(0)
??SampleApp_SendPeriodicMessage?relay:
        LCALL   ?BDISPATCH
        DATA
        DC24    SampleApp_SendPeriodicMessage

        RSEG BANK_RELAYS:CODE:REORDER:NOROOT(0)
??SampleApp_SendFlashMessage?relay:
        LCALL   ?BDISPATCH
        DATA
        DC24    SampleApp_SendFlashMessage

        RSEG BANK_RELAYS:CODE:REORDER:NOROOT(0)
??SampleApp_Send_P2P_Message?relay:
        LCALL   ?BDISPATCH
        DATA
        DC24    SampleApp_Send_P2P_Message

        RSEG XDATA_ROM_C:CONST:REORDER:NOROOT(0)
        DATA8
`?<Constant "Group 1">`:
        DB "Group 1"

        RSEG XDATA_ROM_C:CONST:REORDER:NOROOT(0)
        DATA8
`?<Constant {0}>`:
        DB 0
        DB 0, 0, 0, 0, 0, 0, 0, 0
        DB 0

        RSEG XDATA_ROM_C:CONST:REORDER:NOROOT(0)
        DATA8
`?<Constant {0}>_1`:
        DB 0
        DB 0, 0, 0, 0, 0, 0, 0, 0
        DB 0

        RSEG XDATA_ROM_C:CONST:REORDER:NOROOT(0)
        DATA16
`?<Constant "D">`:
        DB "D"

        RSEG XDATA_ROM_C:CONST:REORDER:NOROOT(0)
        DATA8
`?<Constant "D1">`:
        DB "D1"

        RSEG XDATA_ROM_C:CONST:REORDER:NOROOT(0)
        DATA8
`?<Constant {0}>_2`:
        DB 0
        DB 0, 0, 0, 0, 0, 0, 0, 0
        DB 0, 0, 0, 0, 0, 0, 0, 0
        DB 0, 0, 0, 0

        RSEG XDATA_ROM_C:CONST:REORDER:NOROOT(0)
        DATA8
`?<Constant {0}>_3`:
        DB 0
        DB 0, 0, 0, 0, 0, 0, 0, 0
        DB 0

        RSEG XDATA_ROM_C:CONST:REORDER:NOROOT(0)
        DATA16
`?<Constant "T">`:
        DB "T"

        RSEG XDATA_ROM_C:CONST:REORDER:NOROOT(0)
        DATA8
`?<Constant "T-99.99">`:
        DB "T-99.99"

        RSEG XDATA_ROM_C:CONST:REORDER:NOROOT(0)
        DATA32
`?<Constant "H-1">`:
        DB "H-1"

        RSEG XDATA_ROM_C:CONST:REORDER:NOROOT(0)
        DATA16
`?<Constant "H">`:
        DB "H"

        RSEG XDATA_ROM_C:CONST:REORDER:NOROOT(0)
        DATA8
`?<Constant "I65535">`:
        DB "I65535"

        RSEG XDATA_ROM_C:CONST:REORDER:NOROOT(0)
        DATA16
`?<Constant "I">`:
        DB "I"

        RSEG XDATA_ROM_C:CONST:REORDER:NOROOT(0)
        DATA32
__Constant_0:
        DD 0

        RSEG XDATA_ROM_C:CONST:REORDER:NOROOT(0)
        DATA32
__Constant_42c80000:
        DD 42C80000H

        END
// 
// 3 087 bytes in segment BANKED_CODE
//    42 bytes in segment BANK_RELAYS
//    10 bytes in segment SFR_AN
//     1 byte  in segment XDATA_I
//     1 byte  in segment XDATA_ID
//   113 bytes in segment XDATA_ROM_C
//    84 bytes in segment XDATA_Z
// 
// 3 130 bytes of CODE  memory
//   105 bytes of CONST memory (+  8 bytes shared)
//     0 bytes of DATA  memory (+ 10 bytes shared)
//    85 bytes of XDATA memory
//
//Errors: none
//Warnings: none
