###############################################################################
#                                                                             #
# IAR C/C++ Compiler V8.10.3.10338/W32 for 8051         15/Nov/2016  16:58:32 #
# Copyright 2004-2011 IAR Systems AB.                                         #
#                                                                             #
#    Core               =  plain                                              #
#    Code model         =  banked                                             #
#    Data model         =  large                                              #
#    Calling convention =  xdata reentrant                                    #
#    Constant location  =  data_rom                                           #
#    Dptr setup         =  1,16                                               #
#    Source file        =  C:\Users\icecreamco\Desktop\GAP\EndDvice -         #
#                          拨码开关地址版\Components\stack\zdo\ZDApp.c        #
#    Command line       =  -f "C:\Users\icecreamco\Desktop\GAP\EndDvice -     #
#                          拨码开关地址版\Projects\zstack\Samples\SampleApp\C #
#                          C2530DB\..\..\..\Tools\CC2530DB\f8wEndev.cfg"      #
#                          (-DCPU32MHZ -DROOT=__near_func                     #
#                          -DMAC_CFG_TX_DATA_MAX=3 -DMAC_CFG_TX_MAX=6         #
#                          -DMAC_CFG_RX_MAX=3) -f "C:\Users\icecreamco\Deskto #
#                          p\GAP\EndDvice - 拨码开关地址版\Projects\zstack\Sa #
#                          mples\SampleApp\CC2530DB\..\..\..\Tools\CC2530DB\f #
#                          8wConfig.cfg" (-DZIGBEEPRO -DSECURE=0              #
#                          -DZG_SECURE_DYNAMIC=0 -DREFLECTOR                  #
#                          -DDEFAULT_CHANLIST=0x00000800                      #
#                          -DZDAPP_CONFIG_PAN_ID=0x0808                       #
#                          -DNWK_START_DELAY=100 -DEXTENDED_JOINING_RANDOM_MA #
#                          SK=0x007F -DBEACON_REQUEST_DELAY=500               #
#                          -DBEACON_REQ_DELAY_MASK=0x00FF                     #
#                          -DLINK_STATUS_JITTER_MASK=0x007F                   #
#                          -DROUTE_EXPIRY_TIME=30 -DAPSC_ACK_WAIT_DURATION_PO #
#                          LLED=3000 -DNWK_INDIRECT_MSG_TIMEOUT=7             #
#                          -DMAX_RREQ_ENTRIES=8 -DAPSC_MAX_FRAME_RETRIES=3    #
#                          -DNWK_MAX_DATA_RETRIES=2                           #
#                          -DMAX_POLL_FAILURE_RETRIES=2 -DMAX_BCAST=9         #
#                          -DAPS_MAX_GROUPS=16 -DMAX_RTG_ENTRIES=40           #
#                          -DNWK_MAX_BINDING_ENTRIES=4                        #
#                          -DMAX_BINDING_CLUSTER_IDS=4 "-DDEFAULT_KEY={0x01,  #
#                          0x03, 0x05, 0x07, 0x09, 0x0B, 0x0D, 0x0F, 0x00,    #
#                          0x02, 0x04, 0x06, 0x08, 0x0A, 0x0C, 0x0D}"         #
#                          -DMAC_MAX_FRAME_SIZE=116                           #
#                          -DZDNWKMGR_MIN_TRANSMISSIONS=20 "-DCONST=const     #
#                          __code" -DGENERIC=__generic                        #
#                          -DRFD_RCVC_ALWAYS_ON=FALSE -DPOLL_RATE=1000        #
#                          -DQUEUED_POLL_RATE=100 -DRESPONSE_POLL_RATE=100)   #
#                          -DREJOIN_POLL_RATE=440 "C:\Users\icecreamco\Deskto #
#                          p\GAP\EndDvice - 拨码开关地址版\Components\stack\z #
#                          do\ZDApp.c" -D xNWK_AUTO_POLL -D POWER_SAVING -D   #
#                          AUTO_RESET -D xMT_TASK -D xMT_SYS_FUNC -D          #
#                          xMT_ZDO_FUNC -D xLCD_SUPPORTED=DEBUG -lC           #
#                          "C:\Users\icecreamco\Desktop\GAP\EndDvice -        #
#                          拨码开关地址版\Projects\zstack\Samples\SampleApp\C #
#                          C2530DB\EndDeviceEB\List\" -lA                     #
#                          "C:\Users\icecreamco\Desktop\GAP\EndDvice -        #
#                          拨码开关地址版\Projects\zstack\Samples\SampleApp\C #
#                          C2530DB\EndDeviceEB\List\" --diag_suppress         #
#                          Pe001,Pa010 -o "C:\Users\icecreamco\Desktop\GAP\En #
#                          dDvice - 拨码开关地址版\Projects\zstack\Samples\Sa #
#                          mpleApp\CC2530DB\EndDeviceEB\Obj\" -e              #
#                          --no_code_motion --debug --core=plain --dptr=16,1  #
#                          --data_model=large --code_model=banked             #
#                          --calling_convention=xdata_reentrant               #
#                          --place_constants=data_rom --nr_virtual_regs 16    #
#                          -I "C:\Users\icecreamco\Desktop\GAP\EndDvice -     #
#                          拨码开关地址版\Projects\zstack\Samples\SampleApp\C #
#                          C2530DB\" -I "C:\Users\icecreamco\Desktop\GAP\EndD #
#                          vice - 拨码开关地址版\Projects\zstack\Samples\Samp #
#                          leApp\CC2530DB\..\Source\" -I                      #
#                          "C:\Users\icecreamco\Desktop\GAP\EndDvice -        #
#                          拨码开关地址版\Projects\zstack\Samples\SampleApp\C #
#                          C2530DB\..\..\..\ZMain\TI2530DB\" -I               #
#                          "C:\Users\icecreamco\Desktop\GAP\EndDvice -        #
#                          拨码开关地址版\Projects\zstack\Samples\SampleApp\C #
#                          C2530DB\..\..\..\..\..\Components\hal\include\"    #
#                          -I "C:\Users\icecreamco\Desktop\GAP\EndDvice -     #
#                          拨码开关地址版\Projects\zstack\Samples\SampleApp\C #
#                          C2530DB\..\..\..\..\..\Components\hal\target\CC253 #
#                          0EB\" -I "C:\Users\icecreamco\Desktop\GAP\EndDvice #
#                           - 拨码开关地址版\Projects\zstack\Samples\SampleAp #
#                          p\CC2530DB\..\..\..\..\..\Components\mac\include\" #
#                           -I "C:\Users\icecreamco\Desktop\GAP\EndDvice -    #
#                          拨码开关地址版\Projects\zstack\Samples\SampleApp\C #
#                          C2530DB\..\..\..\..\..\Components\mac\high_level\" #
#                           -I "C:\Users\icecreamco\Desktop\GAP\EndDvice -    #
#                          拨码开关地址版\Projects\zstack\Samples\SampleApp\C #
#                          C2530DB\..\..\..\..\..\Components\mac\low_level\sr #
#                          f04\" -I "C:\Users\icecreamco\Desktop\GAP\EndDvice #
#                           - 拨码开关地址版\Projects\zstack\Samples\SampleAp #
#                          p\CC2530DB\..\..\..\..\..\Components\mac\low_level #
#                          \srf04\single_chip\" -I "C:\Users\icecreamco\Deskt #
#                          op\GAP\EndDvice - 拨码开关地址版\Projects\zstack\S #
#                          amples\SampleApp\CC2530DB\..\..\..\..\..\Component #
#                          s\mt\" -I "C:\Users\icecreamco\Desktop\GAP\EndDvic #
#                          e - 拨码开关地址版\Projects\zstack\Samples\SampleA #
#                          pp\CC2530DB\..\..\..\..\..\Components\osal\include #
#                          \" -I "C:\Users\icecreamco\Desktop\GAP\EndDvice -  #
#                          拨码开关地址版\Projects\zstack\Samples\SampleApp\C #
#                          C2530DB\..\..\..\..\..\Components\services\saddr\" #
#                           -I "C:\Users\icecreamco\Desktop\GAP\EndDvice -    #
#                          拨码开关地址版\Projects\zstack\Samples\SampleApp\C #
#                          C2530DB\..\..\..\..\..\Components\services\sdata\" #
#                           -I "C:\Users\icecreamco\Desktop\GAP\EndDvice -    #
#                          拨码开关地址版\Projects\zstack\Samples\SampleApp\C #
#                          C2530DB\..\..\..\..\..\Components\stack\af\" -I    #
#                          "C:\Users\icecreamco\Desktop\GAP\EndDvice -        #
#                          拨码开关地址版\Projects\zstack\Samples\SampleApp\C #
#                          C2530DB\..\..\..\..\..\Components\stack\nwk\" -I   #
#                          "C:\Users\icecreamco\Desktop\GAP\EndDvice -        #
#                          拨码开关地址版\Projects\zstack\Samples\SampleApp\C #
#                          C2530DB\..\..\..\..\..\Components\stack\sapi\" -I  #
#                          "C:\Users\icecreamco\Desktop\GAP\EndDvice -        #
#                          拨码开关地址版\Projects\zstack\Samples\SampleApp\C #
#                          C2530DB\..\..\..\..\..\Components\stack\sec\" -I   #
#                          "C:\Users\icecreamco\Desktop\GAP\EndDvice -        #
#                          拨码开关地址版\Projects\zstack\Samples\SampleApp\C #
#                          C2530DB\..\..\..\..\..\Components\stack\sys\" -I   #
#                          "C:\Users\icecreamco\Desktop\GAP\EndDvice -        #
#                          拨码开关地址版\Projects\zstack\Samples\SampleApp\C #
#                          C2530DB\..\..\..\..\..\Components\stack\zdo\" -I   #
#                          "C:\Users\icecreamco\Desktop\GAP\EndDvice -        #
#                          拨码开关地址版\Projects\zstack\Samples\SampleApp\C #
#                          C2530DB\..\..\..\..\..\Components\zmac\" -I        #
#                          "C:\Users\icecreamco\Desktop\GAP\EndDvice -        #
#                          拨码开关地址版\Projects\zstack\Samples\SampleApp\C #
#                          C2530DB\..\..\..\..\..\Components\zmac\f8w\" -Ohz  #
#                          --require_prototypes                               #
#    List file          =  C:\Users\icecreamco\Desktop\GAP\EndDvice -         #
#                          拨码开关地址版\Projects\zstack\Samples\SampleApp\C #
#                          C2530DB\EndDeviceEB\List\ZDApp.lst                 #
#    Object file        =  C:\Users\icecreamco\Desktop\GAP\EndDvice -         #
#                          拨码开关地址版\Projects\zstack\Samples\SampleApp\C #
#                          C2530DB\EndDeviceEB\Obj\ZDApp.r51                  #
#                                                                             #
#                                                                             #
###############################################################################

C:\Users\icecreamco\Desktop\GAP\EndDvice - 拨码开关地址版\Components\stack\zdo\ZDApp.c
      1          /**************************************************************************************************
      2            Filename:       ZDApp.c
      3            Revised:        $Date: 2012-02-16 16:04:32 -0800 (Thu, 16 Feb 2012) $
      4            Revision:       $Revision: 29348 $
      5          
      6            Description:    This file contains the interface to the Zigbee Device Application. This is the
      7                            Application part that the user can change. This also contains the Task functions.
      8          
      9          
     10            Copyright 2004-2012 Texas Instruments Incorporated. All rights reserved.
     11          
     12            IMPORTANT: Your use of this Software is limited to those specific rights
     13            granted under the terms of a software license agreement between the user
     14            who downloaded the software, his/her employer (which must be your employer)
     15            and Texas Instruments Incorporated (the "License").  You may not use this
     16            Software unless you agree to abide by the terms of the License. The License
     17            limits your use, and you acknowledge, that the Software may not be modified,
     18            copied or distributed unless embedded on a Texas Instruments microcontroller
     19            or used solely and exclusively in conjunction with a Texas Instruments radio
     20            frequency transceiver, which is integrated into your product.  Other than for
     21            the foregoing purpose, you may not use, reproduce, copy, prepare derivative
     22            works of, modify, distribute, perform, display or sell this Software and/or
     23            its documentation for any purpose.
     24          
     25            YOU FURTHER ACKNOWLEDGE AND AGREE THAT THE SOFTWARE AND DOCUMENTATION ARE
     26            PROVIDED AS IS?WITHOUT WARRANTY OF ANY KIND, EITHER EXPRESS OR IMPLIED,
     27            INCLUDING WITHOUT LIMITATION, ANY WARRANTY OF MERCHANTABILITY, TITLE,
     28            NON-INFRINGEMENT AND FITNESS FOR A PARTICULAR PURPOSE. IN NO EVENT SHALL
     29            TEXAS INSTRUMENTS OR ITS LICENSORS BE LIABLE OR OBLIGATED UNDER CONTRACT,
     30            NEGLIGENCE, STRICT LIABILITY, CONTRIBUTION, BREACH OF WARRANTY, OR OTHER
     31            LEGAL EQUITABLE THEORY ANY DIRECT OR INDIRECT DAMAGES OR EXPENSES
     32            INCLUDING BUT NOT LIMITED TO ANY INCIDENTAL, SPECIAL, INDIRECT, PUNITIVE
     33            OR CONSEQUENTIAL DAMAGES, LOST PROFITS OR LOST DATA, COST OF PROCUREMENT
     34            OF SUBSTITUTE GOODS, TECHNOLOGY, SERVICES, OR ANY CLAIMS BY THIRD PARTIES
     35            (INCLUDING BUT NOT LIMITED TO ANY DEFENSE THEREOF), OR OTHER SIMILAR COSTS.
     36          
     37            Should you have any questions regarding your right to use this Software,
     38            contact Texas Instruments Incorporated at www.TI.com.
     39          **************************************************************************************************/
     40          
     41          /*********************************************************************
     42           * INCLUDES
     43           */
     44          
     45          #include "ZComDef.h"
     46          #include "ZMac.h"
     47          #include "OSAL.h"
     48          #include "OSAL_Tasks.h"
     49          #include "OSAL_PwrMgr.h"
     50          #include "OSAL_Nv.h"
     51          #include "AF.h"
     52          #include "APSMEDE.h"
     53          #include "NLMEDE.h"
     54          #include "AddrMgr.h"
     55          #include "ZDProfile.h"
     56          #include "ZDObject.h"
     57          #include "ZDConfig.h"
     58          #include "ZDSecMgr.h"
     59          #include "ZDApp.h"
     60          #include "DebugTrace.h"
     61          #include "nwk_util.h"
     62          #include "OnBoard.h"

   \                                 In  segment SFR_AN, at 0x90
   \   union <unnamed> volatile __sfr _A_P1
   \                     _A_P1:
   \   000000                DS 1

   \                                 In  segment SFR_AN, at 0xfe
   \   unsigned char volatile __sfr P1DIR
   \                     P1DIR:
   \   000000                DS 1
     63          #include "ZGlobals.h"
     64          #include "ZDNwkMgr.h"
     65          #include "rtg.h"
     66          #include "SampleApp.h"
     67          #include "ssp.h"
     68          
     69          /* HAL */
     70          #include "hal_led.h"
     71          #include "hal_lcd.h"
     72          #include "hal_key.h"
     73          #include "hal_sleep.h"
     74          
     75          #if defined( MT_MAC_FUNC ) || defined( MT_MAC_CB_FUNC )
     76            #error "ERROR! MT_MAC functionalities should be disabled on ZDO devices"
     77          #endif
     78          
     79          /*********************************************************************
     80           * CONSTANTS
     81           */
     82          
     83          #if !defined( NWK_START_DELAY )
     84            #define NWK_START_DELAY             100   // in milliseconds
     85          #endif
     86          
     87          #if !defined( LEAVE_RESET_DELAY )
     88            #define LEAVE_RESET_DELAY           5000  // in milliseconds
     89          #endif
     90          
     91          // Init ZDO, but hold and wait for application to start the joining or
     92          // forming network
     93          #define ZDO_INIT_HOLD_NWK_START       0xFFFF
     94          
     95          #if !defined( EXTENDED_JOINING_RANDOM_MASK )
     96            #define EXTENDED_JOINING_RANDOM_MASK 0x007F
     97          #endif
     98          
     99          #if !defined( BEACON_REQUEST_DELAY )
    100            #define BEACON_REQUEST_DELAY        100   // in milliseconds
    101          #endif
    102          
    103          #if !defined( BEACON_REQ_DELAY_MASK )
    104            #define BEACON_REQ_DELAY_MASK       0x007F
    105          #endif
    106          
    107          #define MAX_RESUME_RETRY            3
    108          
    109          #define MAX_DEVICE_UNAUTH_TIMEOUT   5000  // 5 seconds
    110          
    111          // Beacon Order Settings (see NLMEDE.h)
    112          #define DEFAULT_BEACON_ORDER        BEACON_ORDER_NO_BEACONS
    113          #define DEFAULT_SUPERFRAME_ORDER    DEFAULT_BEACON_ORDER
    114          
    115          #if !defined( MAX_NWK_FRAMECOUNTER_CHANGES )
    116            // The number of times the frame counter can change before
    117            // saving to NV
    118            #define MAX_NWK_FRAMECOUNTER_CHANGES    1000
    119          #endif
    120          
    121          // Leave control bits
    122          #define ZDAPP_LEAVE_CTRL_INIT 0
    123          #define ZDAPP_LEAVE_CTRL_SET  1
    124          #define ZDAPP_LEAVE_CTRL_RA   2
    125          
    126          // Address Manager Stub Implementation
    127          #define ZDApp_NwkWriteNVRequest AddrMgrWriteNVRequest
    128          
    129          
    130          #if !defined ZDO_NV_SAVE_RFDs
    131          #define ZDO_NV_SAVE_RFDs  TRUE
    132          #endif
    133          
    134          // Delay time before updating NWK NV data to force fewer writes during high activity.
    135          #if ZDO_NV_SAVE_RFDs
    136          #define ZDAPP_UPDATE_NWK_NV_TIME 700
    137          #else
    138          #define ZDAPP_UPDATE_NWK_NV_TIME 65000
    139          #endif
    140          
    141          /*********************************************************************
    142           * GLOBAL VARIABLES
    143           */
    144          
    145          #if defined( LCD_SUPPORTED )
    146            uint8 MatchRsps = 0;
    147          #endif
    148          

   \                                 In  segment XDATA_I, align 1, keep-with-next
    149          uint8 zdoDiscCounter = 1;
   \                     zdoDiscCounter:
   \   000000                DS 1
   \   000001                REQUIRE `?<Initializer for zdoDiscCounter>`
   \   000001                REQUIRE __INIT_XDATA_I
    150          

   \                                 In  segment XDATA_Z, align 1, keep-with-next
    151          zAddrType_t ZDAppNwkAddr;
   \                     ZDAppNwkAddr:
   \   000000                DS 9
   \   000009                REQUIRE __INIT_XDATA_Z
    152          

   \                                 In  segment XDATA_Z, align 1, keep-with-next
    153          uint8 zdappMgmtNwkDiscRspTransSeq;
   \                     zdappMgmtNwkDiscRspTransSeq:
   \   000000                DS 1
   \   000001                REQUIRE __INIT_XDATA_Z

   \                                 In  segment XDATA_Z, align 1, keep-with-next
    154          uint8 zdappMgmtNwkDiscReqInProgress = FALSE;
   \                     zdappMgmtNwkDiscReqInProgress:
   \   000000                DS 1
   \   000001                REQUIRE __INIT_XDATA_Z

   \                                 In  segment XDATA_Z, align 1, keep-with-next
    155          zAddrType_t zdappMgmtNwkDiscRspAddr;
   \                     zdappMgmtNwkDiscRspAddr:
   \   000000                DS 9
   \   000009                REQUIRE __INIT_XDATA_Z

   \                                 In  segment XDATA_Z, align 1, keep-with-next
    156          uint8 zdappMgmtNwkDiscStartIndex;
   \                     zdappMgmtNwkDiscStartIndex:
   \   000000                DS 1
   \   000001                REQUIRE __INIT_XDATA_Z

   \                                 In  segment XDATA_Z, align 1, keep-with-next
    157          uint8 zdappMgmtSavedNwkState;
   \                     zdappMgmtSavedNwkState:
   \   000000                DS 1
   \   000001                REQUIRE __INIT_XDATA_Z
    158          

   \                                 In  segment XDATA_Z, align 1, keep-with-next
    159          uint16 nwkFrameCounterChanges = 0;
   \                     nwkFrameCounterChanges:
   \   000000                DS 2
   \   000002                REQUIRE __INIT_XDATA_Z

   \                                 In  segment XDATA_I, align 1, keep-with-next
    160          uint8 continueJoining = TRUE;
   \                     continueJoining:
   \   000000                DS 1
   \   000001                REQUIRE `?<Initializer for continueJoining>`
   \   000001                REQUIRE __INIT_XDATA_I
    161          

   \                                 In  segment XDATA_Z, align 1, keep-with-next
    162          uint8  _tmpRejoinState;
   \                     _tmpRejoinState:
   \   000000                DS 1
   \   000001                REQUIRE __INIT_XDATA_Z
    163          
    164          // The extended PanID used in ZDO layer for rejoin.

   \                                 In  segment XDATA_Z, align 1, keep-with-next
    165          uint8 ZDO_UseExtendedPANID[Z_EXTADDR_LEN];
   \                     ZDO_UseExtendedPANID:
   \   000000                DS 8
   \   000008                REQUIRE __INIT_XDATA_Z
    166          

   \                                 In  segment XDATA_Z, align 1, keep-with-next
    167          pfnZdoCb zdoCBFunc[MAX_ZDO_CB_FUNC];
   \                     zdoCBFunc:
   \   000000                DS 14
   \   00000E                REQUIRE __INIT_XDATA_Z
    168          
    169          /*********************************************************************
    170           * EXTERNAL VARIABLES
    171           */
    172          
    173          /*********************************************************************
    174           * EXTERNAL FUNCTIONS
    175           */
    176          
    177          /*********************************************************************
    178           * LOCAL FUNCTIONS
    179           */
    180          
    181          void ZDApp_NetworkStartEvt( void );
    182          void ZDApp_DeviceAuthEvt( void );
    183          void ZDApp_SaveNetworkStateEvt( void );
    184          
    185          uint8 ZDApp_ReadNetworkRestoreState( void );
    186          uint8 ZDApp_RestoreNetworkState( void );
    187          void ZDAppDetermineDeviceType( void );
    188          void ZDApp_InitUserDesc( void );
    189          void ZDAppCheckForHoldKey( void );
    190          void ZDApp_ProcessOSALMsg( osal_event_hdr_t *msgPtr );
    191          void ZDApp_ProcessNetworkJoin( void );
    192          void ZDApp_SetCoordAddress( uint8 endPoint, uint8 dstEP );
    193          uint8 ZDApp_RestoreNwkKey( void );
    194          networkDesc_t* ZDApp_NwkDescListProcessing(void);
    195          
    196          void ZDApp_SecInit( uint8 state );
    197          UINT16 ZDApp_ProcessSecEvent( uint8 task_id, UINT16 events );
    198          void ZDApp_ProcessSecMsg( osal_event_hdr_t *msgPtr );
    199          
    200          void ZDApp_SendMsg( uint8 taskID, uint8 cmd, uint8 len, uint8 *buf );
    201          
    202          void ZDApp_ResetTimerStart( uint16 delay );
    203          void ZDApp_ResetTimerCancel( void );
    204          void ZDApp_LeaveCtrlInit( void );
    205          void ZDApp_LeaveCtrlSet( uint8 ra );
    206          uint8 ZDApp_LeaveCtrlBypass( void );
    207          void ZDApp_LeaveCtrlStartup( devStates_t* state, uint16* startDelay );
    208          void ZDApp_LeaveUpdate( uint16 nwkAddr, uint8* extAddr,
    209                                  uint8 removeChildren );
    210          void ZDApp_NodeProfileSync( uint8 stackProfile );
    211          void ZDApp_ProcessMsgCBs( zdoIncomingMsg_t *inMsg );
    212          void ZDApp_RegisterCBs( void );
    213          void ZDApp_InitZdoCBFunc(void);
    214          
    215          /*********************************************************************
    216           * LOCAL VARIABLES
    217           */
    218          

   \                                 In  segment XDATA_Z, align 1, keep-with-next
    219          uint8 ZDAppTaskID;
   \                     ZDAppTaskID:
   \   000000                DS 1
   \   000001                REQUIRE __INIT_XDATA_Z

   \                                 In  segment XDATA_Z, align 1, keep-with-next
    220          uint8 nwkStatus;
   \                     nwkStatus:
   \   000000                DS 1
   \   000001                REQUIRE __INIT_XDATA_Z

   \                                 In  segment XDATA_Z, align 1, keep-with-next
    221          endPointDesc_t *ZDApp_AutoFindMode_epDesc = (endPointDesc_t *)NULL;
   \                     ZDApp_AutoFindMode_epDesc:
   \   000000                DS 2
   \   000002                REQUIRE __INIT_XDATA_Z

   \                                 In  segment XDATA_Z, align 1, keep-with-next
    222          uint8 ZDApp_LeaveCtrl;
   \                     ZDApp_LeaveCtrl:
   \   000000                DS 1
   \   000001                REQUIRE __INIT_XDATA_Z
    223          
    224          #if defined( HOLD_AUTO_START )
    225            devStates_t devState = DEV_HOLD;
    226          #else

   \                                 In  segment XDATA_I, align 1, keep-with-next
    227            devStates_t devState = DEV_INIT;
   \                     devState:
   \   000000                DS 1
   \   000001                REQUIRE `?<Initializer for devState>`
   \   000001                REQUIRE __INIT_XDATA_I
    228          #endif
    229          
    230          #if ( ZG_BUILD_RTRONLY_TYPE ) || ( ZG_BUILD_ENDDEVICE_TYPE )

   \                                 In  segment XDATA_Z, align 1, keep-with-next
    231            devStartModes_t devStartMode = MODE_JOIN;     // Assume joining
   \                     devStartMode:
   \   000000                DS 1
   \   000001                REQUIRE __INIT_XDATA_Z
    232            //devStartModes_t devStartMode = MODE_RESUME; // if already "directly joined"
    233                                  // to parent. Set to make the device do an Orphan scan.
    234          #else
    235            // Set the default to coodinator
    236            devStartModes_t devStartMode = MODE_HARD;
    237          #endif
    238          

   \                                 In  segment XDATA_Z, align 1, keep-with-next
    239          uint8 retryCnt;
   \                     retryCnt:
   \   000000                DS 1
   \   000001                REQUIRE __INIT_XDATA_Z
    240          

   \                                 In  segment XDATA_I, align 1, keep-with-next
    241          endPointDesc_t ZDApp_epDesc =
   \                     ZDApp_epDesc:
   \   000000                DS 6
   \   000006                REQUIRE `?<Initializer for ZDApp_epDesc>`
   \   000006                REQUIRE __INIT_XDATA_I
    242          {
    243            ZDO_EP,
    244            &ZDAppTaskID,
    245            (SimpleDescriptionFormat_t *)NULL,  // No Simple description for ZDO
    246            (afNetworkLatencyReq_t)0            // No Network Latency req
    247          };
    248          

   \                                 In  segment XDATA_I, align 1, keep-with-next
    249          uint16 ZDApp_SavedPollRate = POLL_RATE;
   \                     ZDApp_SavedPollRate:
   \   000000                DS 2
   \   000002                REQUIRE `?<Initializer for ZDApp_SavedPollRate>`
   \   000002                REQUIRE __INIT_XDATA_I
    250          
    251          /*********************************************************************
    252           * @fn      ZDApp_Init
    253           *
    254           * @brief   ZDApp Initialization function.
    255           *
    256           * @param   task_id - ZDApp Task ID
    257           *
    258           * @return  None
    259           */

   \                                 In  segment BANKED_CODE, align 1, keep-with-next
    260          void ZDApp_Init( uint8 task_id )
   \                     ZDApp_Init:
    261          {
   \   000000   74F7         MOV     A,#-0x9
   \   000002   12....       LCALL   ?BANKED_ENTER_XDATA
   \   000005                ; Saved register size: 9
   \   000005                ; Auto size: 0
   \   000005   E9           MOV     A,R1
    262            // Save the task ID
    263            ZDAppTaskID = task_id;
   \   000006   90....       MOV     DPTR,#ZDAppTaskID
   \   000009   F0           MOVX    @DPTR,A
    264          
    265            // Initialize the ZDO global device short address storage
    266            ZDAppNwkAddr.addrMode = Addr16Bit;
   \   00000A   90....       MOV     DPTR,#ZDAppNwkAddr + 8
   \   00000D   7402         MOV     A,#0x2
   \   00000F   F0           MOVX    @DPTR,A
    267            ZDAppNwkAddr.addr.shortAddr = INVALID_NODE_ADDR;
   \   000010   90....       MOV     DPTR,#ZDAppNwkAddr
   \   000013   74FE         MOV     A,#-0x2
   \   000015   F0           MOVX    @DPTR,A
   \   000016   A3           INC     DPTR
   \   000017   04           INC     A
   \   000018   F0           MOVX    @DPTR,A
    268            (void)NLME_GetExtAddr();  // Load the saveExtAddr pointer.
   \   000019                ; Setup parameters for call to function NLME_GetExtAddr
   \   000019   12....       LCALL   ??NLME_GetExtAddr?relay
    269          
    270            // Check for manual "Hold Auto Start"
    271            ZDAppCheckForHoldKey();
   \   00001C                ; Setup parameters for call to function ZDAppCheckForHoldKey
   \   00001C   12....       LCALL   ??ZDAppCheckForHoldKey?relay
    272          
    273            // Initialize ZDO items and setup the device - type of device to create.
    274            ZDO_Init();
   \   00001F                ; Setup parameters for call to function ZDO_Init
   \   00001F   12....       LCALL   ??ZDO_Init?relay
    275          
    276            // Register the endpoint description with the AF
    277            // This task doesn't have a Simple description, but we still need
    278            // to register the endpoint.
    279            afRegister( (endPointDesc_t *)&ZDApp_epDesc );
   \   000022                ; Setup parameters for call to function afRegister
   \   000022   7A..         MOV     R2,#ZDApp_epDesc & 0xff
   \   000024   7B..         MOV     R3,#(ZDApp_epDesc >> 8) & 0xff
   \   000026   12....       LCALL   ??afRegister?relay
    280          
    281          #if defined( ZDO_USERDESC_RESPONSE )
    282            ZDApp_InitUserDesc();
    283          #endif // ZDO_USERDESC_RESPONSE
    284          
    285            // Start the device?
    286            if ( devState != DEV_HOLD )
   \   000029   90....       MOV     DPTR,#devState
   \   00002C   E0           MOVX    A,@DPTR
   \   00002D   6009         JZ      ??ZDApp_Init_0
    287            {
    288          //******************连网初始化************************************************//
    289              ZDOInitDevice( 0 );                
   \   00002F                ; Setup parameters for call to function ZDOInitDevice
   \   00002F   7A00         MOV     R2,#0x0
   \   000031   7B00         MOV     R3,#0x0
   \   000033   12....       LCALL   ??ZDOInitDevice?relay
   \   000036   8014         SJMP    ??ZDApp_Init_1
    290            }
    291            else
    292            {
    293              ZDOInitDevice( ZDO_INIT_HOLD_NWK_START );
   \                     ??ZDApp_Init_0:
   \   000038                ; Setup parameters for call to function ZDOInitDevice
   \   000038   7AFF         MOV     R2,#-0x1
   \   00003A   7BFF         MOV     R3,#-0x1
   \   00003C   12....       LCALL   ??ZDOInitDevice?relay
    294              // Blink LED to indicate HOLD_START
    295              HalLedBlink ( HAL_LED_4, 0, 50, 500 );
   \   00003F                ; Setup parameters for call to function HalLedBlink
   \   00003F   7CF4         MOV     R4,#-0xc
   \   000041   7D01         MOV     R5,#0x1
   \   000043   7B32         MOV     R3,#0x32
   \   000045   7A00         MOV     R2,#0x0
   \   000047   7908         MOV     R1,#0x8
   \   000049   12....       LCALL   ??HalLedBlink?relay
    296            }
    297          
    298            // Initialize the ZDO callback function pointers zdoCBFunc[]
    299            ZDApp_InitZdoCBFunc();
   \                     ??ZDApp_Init_1:
   \   00004C                ; Setup parameters for call to function ZDApp_InitZdoCBFunc
   \   00004C   12....       LCALL   ??ZDApp_InitZdoCBFunc?relay
    300          
    301            ZDApp_RegisterCBs();
   \   00004F                ; Setup parameters for call to function ZDApp_RegisterCBs
   \   00004F   12....       LCALL   ??ZDApp_RegisterCBs?relay
    302          } /* ZDApp_Init() */
   \   000052   02....       LJMP    ??Subroutine49_0 & 0xFFFF

   \                                 In  segment BANKED_CODE, align 1, keep-with-next
   \                     ??Subroutine49_0:
   \   000000   7F01         MOV     R7,#0x1
   \   000002   02....       LJMP    ?BANKED_LEAVE_XDATA
    303          
    304          /*********************************************************************
    305           * @fn          ZDApp_SecInit
    306           *
    307           * @brief       ZDApp initialize security.
    308           *
    309           * @param       state - device initialization state
    310           *
    311           * @return      none
    312           */

   \                                 In  segment BANKED_CODE, align 1, keep-with-next
    313          void ZDApp_SecInit( uint8 state )
   \                     ZDApp_SecInit:
    314          {
   \   000000   74F7         MOV     A,#-0x9
   \   000002   12....       LCALL   ?BANKED_ENTER_XDATA
   \   000005                ; Saved register size: 9
   \   000005                ; Auto size: 0
    315            uint8 zgPreConfigKey[SEC_KEY_LEN];
    316          
    317            if ( ZG_SECURE_ENABLED && ZG_BUILD_COORDINATOR_TYPE && ZG_DEVICE_COORDINATOR_TYPE )
    318            {
    319              // Set the Trust Center bit
    320              ZDO_Config_Node_Descriptor.ServerMask |= PRIM_TRUST_CENTER;
    321            }
    322          
    323            if ( ZG_CHECK_SECURITY_MODE == ZG_SECURITY_PRO_HIGH )
    324            {
    325              ZDO_Config_Node_Descriptor.CapabilityFlags |= CAPINFO_SECURITY_CAPABLE;
    326            }
    327          
    328            // Initialize ZigBee Device Security Manager
    329            ZDSecMgrInit(state);
   \   000005                ; Setup parameters for call to function ZDSecMgrInit
   \   000005   12....       LCALL   ??ZDSecMgrInit?relay
    330          
    331            if ( ZG_SECURE_ENABLED )
    332            {
    333              if ( state != ZDO_INITDEV_RESTORED_NETWORK_STATE )
    334              {
    335                nwkFrameCounter = 0;
    336          
    337                if( _NIB.nwkKeyLoaded == FALSE )
    338                {
    339                  if ( ( ZG_BUILD_COORDINATOR_TYPE && ZG_DEVICE_COORDINATOR_TYPE          ) ||
    340                       ( ( zgSecurityMode == ZG_SECURITY_RESIDENTIAL ) && zgPreConfigKeys )    )
    341                  {
    342                      ZDSecMgrReadKeyFromNv(ZCD_NV_PRECFGKEY, zgPreConfigKey);
    343                      SSP_UpdateNwkKey( zgPreConfigKey, 0);
    344                      SSP_SwitchNwkKey( 0 );
    345          
    346                      // clear local copy of key
    347                      osal_memset(zgPreConfigKey, 0x00, SEC_KEY_LEN);
    348                  }
    349                }
    350              }
    351            }
    352          }
   \   000008   02....       LJMP    ??Subroutine49_0 & 0xFFFF
    353          
    354          /*********************************************************************
    355           * @fn      ZDApp_event_loop()
    356           *
    357           * @brief   Main event loop for Zigbee device objects task. This function
    358           *          should be called at periodic intervals.
    359           *
    360           * @param   task_id - Task ID
    361           * @param   events  - Bitmap of events
    362           *
    363           * @return  none
    364           */

   \                                 In  segment BANKED_CODE, align 1, keep-with-next
    365          UINT16 ZDApp_event_loop( uint8 task_id, UINT16 events )
   \                     ZDApp_event_loop:
    366          {
   \   000000   74F6         MOV     A,#-0xa
   \   000002   12....       LCALL   ?BANKED_ENTER_XDATA
   \   000005                ; Saved register size: 10
   \   000005                ; Auto size: 0
   \   000005   EA           MOV     A,R2
   \   000006   FE           MOV     R6,A
   \   000007   EB           MOV     A,R3
   \   000008   FF           MOV     R7,A
    367            uint8 *msg_ptr;
    368          
    369            if ( events & SYS_EVENT_MSG )
   \   000009   5480         ANL     A,#0x80
   \   00000B   7033         JNZ     ??ZDApp_event_loop_0
    370            {
    371              while ( (msg_ptr = osal_msg_receive( ZDAppTaskID )) )
    372              {
    373                ZDApp_ProcessOSALMsg( (osal_event_hdr_t *)msg_ptr );
    374          
    375                // Release the memory
    376                osal_msg_deallocate( msg_ptr );
    377              }
    378          
    379              // Return unprocessed events
    380              return (events ^ SYS_EVENT_MSG);
    381            }
    382          
    383            if ( events & ZDO_NETWORK_INIT )
   \   00000D   EE           MOV     A,R6
   \   00000E   A2E0         MOV     C,0xE0 /* A   */.0
   \   000010   5047         JNC     ??ZDApp_event_loop_1
    384            {
    385              // Initialize apps and start the network
    386              devState = DEV_INIT;
   \   000012   90....       MOV     DPTR,#devState
   \   000015   7401         MOV     A,#0x1
   \   000017   F0           MOVX    @DPTR,A
    387              osal_set_event( ZDAppTaskID, ZDO_STATE_CHANGE_EVT );
   \   000018                ; Setup parameters for call to function osal_set_event
   \   000018   12....       LCALL   ?Subroutine18 & 0xFFFF
    388          
    389          //*********************开启设备***********************************************//
    390              ZDO_StartDevice( (uint8)ZDO_Config_Node_Descriptor.LogicalType, devStartMode,
    391                               DEFAULT_BEACON_ORDER, DEFAULT_SUPERFRAME_ORDER );
   \                     ??CrossCallReturnLabel_63:
   \   00001B                ; Setup parameters for call to function ZDO_StartDevice
   \   00001B   7C0F         MOV     R4,#0xf
   \   00001D   7B0F         MOV     R3,#0xf
   \   00001F   90....       MOV     DPTR,#devStartMode
   \   000022   E0           MOVX    A,@DPTR
   \   000023   FA           MOV     R2,A
   \   000024   90....       MOV     DPTR,#ZDO_Config_Node_Descriptor
   \   000027   E0           MOVX    A,@DPTR
   \   000028   5407         ANL     A,#0x7
   \   00002A   F9           MOV     R1,A
   \   00002B   12....       LCALL   ??ZDO_StartDevice?relay
    392          
    393              // Return unprocessed events
    394              return (events ^ ZDO_NETWORK_INIT);
   \   00002E   EE           MOV     A,R6
   \   00002F   6401         XRL     A,#0x1
   \                     ??ZDApp_event_loop_2:
   \   000031   FA           MOV     R2,A
   \   000032   EF           MOV     A,R7
   \                     ??ZDApp_event_loop_3:
   \   000033   FB           MOV     R3,A
   \   000034   8072         SJMP    ??ZDApp_event_loop_4
    395            }
   \                     ??ZDApp_event_loop_5:
   \   000036                ; Setup parameters for call to function ZDApp_ProcessOSALMsg
   \   000036   12....       LCALL   ??ZDApp_ProcessOSALMsg?relay
   \   000039                ; Setup parameters for call to function osal_msg_deallocate
   \   000039   AA..         MOV     R2,?V0 + 0
   \   00003B   AB..         MOV     R3,?V0 + 1
   \   00003D   12....       LCALL   ??osal_msg_deallocate?relay
   \                     ??ZDApp_event_loop_0:
   \   000040                ; Setup parameters for call to function osal_msg_receive
   \   000040   90....       MOV     DPTR,#ZDAppTaskID
   \   000043   E0           MOVX    A,@DPTR
   \   000044   F9           MOV     R1,A
   \   000045   12....       LCALL   ??osal_msg_receive?relay
   \   000048   8A..         MOV     ?V0 + 0,R2
   \   00004A   8B..         MOV     ?V0 + 1,R3
   \   00004C   A9..         MOV     R1,?V0 + 1
   \   00004E   EA           MOV     A,R2
   \   00004F   49           ORL     A,R1
   \   000050   70E4         JNZ     ??ZDApp_event_loop_5
   \   000052   EE           MOV     A,R6
   \   000053   FA           MOV     R2,A
   \   000054   EF           MOV     A,R7
   \   000055   6480         XRL     A,#0x80
   \   000057   80DA         SJMP    ??ZDApp_event_loop_3
    396          
    397            if ( ZSTACK_ROUTER_BUILD )
    398            {
    399              if ( events & ZDO_NETWORK_START )
    400              {
    401                ZDApp_NetworkStartEvt();
    402          
    403                // Return unprocessed events
    404                return (events ^ ZDO_NETWORK_START);
    405              }
    406          
    407              if ( events & ZDO_ROUTER_START )
    408              {
    409                if ( nwkStatus == ZSuccess )
    410                {
    411                  if ( devState == DEV_END_DEVICE )
    412                    devState = DEV_ROUTER;
    413          
    414                  osal_pwrmgr_device( PWRMGR_ALWAYS_ON );
    415                }
    416                else
    417                {
    418                  // remain as end device!!
    419                }
    420                osal_set_event( ZDAppTaskID, ZDO_STATE_CHANGE_EVT );
    421          
    422                // Return unprocessed events
    423                return (events ^ ZDO_ROUTER_START);
    424              }
    425            }
    426          
    427            if ( events & ZDO_STATE_CHANGE_EVT )
   \                     ??ZDApp_event_loop_1:
   \   000059   5410         ANL     A,#0x10
   \   00005B   6023         JZ      ??ZDApp_event_loop_6
    428            {
    429              ZDO_UpdateNwkStatus( devState );
   \   00005D                ; Setup parameters for call to function ZDO_UpdateNwkStatus
   \   00005D   90....       MOV     DPTR,#devState
   \   000060   E0           MOVX    A,@DPTR
   \   000061   F9           MOV     R1,A
   \   000062   12....       LCALL   ??ZDO_UpdateNwkStatus?relay
    430          
    431              // At start up, do one MTO route discovery if the device is a concentrator
    432              if ( zgConcentratorEnable == TRUE )
   \   000065   90....       MOV     DPTR,#zgConcentratorEnable
   \   000068   E0           MOVX    A,@DPTR
   \   000069   6401         XRL     A,#0x1
   \   00006B   700E         JNZ     ??CrossCallReturnLabel_88
    433              {
    434                // Start next event
    435                osal_start_timerEx( NWK_TaskID, NWK_MTO_RTG_REQ_EVT, 100 );
   \   00006D                ; Setup parameters for call to function osal_start_timerEx
   \   00006D   7C64         MOV     R4,#0x64
   \   00006F   7D00         MOV     R5,#0x0
   \   000071   7A00         MOV     R2,#0x0
   \   000073   7B08         MOV     R3,#0x8
   \   000075   90....       MOV     DPTR,#NWK_TaskID
   \   000078   12....       LCALL   ??Subroutine48_0 & 0xFFFF
    436              }
    437          
    438              // Return unprocessed events
    439              return (events ^ ZDO_STATE_CHANGE_EVT);
   \                     ??CrossCallReturnLabel_88:
   \   00007B   EE           MOV     A,R6
   \   00007C   6410         XRL     A,#0x10
   \   00007E   80B1         SJMP    ??ZDApp_event_loop_2
    440            }
    441          
    442            if ( events & ZDO_COMMAND_CNF )
   \                     ??ZDApp_event_loop_6:
   \   000080   EE           MOV     A,R6
   \   000081   5408         ANL     A,#0x8
   \   000083   6006         JZ      ??ZDApp_event_loop_7
    443            {
    444              // User defined logic
    445          
    446              // Return unprocessed events
    447              return (events ^ ZDO_COMMAND_CNF);
   \   000085   EE           MOV     A,R6
   \   000086   6408         XRL     A,#0x8
   \   000088   FA           MOV     R2,A
   \   000089   801D         SJMP    ??ZDApp_event_loop_4
    448            }
    449          
    450            if ( events & ZDO_NWK_UPDATE_NV )
   \                     ??ZDApp_event_loop_7:
   \   00008B   EF           MOV     A,R7
   \   00008C   5402         ANL     A,#0x2
   \   00008E   6005         JZ      ??ZDApp_event_loop_8
    451            {
    452              ZDApp_SaveNetworkStateEvt();
    453          
    454              // Return unprocessed events
    455              return (events ^ ZDO_NWK_UPDATE_NV);
   \   000090   EF           MOV     A,R7
   \   000091   6402         XRL     A,#0x2
   \   000093   809E         SJMP    ??ZDApp_event_loop_3
    456            }
    457          
    458            if ( events & ZDO_DEVICE_RESET )
   \                     ??ZDApp_event_loop_8:
   \   000095   EE           MOV     A,R6
   \   000096   5404         ANL     A,#0x4
   \   000098   600A         JZ      ??ZDApp_event_loop_9
    459            {
    460          #ifdef ZBA_FALLBACK_NWKKEY
    461              if ( devState == DEV_END_DEVICE_UNAUTH )
    462              {
    463                ZDSecMgrFallbackNwkKey();
    464              }
    465              else
    466          #endif
    467              {
    468                // Set the NV startup option to force a "new" join.
    469                zgWriteStartupOptions( ZG_STARTUP_SET, ZCD_STARTOPT_DEFAULT_NETWORK_STATE );
   \   00009A                ; Setup parameters for call to function zgWriteStartupOptions
   \   00009A   7A02         MOV     R2,#0x2
   \   00009C   79FF         MOV     R1,#-0x1
   \   00009E   12....       LCALL   ??zgWriteStartupOptions?relay
    470          
    471                // The device has been in the UNAUTH state, so reset
    472                // Note: there will be no return from this call
    473                SystemResetSoft();
   \   0000A1                ; Setup parameters for call to function Onboard_soft_reset
   \   0000A1   12....       LCALL   Onboard_soft_reset & 0xFFFF
    474              }
    475            }
    476          
    477            if ( ZG_SECURE_ENABLED )
    478            {
    479              return ( ZDApp_ProcessSecEvent( task_id, events ) );
    480            }
    481            else
    482            {
    483              // Discard or make more handlers
    484              return 0;
   \                     ??ZDApp_event_loop_9:
   \   0000A4   7A00         MOV     R2,#0x0
   \   0000A6   7B00         MOV     R3,#0x0
    485            }
   \                     ??ZDApp_event_loop_4:
   \   0000A8   02....       LJMP    ??Subroutine51_0 & 0xFFFF
    486          }

   \                                 In  segment BANKED_CODE, align 1, keep-with-next
   \                     ?Subroutine18:
   \   000000   7A10         MOV     R2,#0x10
   \   000002                REQUIRE ??Subroutine42_0
   \   000002                ; // Fall through to label ??Subroutine42_0

   \                                 In  segment BANKED_CODE, align 1, keep-with-next
   \                     ??Subroutine42_0:
   \   000000   7B00         MOV     R3,#0x0
   \   000002   90....       MOV     DPTR,#ZDAppTaskID
   \   000005   E0           MOVX    A,@DPTR
   \   000006   F9           MOV     R1,A
   \   000007   12....       LCALL   ??osal_set_event?relay
   \   00000A   22           RET

   \                                 In  segment BANKED_CODE, align 1, keep-with-next
   \                     ??Subroutine48_0:
   \   000000   E0           MOVX    A,@DPTR
   \   000001   F9           MOV     R1,A
   \   000002   12....       LCALL   ??osal_start_timerEx?relay
   \   000005   22           RET

   \                                 In  segment BANKED_CODE, align 1, keep-with-next
   \                     ??Subroutine51_0:
   \   000000   7F02         MOV     R7,#0x2
   \   000002   02....       LJMP    ?BANKED_LEAVE_XDATA
    487          
    488          /*********************************************************************
    489           * @fn      ZDApp_ProcessSecEvent()
    490           *
    491           * @brief   Process incoming security events.
    492           *
    493           * @param   task_id - Task ID
    494           * @param   events  - Bitmap of events
    495           *
    496           * @return  none
    497           */

   \                                 In  segment BANKED_CODE, align 1, keep-with-next
    498          UINT16 ZDApp_ProcessSecEvent( uint8 task_id, UINT16 events )
   \                     ZDApp_ProcessSecEvent:
    499          {
   \   000000   74F7         MOV     A,#-0x9
   \   000002   12....       LCALL   ?BANKED_ENTER_XDATA
   \   000005                ; Saved register size: 9
   \   000005                ; Auto size: 0
   \   000005   EA           MOV     A,R2
   \   000006   FE           MOV     R6,A
   \   000007   EB           MOV     A,R3
   \   000008   FF           MOV     R7,A
    500            (void)task_id;  // Intentionally unreferenced parameter
    501          
    502            if ( ZSTACK_ROUTER_BUILD )
    503            {
    504              if ( events & ZDO_NEW_DEVICE )
    505              {
    506                // process the new device event
    507                if ( ZDSecMgrNewDeviceEvent() == TRUE )
    508                {
    509                  osal_start_timerEx( ZDAppTaskID, ZDO_NEW_DEVICE, 1000 );
    510                }
    511          
    512                // Return unprocessed events
    513                return (events ^ ZDO_NEW_DEVICE);
    514              }
    515            }
    516          
    517            if ( (ZG_CHECK_SECURITY_MODE == ZG_SECURITY_PRO_HIGH)
    518                || (ZG_CHECK_SECURITY_MODE == ZG_SECURITY_SE_STANDARD) )
    519            {
    520              if ( ZG_BUILD_COORDINATOR_TYPE && ZG_DEVICE_COORDINATOR_TYPE )
    521              {
    522                if ( events & ZDO_SECMGR_EVENT )
    523                {
    524                  ZDSecMgrEvent();
    525          
    526                  // Return unprocessed events
    527                  return (events ^ ZDO_SECMGR_EVENT);
    528                }
    529              }
    530            }
    531          
    532            if ( events & ZDO_DEVICE_AUTH )
   \   000009   EE           MOV     A,R6
   \   00000A   5480         ANL     A,#0x80
   \   00000C   600B         JZ      ??ZDApp_ProcessSecEvent_0
    533            {
    534              ZDApp_DeviceAuthEvt();
   \   00000E                ; Setup parameters for call to function ZDApp_DeviceAuthEvt
   \   00000E   12....       LCALL   ??ZDApp_DeviceAuthEvt?relay
    535          
    536              // Return unprocessed events
    537              return (events ^ ZDO_DEVICE_AUTH);
   \   000011   EE           MOV     A,R6
   \   000012   6480         XRL     A,#0x80
   \   000014   FA           MOV     R2,A
   \   000015   EF           MOV     A,R7
   \                     ??ZDApp_ProcessSecEvent_1:
   \   000016   FB           MOV     R3,A
   \   000017   8049         SJMP    ??ZDApp_ProcessSecEvent_2
    538            }
    539          
    540            if ( events & ZDO_FRAMECOUNTER_CHANGE )
   \                     ??ZDApp_ProcessSecEvent_0:
   \   000019   EF           MOV     A,R7
   \   00001A   5404         ANL     A,#0x4
   \   00001C   6027         JZ      ??ZDApp_ProcessSecEvent_3
    541            {
    542              if ( nwkFrameCounterChanges++ > MAX_NWK_FRAMECOUNTER_CHANGES )
   \   00001E   90....       MOV     DPTR,#nwkFrameCounterChanges
   \   000021   12....       LCALL   ??Subroutine44_0 & 0xFFFF
   \                     ??CrossCallReturnLabel_74:
   \   000024   E8           MOV     A,R0
   \   000025   2401         ADD     A,#0x1
   \   000027   FA           MOV     R2,A
   \   000028   E9           MOV     A,R1
   \   000029   3400         ADDC    A,#0x0
   \   00002B   FB           MOV     R3,A
   \   00002C   90....       MOV     DPTR,#nwkFrameCounterChanges
   \   00002F   12....       LCALL   ??Subroutine60_0 & 0xFFFF
   \                     ??CrossCallReturnLabel_122:
   \   000032   C3           CLR     C
   \   000033   E8           MOV     A,R0
   \   000034   94E9         SUBB    A,#-0x17
   \   000036   E9           MOV     A,R1
   \   000037   9403         SUBB    A,#0x3
   \   000039   4003         JC      ??ZDApp_ProcessSecEvent_4
    543              {
    544                ZDApp_SaveNwkKey();
   \   00003B                ; Setup parameters for call to function ZDApp_SaveNwkKey
   \   00003B   12....       LCALL   ??ZDApp_SaveNwkKey?relay
    545              }
    546          
    547              // Return unprocessed events
    548              return (events ^ ZDO_FRAMECOUNTER_CHANGE);
   \                     ??ZDApp_ProcessSecEvent_4:
   \   00003E   EE           MOV     A,R6
   \   00003F   FA           MOV     R2,A
   \   000040   EF           MOV     A,R7
   \   000041   6404         XRL     A,#0x4
   \   000043   80D1         SJMP    ??ZDApp_ProcessSecEvent_1
    549            }
    550          
    551            if ( events & ZDO_APS_FRAMECOUNTER_CHANGE )
   \                     ??ZDApp_ProcessSecEvent_3:
   \   000045   EF           MOV     A,R7
   \   000046   5410         ANL     A,#0x10
   \   000048   6005         JZ      ??ZDApp_ProcessSecEvent_5
    552            {
    553          #if defined (NV_RESTORE)
    554              ZDSecMgrSaveApsLinkKey();
    555          #endif // (NV_RESTORE)
    556          
    557              // Return unprocessed events
    558              return (events ^ ZDO_APS_FRAMECOUNTER_CHANGE);
   \   00004A   EF           MOV     A,R7
   \   00004B   6410         XRL     A,#0x10
   \   00004D   80C7         SJMP    ??ZDApp_ProcessSecEvent_1
    559            }
    560          
    561            if ( events & ZDO_TCLK_FRAMECOUNTER_CHANGE )
   \                     ??ZDApp_ProcessSecEvent_5:
   \   00004F   EF           MOV     A,R7
   \   000050   5408         ANL     A,#0x8
   \   000052   600A         JZ      ??ZDApp_ProcessSecEvent_6
    562            {
    563              ZDSecMgrSaveTCLinkKey();
   \   000054                ; Setup parameters for call to function ZDSecMgrSaveTCLinkKey
   \   000054   12....       LCALL   ??ZDSecMgrSaveTCLinkKey?relay
    564          
    565              // Return unprocessed events
    566              return (events ^ ZDO_TCLK_FRAMECOUNTER_CHANGE);
   \   000057   EE           MOV     A,R6
   \   000058   FA           MOV     R2,A
   \   000059   EF           MOV     A,R7
   \   00005A   6408         XRL     A,#0x8
   \   00005C   80B8         SJMP    ??ZDApp_ProcessSecEvent_1
    567            }
    568          
    569            // Discard or make more handlers
    570            return 0;
   \                     ??ZDApp_ProcessSecEvent_6:
   \   00005E   7A00         MOV     R2,#0x0
   \   000060   7B00         MOV     R3,#0x0
   \                     ??ZDApp_ProcessSecEvent_2:
   \   000062   02....       LJMP    ??Subroutine49_0 & 0xFFFF
    571          }

   \                                 In  segment BANKED_CODE, align 1, keep-with-next
   \                     ??Subroutine44_0:
   \   000000   E0           MOVX    A,@DPTR
   \   000001   F8           MOV     R0,A
   \   000002   A3           INC     DPTR
   \   000003   E0           MOVX    A,@DPTR
   \   000004   F9           MOV     R1,A
   \   000005   22           RET

   \                                 In  segment BANKED_CODE, align 1, keep-with-next
   \                     ??Subroutine60_0:
   \   000000   EA           MOV     A,R2
   \   000001   F0           MOVX    @DPTR,A
   \   000002   A3           INC     DPTR
   \   000003   EB           MOV     A,R3
   \   000004   F0           MOVX    @DPTR,A
   \   000005   22           RET
    572          
    573          /*********************************************************************
    574           * Application Functions
    575           */
    576          
    577          /*********************************************************************
    578           * @fn      ZDOInitDevice
    579           *
    580           * @brief   Start the device in the network.  This function will read
    581           *   ZCD_NV_STARTUP_OPTION (NV item) to determine whether or not to
    582           *   restore the network state of the device.
    583           *
    584           * @param   startDelay - timeDelay to start device (in milliseconds).
    585           *                       There is a jitter added to this delay:
    586           *                       ((NWK_START_DELAY + startDelay)
    587           *                       + (osal_rand() & EXTENDED_JOINING_RANDOM_MASK))
    588           *                       When startDelay is set to ZDO_INIT_HOLD_NWK_START
    589           *                       this function will hold the network init. Application
    590           *                       can start the device.
    591           *
    592           * NOTE:    If the application would like to force a "new" join, the
    593           *          application should set the ZCD_STARTOPT_DEFAULT_NETWORK_STATE
    594           *          bit in the ZCD_NV_STARTUP_OPTION NV item before calling
    595           *          this function. "new" join means to not restore the network
    596           *          state of the device. Use zgWriteStartupOptions() to set these
    597           *          options.
    598           *
    599           * @return
    600           *    ZDO_INITDEV_RESTORED_NETWORK_STATE  - The device's network state was
    601           *          restored.
    602           *    ZDO_INITDEV_NEW_NETWORK_STATE - The network state was initialized.
    603           *          This could mean that ZCD_NV_STARTUP_OPTION said to not restore, or
    604           *          it could mean that there was no network state to restore.
    605           *    ZDO_INITDEV_LEAVE_NOT_STARTED - Before the reset, a network leave was issued
    606           *          with the rejoin option set to TRUE.  So, the device was not
    607           *          started in the network (one time only).  The next time this
    608           *          function is called it will start.
    609           */

   \                                 In  segment BANKED_CODE, align 1, keep-with-next
    610          uint8 ZDOInitDevice( uint16 startDelay )
   \                     ZDOInitDevice:
    611          {
   \   000000   74F6         MOV     A,#-0xa
   \   000002   12....       LCALL   ?BANKED_ENTER_XDATA
   \   000005                ; Saved register size: 10
   \   000005                ; Auto size: 2
   \   000005   74FE         MOV     A,#-0x2
   \   000007   12....       LCALL   ?ALLOC_XSTACK8
   \   00000A   12....       LCALL   ?Subroutine14 & 0xFFFF
    612            uint8 networkStateNV = ZDO_INITDEV_NEW_NETWORK_STATE;
    613            uint16 extendedDelay = 0;
    614          
    615            if ( devState == DEV_HOLD )
   \                     ??CrossCallReturnLabel_127:
   \   00000D   90....       MOV     DPTR,#devState
   \   000010   E0           MOVX    A,@DPTR
   \   000011   7005         JNZ     ??ZDOInitDevice_0
    616            {
    617              // Initialize the RAM items table, in case an NV item has been updated.
    618              zgInitItems( FALSE );
   \   000013                ; Setup parameters for call to function zgInitItems
   \   000013   7900         MOV     R1,#0x0
   \   000015   12....       LCALL   ??zgInitItems?relay
    619            }
    620          
    621            ZDConfig_InitDescriptors();
   \                     ??ZDOInitDevice_0:
   \   000018                ; Setup parameters for call to function ZDConfig_InitDescriptors
   \   000018   12....       LCALL   ??ZDConfig_InitDescriptors?relay
    622            //devtag.071807.todo - fix this temporary solution
    623            _NIB.CapabilityFlags = ZDO_Config_Node_Descriptor.CapabilityFlags;
   \   00001B   90....       MOV     DPTR,#ZDO_Config_Node_Descriptor + 2
   \   00001E   E0           MOVX    A,@DPTR
   \   00001F   90....       MOV     DPTR,#_NIB + 14
   \   000022   F0           MOVX    @DPTR,A
    624          
    625          #if defined ( NV_RESTORE )
    626            // Get Keypad directly to see if a reset nv is needed.
    627            // Hold down the SW_BYPASS_NV key (defined in OnBoard.h)
    628            // while booting to skip past NV Restore.
    629            if ( HalKeyRead() == SW_BYPASS_NV )
    630              networkStateNV = ZDO_INITDEV_NEW_NETWORK_STATE;
    631            else
    632            {
    633              // Determine if NV should be restored
    634              networkStateNV = ZDApp_ReadNetworkRestoreState();
    635            }
    636          
    637            if ( networkStateNV == ZDO_INITDEV_RESTORED_NETWORK_STATE )
    638            {
    639              networkStateNV = ZDApp_RestoreNetworkState();
    640            }
    641            else
    642            {
    643              // Wipe out the network state in NV
    644              NLME_InitNV();
    645              NLME_SetDefaultNV();
    646              // clear NWK key values
    647              ZDSecMgrClearNVKeyValues();
    648            }
    649          #endif
    650          
    651            if ( networkStateNV == ZDO_INITDEV_NEW_NETWORK_STATE )
    652            {
    653              ZDAppDetermineDeviceType();
   \   000023                ; Setup parameters for call to function ZDAppDetermineDeviceType
   \   000023   12....       LCALL   ??ZDAppDetermineDeviceType?relay
    654          
    655              // Only delay if joining network - not restoring network state
    656              extendedDelay = (uint16)((NWK_START_DELAY + startDelay)
    657                        + (osal_rand() & EXTENDED_JOINING_RANDOM_MASK));
   \   000026                ; Setup parameters for call to function osal_rand
   \   000026   12....       LCALL   ??osal_rand?relay
   \   000029   85..82       MOV     DPL,?XSP + 0
   \   00002C   85..83       MOV     DPH,?XSP + 1
   \   00002F   EA           MOV     A,R2
   \   000030   547F         ANL     A,#0x7f
   \   000032   F8           MOV     R0,A
   \   000033   E0           MOVX    A,@DPTR
   \   000034   28           ADD     A,R0
   \   000035   F8           MOV     R0,A
   \   000036   A3           INC     DPTR
   \   000037   E0           MOVX    A,@DPTR
   \   000038   3400         ADDC    A,#0x0
   \   00003A   F9           MOV     R1,A
   \   00003B   E8           MOV     A,R0
   \   00003C   2464         ADD     A,#0x64
   \   00003E   FE           MOV     R6,A
   \   00003F   E9           MOV     A,R1
   \   000040   3400         ADDC    A,#0x0
   \   000042   FF           MOV     R7,A
    658            }
    659          
    660            // Initialize the security for type of device
    661            ZDApp_SecInit( networkStateNV );
   \   000043                ; Setup parameters for call to function ZDSecMgrInit
   \   000043   7901         MOV     R1,#0x1
   \   000045   12....       LCALL   ??ZDSecMgrInit?relay
    662          
    663            if( ZDO_INIT_HOLD_NWK_START != startDelay )
   \   000048   85..82       MOV     DPL,?XSP + 0
   \   00004B   85..83       MOV     DPH,?XSP + 1
   \   00004E   E0           MOVX    A,@DPTR
   \   00004F   F4           CPL     A
   \   000050   7003         JNZ     ??ZDOInitDevice_1
   \   000052   A3           INC     DPTR
   \   000053   E0           MOVX    A,@DPTR
   \   000054   F4           CPL     A
   \                     ??ZDOInitDevice_1:
   \   000055   6035         JZ      ??ZDOInitDevice_2
    664            {
    665              devState = DEV_INIT;    // Remove the Hold state
   \   000057   90....       MOV     DPTR,#devState
   \   00005A   7401         MOV     A,#0x1
   \   00005C   F0           MOVX    @DPTR,A
    666          
    667              // Initialize leave control logic
    668              ZDApp_LeaveCtrlInit();
   \   00005D                ; Setup parameters for call to function ZDApp_LeaveCtrlInit
   \   00005D   12....       LCALL   ??ZDApp_LeaveCtrlInit?relay
    669          
    670              // Check leave control reset settings
    671              ZDApp_LeaveCtrlStartup( &devState, &startDelay );
   \   000060                ; Setup parameters for call to function ZDApp_LeaveCtrlStartup
   \   000060   85..82       MOV     DPL,?XSP + 0
   \   000063   85..83       MOV     DPH,?XSP + 1
   \   000066   AC82         MOV     R4,DPL
   \   000068   AD83         MOV     R5,DPH
   \   00006A   7A..         MOV     R2,#devState & 0xff
   \   00006C   7B..         MOV     R3,#(devState >> 8) & 0xff
   \   00006E   12....       LCALL   ??ZDApp_LeaveCtrlStartup?relay
    672          
    673              // Leave may make the hold state come back
    674              if ( devState == DEV_HOLD )
   \   000071   90....       MOV     DPTR,#devState
   \   000074   E0           MOVX    A,@DPTR
   \   000075   700E         JNZ     ??ZDOInitDevice_3
    675              {
    676                // Set the NV startup option to force a "new" join.
    677                zgWriteStartupOptions( ZG_STARTUP_SET, ZCD_STARTOPT_DEFAULT_NETWORK_STATE );
   \   000077                ; Setup parameters for call to function zgWriteStartupOptions
   \   000077   7A02         MOV     R2,#0x2
   \   000079   79FF         MOV     R1,#-0x1
   \   00007B   12....       LCALL   ??zgWriteStartupOptions?relay
    678          
    679                // Notify the applications
    680                osal_set_event( ZDAppTaskID, ZDO_STATE_CHANGE_EVT );
   \   00007E                ; Setup parameters for call to function osal_set_event
   \   00007E   12....       LCALL   ?Subroutine18 & 0xFFFF
    681          
    682                return ( ZDO_INITDEV_LEAVE_NOT_STARTED );   // Don't join - (one time).
   \                     ??CrossCallReturnLabel_64:
   \   000081   7902         MOV     R1,#0x2
   \   000083   8011         SJMP    ??ZDOInitDevice_4
    683              }
    684          
    685              // Trigger the network start
    686          //********************开启联网功能********************************************//
    687              ZDApp_NetworkInit( extendedDelay );
   \                     ??ZDOInitDevice_3:
   \   000085                ; Setup parameters for call to function ZDApp_NetworkInit
   \   000085   EE           MOV     A,R6
   \   000086   FA           MOV     R2,A
   \   000087   EF           MOV     A,R7
   \   000088   FB           MOV     R3,A
   \   000089   12....       LCALL   ??ZDApp_NetworkInit?relay
    688            }
    689          
    690            // set broadcast address mask to support broadcast filtering
    691            NLME_SetBroadcastFilter( ZDO_Config_Node_Descriptor.CapabilityFlags );
   \                     ??ZDOInitDevice_2:
   \   00008C                ; Setup parameters for call to function NLME_SetBroadcastFilter
   \   00008C   90....       MOV     DPTR,#ZDO_Config_Node_Descriptor + 2
   \   00008F   E0           MOVX    A,@DPTR
   \   000090   F9           MOV     R1,A
   \   000091   12....       LCALL   ??NLME_SetBroadcastFilter?relay
    692          
    693            return ( networkStateNV );
   \   000094   7901         MOV     R1,#0x1
   \                     ??ZDOInitDevice_4:
   \   000096                REQUIRE ?Subroutine7
   \   000096                ; // Fall through to label ?Subroutine7
    694          }

   \                                 In  segment BANKED_CODE, align 1, keep-with-next
   \                     ?Subroutine7:
   \   000000   7402         MOV     A,#0x2
   \   000002   02....       LJMP    ??Subroutine50_0 & 0xFFFF

   \                                 In  segment BANKED_CODE, align 1, keep-with-next
   \                     ??Subroutine50_0:
   \   000000   12....       LCALL   ?DEALLOC_XSTACK8
   \   000003                REQUIRE ??Subroutine51_0
   \   000003                ; // Fall through to label ??Subroutine51_0

   \                                 In  segment BANKED_CODE, align 1, keep-with-next
   \                     ?Subroutine14:
   \   000000   85..82       MOV     DPL,?XSP + 0
   \   000003   85..83       MOV     DPH,?XSP + 1
   \   000006                REQUIRE ??Subroutine60_0
   \   000006                ; // Fall through to label ??Subroutine60_0
    695          
    696          /*********************************************************************
    697           * @fn      ZDApp_ReadNetworkRestoreState
    698           *
    699           * @brief   Read the ZCD_NV_STARTUP_OPTION NV Item to state whether
    700           *          or not to restore the network state.
    701           *          If the read value has the ZCD_STARTOPT_DEFAULT_NETWORK_STATE
    702           *          bit set return the ZDO_INITDEV_NEW_NETWORK_STATE.
    703           *
    704           * @param   none
    705           *
    706           * @return  ZDO_INITDEV_NEW_NETWORK_STATE
    707           *          or ZDO_INITDEV_RESTORED_NETWORK_STATE based on whether or
    708           *          not ZCD_STARTOPT_DEFAULT_NETWORK_STATE bit is set in
    709           *          ZCD_NV_STARTUP_OPTION
    710           */

   \                                 In  segment BANKED_CODE, align 1, keep-with-next
    711          uint8 ZDApp_ReadNetworkRestoreState( void )
   \                     ZDApp_ReadNetworkRestoreState:
    712          {
   \   000000   74F7         MOV     A,#-0x9
   \   000002   12....       LCALL   ?BANKED_ENTER_XDATA
   \   000005                ; Saved register size: 9
   \   000005                ; Auto size: 0
    713            uint8 networkStateNV = ZDO_INITDEV_RESTORED_NETWORK_STATE;
   \   000005   7E00         MOV     R6,#0x0
    714          
    715            // Look for the New Network State option.
    716            if ( zgReadStartupOptions() & ZCD_STARTOPT_DEFAULT_NETWORK_STATE )
   \   000007                ; Setup parameters for call to function zgReadStartupOptions
   \   000007   12....       LCALL   ??zgReadStartupOptions?relay
   \   00000A   E9           MOV     A,R1
   \   00000B   A2E1         MOV     C,0xE0 /* A   */.1
   \   00000D   5001         JNC     ??ZDApp_ReadNetworkRestoreState_0
    717            {
    718              networkStateNV = ZDO_INITDEV_NEW_NETWORK_STATE;
   \   00000F   0E           INC     R6
    719            }
    720          
    721            return ( networkStateNV );
   \                     ??ZDApp_ReadNetworkRestoreState_0:
   \   000010   EE           MOV     A,R6
   \   000011   F9           MOV     R1,A
   \   000012   02....       LJMP    ??Subroutine49_0 & 0xFFFF
    722          }
    723          
    724          /*********************************************************************
    725           * @fn      ZDAppDetermineDeviceType()
    726           *
    727           * @brief   Determines the type of device to start.
    728           *
    729           *          Looks at zgDeviceLogicalType and determines what type of
    730           *          device to start.  The types are:
    731           *            ZG_DEVICETYPE_COORDINATOR
    732           *            ZG_DEVICETYPE_ROUTER
    733           *            ZG_DEVICETYPE_ENDDEVICE
    734           *
    735           * @param   none
    736           *
    737           * @return  none
    738           */

   \                                 In  segment BANKED_CODE, align 1, keep-with-next
    739          void ZDAppDetermineDeviceType( void )
   \                     ZDAppDetermineDeviceType:
    740          {
   \   000000   C082         PUSH    DPL
   \   000002   C083         PUSH    DPH
   \   000004                ; Saved register size: 2
   \   000004                ; Auto size: 0
    741            if ( zgDeviceLogicalType == ZG_DEVICETYPE_COORDINATOR )
   \   000004   90....       MOV     DPTR,#zgDeviceLogicalType
   \   000007   E0           MOVX    A,@DPTR
   \   000008   700E         JNZ     ??ZDAppDetermineDeviceType_0
    742            {
    743              devStartMode = MODE_HARD;     // Start as a coordinator
   \   00000A   90....       MOV     DPTR,#devStartMode
   \   00000D   7402         MOV     A,#0x2
   \   00000F   F0           MOVX    @DPTR,A
    744              ZDO_Config_Node_Descriptor.LogicalType = NODETYPE_COORDINATOR;
   \   000010   90....       MOV     DPTR,#ZDO_Config_Node_Descriptor
   \   000013   E0           MOVX    A,@DPTR
   \   000014   54F8         ANL     A,#0xf8
   \   000016   802E         SJMP    ??ZDAppDetermineDeviceType_1
    745            }
    746            else
    747            {
    748              if ( zgDeviceLogicalType == ZG_DEVICETYPE_ROUTER  )
   \                     ??ZDAppDetermineDeviceType_0:
   \   000018   6401         XRL     A,#0x1
   \   00001A   700A         JNZ     ??ZDAppDetermineDeviceType_2
    749                ZDO_Config_Node_Descriptor.LogicalType = NODETYPE_ROUTER;
   \   00001C   90....       MOV     DPTR,#ZDO_Config_Node_Descriptor
   \   00001F   E0           MOVX    A,@DPTR
   \   000020   54F8         ANL     A,#0xf8
   \   000022   4401         ORL     A,#0x1
   \   000024   800D         SJMP    ??ZDAppDetermineDeviceType_3
    750              else if ( zgDeviceLogicalType == ZG_DEVICETYPE_ENDDEVICE )
   \                     ??ZDAppDetermineDeviceType_2:
   \   000026   E0           MOVX    A,@DPTR
   \   000027   6402         XRL     A,#0x2
   \   000029   7009         JNZ     ??ZDAppDetermineDeviceType_4
    751                ZDO_Config_Node_Descriptor.LogicalType = NODETYPE_DEVICE;
   \   00002B   90....       MOV     DPTR,#ZDO_Config_Node_Descriptor
   \   00002E   E0           MOVX    A,@DPTR
   \   00002F   54F8         ANL     A,#0xf8
   \   000031   4402         ORL     A,#0x2
   \                     ??ZDAppDetermineDeviceType_3:
   \   000033   F0           MOVX    @DPTR,A
    752          
    753              // If AIB_apsUseExtendedPANID is set to a non-zero value by commissioning
    754              // The device shall do rejoin the network. Otherwise, do normal join
    755              if ( nwk_ExtPANIDValid( AIB_apsUseExtendedPANID ) == false )
   \                     ??ZDAppDetermineDeviceType_4:
   \   000034                ; Setup parameters for call to function nwk_ExtPANIDValid
   \   000034   7A..         MOV     R2,#AIB_apsUseExtendedPANID & 0xff
   \   000036   7B..         MOV     R3,#(AIB_apsUseExtendedPANID >> 8) & 0xff
   \   000038   12....       LCALL   ??nwk_ExtPANIDValid?relay
   \   00003B   E9           MOV     A,R1
   \   00003C   90....       MOV     DPTR,#devStartMode
   \   00003F   7003         JNZ     ??ZDAppDetermineDeviceType_5
    756              {
    757                devStartMode = MODE_JOIN;     // Assume joining
   \   000041   E4           CLR     A
   \   000042   8002         SJMP    ??ZDAppDetermineDeviceType_1
    758              }
    759              else
    760              {
    761                devStartMode = MODE_REJOIN;
   \                     ??ZDAppDetermineDeviceType_5:
   \   000044   7403         MOV     A,#0x3
   \                     ??ZDAppDetermineDeviceType_1:
   \   000046   F0           MOVX    @DPTR,A
    762              }
    763            }
    764          }
   \   000047   02....       LJMP    ?Subroutine2 & 0xFFFF

   \                                 In  segment BANKED_CODE, align 1, keep-with-next
   \                     ?Subroutine2:
   \   000000   D083         POP     DPH
   \   000002   D082         POP     DPL
   \   000004   02....       LJMP    ?BRET
    765          
    766          /*********************************************************************
    767           * @fn      ZDApp_NetworkStartEvt()
    768           *
    769           * @brief   Process the Network Start Event
    770           *
    771           * @param   none
    772           *
    773           * @return  none
    774           */

   \                                 In  segment BANKED_CODE, align 1, keep-with-next
    775          void ZDApp_NetworkStartEvt( void )
   \                     ZDApp_NetworkStartEvt:
    776          {
   \   000000   C082         PUSH    DPL
   \   000002   C083         PUSH    DPH
   \   000004                ; Saved register size: 2
   \   000004                ; Auto size: 0
    777            if ( nwkStatus == ZSuccess )
   \   000004   90....       MOV     DPTR,#nwkStatus
   \   000007   E0           MOVX    A,@DPTR
   \   000008   7012         JNZ     ??ZDApp_NetworkStartEvt_0
    778            {
    779              // Successfully started a ZigBee network
    780              if ( devState == DEV_COORD_STARTING )
   \   00000A   90....       MOV     DPTR,#devState
   \   00000D   E0           MOVX    A,@DPTR
   \   00000E   6408         XRL     A,#0x8
   \   000010   7003         JNZ     ??ZDApp_NetworkStartEvt_1
    781              {
    782                devState = DEV_ZB_COORD;
   \   000012   7409         MOV     A,#0x9
   \   000014   F0           MOVX    @DPTR,A
    783              }
    784          
    785              osal_pwrmgr_device( PWRMGR_ALWAYS_ON );
   \                     ??ZDApp_NetworkStartEvt_1:
   \   000015                ; Setup parameters for call to function osal_pwrmgr_device
   \   000015   7900         MOV     R1,#0x0
   \   000017   12....       LCALL   ??osal_pwrmgr_device?relay
    786              osal_set_event( ZDAppTaskID, ZDO_STATE_CHANGE_EVT );
   \   00001A                ; Setup parameters for call to function osal_set_event
   \   00001A   802B         SJMP    ??ZDApp_NetworkStartEvt_2
    787            }
    788            else
    789            {
    790              // Try again with a higher energy threshold !!
    791              if ( ( NLME_GetEnergyThreshold() + ENERGY_SCAN_INCREMENT ) < 0xff )
   \                     ??ZDApp_NetworkStartEvt_0:
   \   00001C                ; Setup parameters for call to function NLME_GetEnergyThreshold
   \   00001C   12....       LCALL   ??NLME_GetEnergyThreshold?relay
   \   00001F   E9           MOV     A,R1
   \   000020   2410         ADD     A,#0x10
   \   000022   F8           MOV     R0,A
   \   000023   E4           CLR     A
   \   000024   3400         ADDC    A,#0x0
   \   000026   F9           MOV     R1,A
   \   000027   E8           MOV     A,R0
   \   000028   94FF         SUBB    A,#-0x1
   \   00002A   E9           MOV     A,R1
   \   00002B   9400         SUBB    A,#0x0
   \   00002D   C3           CLR     C
   \   00002E   65D0         XRL     A,PSW
   \   000030   33           RLC     A
   \   000031   500E         JNC     ??ZDApp_NetworkStartEvt_3
    792              {
    793                NLME_SetEnergyThreshold( (uint8)(NLME_GetEnergyThreshold() + ENERGY_SCAN_INCREMENT) );
   \   000033                ; Setup parameters for call to function NLME_SetEnergyThreshold
   \   000033                ; Setup parameters for call to function NLME_GetEnergyThreshold
   \   000033   12....       LCALL   ??NLME_GetEnergyThreshold?relay
   \   000036   E9           MOV     A,R1
   \   000037   2410         ADD     A,#0x10
   \   000039   F9           MOV     R1,A
   \   00003A   12....       LCALL   ??NLME_SetEnergyThreshold?relay
    794                osal_set_event( ZDAppTaskID, ZDO_NETWORK_INIT );
   \   00003D                ; Setup parameters for call to function osal_set_event
   \   00003D   7A01         MOV     R2,#0x1
   \   00003F   8008         SJMP    ??ZDApp_NetworkStartEvt_4
    795              }
    796              else
    797              {
    798                // Failed to start network. Enter a dormant state (until user intervenes)
    799                devState = DEV_INIT;
   \                     ??ZDApp_NetworkStartEvt_3:
   \   000041   90....       MOV     DPTR,#devState
   \   000044   7401         MOV     A,#0x1
   \   000046   F0           MOVX    @DPTR,A
    800                osal_set_event( ZDAppTaskID, ZDO_STATE_CHANGE_EVT );
   \   000047                ; Setup parameters for call to function osal_set_event
   \                     ??ZDApp_NetworkStartEvt_2:
   \   000047   7A10         MOV     R2,#0x10
    801              }
    802            }
   \                     ??ZDApp_NetworkStartEvt_4:
   \   000049   12....       LCALL   ??Subroutine42_0 & 0xFFFF
    803          }
   \                     ??CrossCallReturnLabel_68:
   \   00004C   02....       LJMP    ?Subroutine2 & 0xFFFF
    804          
    805          /*********************************************************************
    806           * @fn      ZDApp_DeviceAuthEvt()
    807           *
    808           * @brief   Process the Device Authentic Event
    809           *
    810           * @param   none
    811           *
    812           * @return  none
    813           */

   \                                 In  segment BANKED_CODE, align 1, keep-with-next
    814          void ZDApp_DeviceAuthEvt( void )
   \                     ZDApp_DeviceAuthEvt:
    815          {
   \   000000   C082         PUSH    DPL
   \   000002   C083         PUSH    DPH
   \   000004                ; Saved register size: 2
   \   000004                ; Auto size: 0
    816            // received authentication from trust center
    817            if ( devState == DEV_END_DEVICE_UNAUTH )
   \   000004   90....       MOV     DPTR,#devState
   \   000007   E0           MOVX    A,@DPTR
   \   000008   6405         XRL     A,#0x5
   \   00000A   701D         JNZ     ??ZDApp_DeviceAuthEvt_0
    818            {
    819              // Stop the reset timer so it doesn't reset
    820              ZDApp_ResetTimerCancel();
   \   00000C                ; Setup parameters for call to function ZDApp_ResetTimerCancel
   \   00000C   12....       LCALL   ??ZDApp_ResetTimerCancel?relay
    821          
    822              devState = DEV_END_DEVICE;
   \   00000F   12....       LCALL   ?Subroutine9 & 0xFFFF
    823              osal_set_event( ZDAppTaskID, ZDO_STATE_CHANGE_EVT );
    824          
    825              // Set the Power Manager Device
    826          #if defined ( POWER_SAVING )
    827              osal_pwrmgr_device( PWRMGR_BATTERY );
    828          #endif
    829          
    830              if ( ZSTACK_ROUTER_BUILD )
    831              {
    832                if ( ZDO_Config_Node_Descriptor.LogicalType != NODETYPE_DEVICE )
    833                {
    834                  // NOTE: first two parameters are not used, see NLMEDE.h for details
    835                  NLME_StartRouterRequest( 0, 0, false );
    836                }
    837              }
    838          
    839              // Notify to save info into NV
    840              ZDApp_NVUpdate();
    841          
    842              // Save off the security
    843              ZDApp_SaveNwkKey();
   \                     ??CrossCallReturnLabel_0:
   \   000012                ; Setup parameters for call to function ZDApp_SaveNwkKey
   \   000012   12....       LCALL   ??ZDApp_SaveNwkKey?relay
    844          
    845              ZDApp_AnnounceNewAddress();
   \   000015                ; Setup parameters for call to function ZDApp_AnnounceNewAddress
   \   000015   12....       LCALL   ??ZDApp_AnnounceNewAddress?relay
    846          
    847              if ( (ZDO_Config_Node_Descriptor.CapabilityFlags & CAPINFO_RCVR_ON_IDLE) == 0 )
   \   000018   90....       MOV     DPTR,#ZDO_Config_Node_Descriptor + 2
   \   00001B   E0           MOVX    A,@DPTR
   \   00001C   A2E3         MOV     C,0xE0 /* A   */.3
   \   00001E   4009         JC      ??ZDApp_DeviceAuthEvt_0
    848              {
    849                NLME_SetPollRate( ZDApp_SavedPollRate );
   \   000020                ; Setup parameters for call to function NLME_SetPollRate
   \   000020   90....       MOV     DPTR,#ZDApp_SavedPollRate
   \   000023   12....       LCALL   ?Subroutine24 & 0xFFFF
    850              }
    851            }
   \                     ??CrossCallReturnLabel_28:
   \   000026   12....       LCALL   ??NLME_SetPollRate?relay
    852            else
    853            {
    854              ZDApp_NVUpdate();
    855            }
    856          }
   \                     ??ZDApp_DeviceAuthEvt_0:
   \   000029   02....       LJMP    ?Subroutine2 & 0xFFFF

   \                                 In  segment BANKED_CODE, align 1, keep-with-next
   \                     ?Subroutine9:
   \   000000   90....       MOV     DPTR,#devState
   \   000003   7406         MOV     A,#0x6
   \   000005   F0           MOVX    @DPTR,A
   \   000006                ; Setup parameters for call to function osal_set_event
   \   000006                ; Setup parameters for call to function osal_set_event
   \   000006   7A10         MOV     R2,#0x10
   \   000008   7B00         MOV     R3,#0x0
   \   00000A   90....       MOV     DPTR,#ZDAppTaskID
   \   00000D   E0           MOVX    A,@DPTR
   \   00000E   F9           MOV     R1,A
   \   00000F   12....       LCALL   ??osal_set_event?relay
   \   000012                ; Setup parameters for call to function osal_pwrmgr_device
   \   000012                ; Setup parameters for call to function osal_pwrmgr_device
   \   000012   7901         MOV     R1,#0x1
   \   000014   12....       LCALL   ??osal_pwrmgr_device?relay
   \   000017   22           RET

   \                                 In  segment BANKED_CODE, align 1, keep-with-next
   \                     ?Subroutine24:
   \   000000   E0           MOVX    A,@DPTR
   \   000001   FA           MOV     R2,A
   \   000002   A3           INC     DPTR
   \   000003   E0           MOVX    A,@DPTR
   \   000004   FB           MOV     R3,A
   \   000005   22           RET
    857          
    858          /*********************************************************************
    859           * @fn      ZDApp_SaveNetworkStateEvt()
    860           *
    861           * @brief   Process the Save the Network State Event
    862           *
    863           * @param   none
    864           *
    865           * @return  none
    866           */

   \                                 In  segment BANKED_CODE, align 1, keep-with-next
    867          void ZDApp_SaveNetworkStateEvt( void )
   \                     ZDApp_SaveNetworkStateEvt:
    868          {
   \   000000                ; Saved register size: 0
   \   000000                ; Auto size: 0
    869          #if defined ( NV_RESTORE )
    870           #if defined ( NV_TURN_OFF_RADIO )
    871            // Turn off the radio's receiver during an NV update
    872            uint8 RxOnIdle;
    873            uint8 x = false;
    874            ZMacGetReq( ZMacRxOnIdle, &RxOnIdle );
    875            ZMacSetReq( ZMacRxOnIdle, &x );
    876           #endif
    877          
    878            // Update the Network State in NV
    879            NLME_UpdateNV( NWK_NV_NIB_ENABLE        |
    880                           NWK_NV_DEVICELIST_ENABLE |
    881                           NWK_NV_BINDING_ENABLE    |
    882                           NWK_NV_ADDRMGR_ENABLE );
    883          
    884            // Reset the NV startup option to resume from NV by
    885            // clearing the "New" join option.
    886            zgWriteStartupOptions( FALSE, ZCD_STARTOPT_DEFAULT_NETWORK_STATE );
    887          
    888           #if defined ( NV_TURN_OFF_RADIO )
    889            ZMacSetReq( ZMacRxOnIdle, &RxOnIdle );
    890           #endif
    891          #endif  // NV_RESTORE
    892          }
   \   000000   02....       LJMP    ?BRET
    893          
    894          /*********************************************************************
    895           * @fn      ZDApp_RestoreNetworkState()
    896           *
    897           * @brief   This function will restore the network state of the
    898           *          device if the network state is stored in NV.
    899           *
    900           * @param   none
    901           *
    902           * @return
    903           *    ZDO_INITDEV_RESTORED_NETWORK_STATE  - The device's network state was
    904           *          restored.
    905           *    ZDO_INITDEV_NEW_NETWORK_STATE - The network state was not used.
    906           *          This could mean that zgStartupOption said to not restore, or
    907           *          it could mean that there was no network state to restore.
    908           *
    909           */

   \                                 In  segment BANKED_CODE, align 1, keep-with-next
    910          uint8 ZDApp_RestoreNetworkState( void )
   \                     ZDApp_RestoreNetworkState:
    911          {
   \   000000   74F7         MOV     A,#-0x9
   \   000002   12....       LCALL   ?BANKED_ENTER_XDATA
   \   000005                ; Saved register size: 9
   \   000005                ; Auto size: 0
    912            uint8 nvStat;
    913          
    914            // Initialize NWK NV items
    915            nvStat = NLME_InitNV();
   \   000005                ; Setup parameters for call to function NLME_InitNV
   \   000005   12....       LCALL   ??NLME_InitNV?relay
   \   000008   E9           MOV     A,R1
   \   000009   FE           MOV     R6,A
    916          
    917            if ( nvStat != NV_OPER_FAILED )
   \   00000A   740A         MOV     A,#0xa
   \   00000C   6E           XRL     A,R6
   \   00000D   602D         JZ      ??ZDApp_RestoreNetworkState_0
    918            {
    919              if ( NLME_RestoreFromNV() )
   \   00000F                ; Setup parameters for call to function NLME_RestoreFromNV
   \   00000F   12....       LCALL   ??NLME_RestoreFromNV?relay
   \   000012   E9           MOV     A,R1
   \   000013   6027         JZ      ??ZDApp_RestoreNetworkState_0
    920              {
    921                // Are we a coordinator
    922                ZDAppNwkAddr.addr.shortAddr = NLME_GetShortAddr();
   \   000015                ; Setup parameters for call to function NLME_GetShortAddr
   \   000015   12....       LCALL   ??NLME_GetShortAddr?relay
   \   000018   90....       MOV     DPTR,#ZDAppNwkAddr
   \   00001B   12....       LCALL   ??Subroutine60_0 & 0xFFFF
    923                if ( ZDAppNwkAddr.addr.shortAddr == 0 )
   \                     ??CrossCallReturnLabel_123:
   \   00001E   90....       MOV     DPTR,#ZDAppNwkAddr
   \   000021   12....       LCALL   ?Subroutine16 & 0xFFFF
   \                     ??CrossCallReturnLabel_12:
   \   000024   7007         JNZ     ??ZDApp_RestoreNetworkState_1
    924                  ZDO_Config_Node_Descriptor.LogicalType = NODETYPE_COORDINATOR;
   \   000026   90....       MOV     DPTR,#ZDO_Config_Node_Descriptor
   \   000029   E0           MOVX    A,@DPTR
   \   00002A   54F8         ANL     A,#0xf8
   \   00002C   F0           MOVX    @DPTR,A
    925                devStartMode = MODE_RESUME;
   \                     ??ZDApp_RestoreNetworkState_1:
   \   00002D   90....       MOV     DPTR,#devStartMode
   \   000030   7401         MOV     A,#0x1
   \   000032   12....       LCALL   ?Subroutine11 & 0xFFFF
    926                osal_cpyExtAddr( ZDO_UseExtendedPANID, _NIB.extendedPANID );
    927              }
    928              else
    929                nvStat = NV_ITEM_UNINIT;
    930          
    931              if ( ZG_SECURE_ENABLED )
    932              {
    933                nwkFrameCounterChanges = 0;
    934          
    935                if ( ZG_BUILD_COORDINATOR_TYPE && ZG_DEVICE_COORDINATOR_TYPE )
    936                {
    937                  ZDApp_RestoreNwkKey();
    938                }
    939              }
    940          
    941              // The default for RxOnWhenIdle is true for Routers and false for end devices
    942              // [setup in the NLME_RestoreFromNV()].  Change it here if you want something
    943              // other than default.
    944            }
    945          
    946            if ( nvStat == ZSUCCESS )
   \                     ??CrossCallReturnLabel_4:
   \   000035   EE           MOV     A,R6
   \   000036   7004         JNZ     ??ZDApp_RestoreNetworkState_0
    947              return ( ZDO_INITDEV_RESTORED_NETWORK_STATE );
   \   000038   7900         MOV     R1,#0x0
   \   00003A   8002         SJMP    ??ZDApp_RestoreNetworkState_2
    948            else
    949              return ( ZDO_INITDEV_NEW_NETWORK_STATE );
   \                     ??ZDApp_RestoreNetworkState_0:
   \   00003C   7901         MOV     R1,#0x1
   \                     ??ZDApp_RestoreNetworkState_2:
   \   00003E   02....       LJMP    ??Subroutine49_0 & 0xFFFF
    950          }

   \                                 In  segment BANKED_CODE, align 1, keep-with-next
   \                     ?Subroutine11:
   \   000000   F0           MOVX    @DPTR,A
   \   000001                ; Setup parameters for call to function sAddrExtCpy
   \   000001                ; Setup parameters for call to function sAddrExtCpy
   \   000001   7C..         MOV     R4,#(_NIB + 53) & 0xff
   \   000003   7D..         MOV     R5,#((_NIB + 53) >> 8) & 0xff
   \   000005   7A..         MOV     R2,#ZDO_UseExtendedPANID & 0xff
   \   000007   7B..         MOV     R3,#(ZDO_UseExtendedPANID >> 8) & 0xff
   \   000009   12....       LCALL   ??sAddrExtCpy?relay
   \   00000C   22           RET

   \                                 In  segment BANKED_CODE, align 1, keep-with-next
   \                     ?Subroutine16:
   \   000000   E0           MOVX    A,@DPTR
   \   000001   F8           MOV     R0,A
   \   000002   A3           INC     DPTR
   \   000003   E0           MOVX    A,@DPTR
   \   000004   F9           MOV     R1,A
   \   000005   E8           MOV     A,R0
   \   000006   49           ORL     A,R1
   \   000007   22           RET
    951          
    952          /*********************************************************************
    953           * @fn      ZDApp_InitUserDesc()
    954           *
    955           * @brief   Initialize the User Descriptor, the descriptor is read from NV
    956           *          when needed.  If you want to initialize the User descriptor to
    957           *          something other than all zero, do it here.
    958           *
    959           * @param   none
    960           *
    961           * @return  none
    962           */

   \                                 In  segment BANKED_CODE, align 1, keep-with-next
    963          void ZDApp_InitUserDesc( void )
   \                     ZDApp_InitUserDesc:
    964          {
   \   000000   74F6         MOV     A,#-0xa
   \   000002   12....       LCALL   ?BANKED_ENTER_XDATA
   \   000005                ; Saved register size: 10
   \   000005                ; Auto size: 17
   \   000005   74EF         MOV     A,#-0x11
   \   000007   12....       LCALL   ?ALLOC_XSTACK8
    965            UserDescriptorFormat_t ZDO_DefaultUserDescriptor;
    966          
    967            // Initialize the User Descriptor, the descriptor is read from NV
    968            // when needed.  If you want to initialize the User descriptor to something
    969            // other than all zero, do it here.
    970            osal_memset( &ZDO_DefaultUserDescriptor, 0, sizeof( UserDescriptorFormat_t ) );
   \   00000A                ; Setup parameters for call to function osal_memset
   \   00000A   7C11         MOV     R4,#0x11
   \   00000C   12....       LCALL   ?Subroutine33 & 0xFFFF
    971            if ( ZSUCCESS == osal_nv_item_init( ZCD_NV_USERDESC,
    972                   sizeof(UserDescriptorFormat_t), (void*)&ZDO_DefaultUserDescriptor ) )
   \                     ??CrossCallReturnLabel_45:
   \   00000F   12....       LCALL   ?PUSH_XSTACK_I_TWO
   \   000012   7C11         MOV     R4,#0x11
   \   000014   7D00         MOV     R5,#0x0
   \   000016   7A81         MOV     R2,#-0x7f
   \   000018   7B00         MOV     R3,#0x0
   \   00001A   12....       LCALL   ??osal_nv_item_init?relay
   \   00001D   7402         MOV     A,#0x2
   \   00001F   12....       LCALL   ?DEALLOC_XSTACK8
   \   000022   E9           MOV     A,R1
   \   000023   702F         JNZ     ??ZDApp_InitUserDesc_0
    973            {
    974              if ( ZSUCCESS == osal_nv_read( ZCD_NV_USERDESC, 0,
    975                   sizeof(UserDescriptorFormat_t), (void*)&ZDO_DefaultUserDescriptor ) )
   \   000025                ; Setup parameters for call to function osal_nv_read
   \   000025   78..         MOV     R0,#?V0 + 0
   \   000027   12....       LCALL   ?PUSH_XSTACK_I_TWO
   \   00002A   75..11       MOV     ?V0 + 0,#0x11
   \   00002D   75..00       MOV     ?V0 + 1,#0x0
   \   000030   78..         MOV     R0,#?V0 + 0
   \   000032   12....       LCALL   ?PUSH_XSTACK_I_TWO
   \   000035   7C00         MOV     R4,#0x0
   \   000037   7D00         MOV     R5,#0x0
   \   000039   7A81         MOV     R2,#-0x7f
   \   00003B   12....       LCALL   ?Subroutine35 & 0xFFFF
   \                     ??CrossCallReturnLabel_47:
   \   00003E   12....       LCALL   ?DEALLOC_XSTACK8
   \   000041   E9           MOV     A,R1
   \   000042   7010         JNZ     ??ZDApp_InitUserDesc_0
    976              {
    977                if ( ZDO_DefaultUserDescriptor.len != 0 )
   \   000044   85..82       MOV     DPL,?XSP + 0
   \   000047   85..83       MOV     DPH,?XSP + 1
   \   00004A   E0           MOVX    A,@DPTR
   \   00004B   6007         JZ      ??ZDApp_InitUserDesc_0
    978                {
    979                  ZDO_Config_Node_Descriptor.UserDescAvail = TRUE;
   \   00004D   90....       MOV     DPTR,#ZDO_Config_Node_Descriptor
   \   000050   E0           MOVX    A,@DPTR
   \   000051   D2E4         SETB    0xE0 /* A   */.4
   \   000053   F0           MOVX    @DPTR,A
    980                }
    981              }
    982            }
    983          }
   \                     ??ZDApp_InitUserDesc_0:
   \   000054   7411         MOV     A,#0x11
   \   000056   02....       LJMP    ??Subroutine50_0 & 0xFFFF

   \                                 In  segment BANKED_CODE, align 1, keep-with-next
   \                     ?Subroutine33:
   \   000000   7D00         MOV     R5,#0x0
   \   000002   7900         MOV     R1,#0x0
   \   000004   85..82       MOV     DPL,?XSP + 0
   \   000007   85..83       MOV     DPH,?XSP + 1
   \   00000A   AA82         MOV     R2,DPL
   \   00000C   AB83         MOV     R3,DPH
   \   00000E   12....       LCALL   ??osal_memset?relay
   \   000011                ; Setup parameters for call to function osal_nv_item_init
   \   000011                ; Setup parameters for call to function osal_nv_write
   \   000011   85..82       MOV     DPL,?XSP + 0
   \   000014   85..83       MOV     DPH,?XSP + 1
   \   000017   8582..       MOV     ?V0 + 0,DPL
   \   00001A   8583..       MOV     ?V0 + 1,DPH
   \   00001D   78..         MOV     R0,#?V0 + 0
   \   00001F   22           RET

   \                                 In  segment BANKED_CODE, align 1, keep-with-next
   \                     ?Subroutine35:
   \   000000   7B00         MOV     R3,#0x0
   \   000002   12....       LCALL   ??osal_nv_read?relay
   \   000005   7404         MOV     A,#0x4
   \   000007   22           RET
    984          
    985          /*********************************************************************
    986           * @fn      ZDAppCheckForHoldKey()
    987           *
    988           * @brief   Check for key to set the device into Hold Auto Start
    989           *
    990           * @param   none
    991           *
    992           * @return  none
    993           */

   \                                 In  segment BANKED_CODE, align 1, keep-with-next
    994          void ZDAppCheckForHoldKey( void )
   \                     ZDAppCheckForHoldKey:
    995          {
   \   000000   C082         PUSH    DPL
   \   000002   C083         PUSH    DPH
   \   000004                ; Saved register size: 2
   \   000004                ; Auto size: 0
    996          #if (defined HAL_KEY) && (HAL_KEY == TRUE)
    997            // Get Keypad directly to see if a HOLD_START is needed.
    998            // Hold down the SW_BYPASS_START key (see OnBoard.h)
    999            // while booting to avoid starting up the device.
   1000            if ( HalKeyRead () == SW_BYPASS_START)
   \   000004                ; Setup parameters for call to function HalKeyRead
   \   000004   12....       LCALL   ??HalKeyRead?relay
   \   000007   E9           MOV     A,R1
   \   000008   6401         XRL     A,#0x1
   \   00000A   7005         JNZ     ??ZDAppCheckForHoldKey_0
   1001            {
   1002              // Change the device state to HOLD on start up
   1003              devState = DEV_HOLD;
   \   00000C   90....       MOV     DPTR,#devState
   \   00000F   E4           CLR     A
   \   000010   F0           MOVX    @DPTR,A
   1004            }
   1005          #endif // HAL_KEY
   1006          }
   \                     ??ZDAppCheckForHoldKey_0:
   \   000011   02....       LJMP    ?Subroutine2 & 0xFFFF
   1007          
   1008          /*********************************************************************
   1009           * @fn      ZDApp_ProcessOSALMsg()
   1010           *
   1011           * @brief   Process the incoming task message.
   1012           *
   1013           * @param   msgPtr - message to process
   1014           *
   1015           * @return  none
   1016           */

   \                                 In  segment BANKED_CODE, align 1, keep-with-next
   1017          void ZDApp_ProcessOSALMsg( osal_event_hdr_t *msgPtr )
   \                     ZDApp_ProcessOSALMsg:
   1018          {
   \   000000   74F4         MOV     A,#-0xc
   \   000002   12....       LCALL   ?BANKED_ENTER_XDATA
   \   000005                ; Saved register size: 12
   \   000005                ; Auto size: 1
   \   000005   74FF         MOV     A,#-0x1
   \   000007   12....       LCALL   ?ALLOC_XSTACK8
   1019            // Data Confirmation message fields
   1020            uint8 sentEP;       // This should always be 0
   1021            uint8 sentStatus;
   1022            afDataConfirm_t *afDataConfirm;
   1023            uint8 tmp,i;
                             ^
Warning[Pe177]: variable "i" was declared but never referenced
   1024          
   1025            switch ( msgPtr->event )
   \   00000A   8A82         MOV     DPL,R2
   \   00000C   8B83         MOV     DPH,R3
   \   00000E   E0           MOVX    A,@DPTR
   \   00000F   14           DEC     A
   \   000010   6023         JZ      ??ZDApp_ProcessOSALMsg_0
   \   000012   14           DEC     A
   \   000013   7003         JNZ     $+5
   \   000015   02....       LJMP    ??ZDApp_ProcessOSALMsg_1 & 0xFFFF
   \   000018   14           DEC     A
   \   000019   7003         JNZ     $+5
   \   00001B   02....       LJMP    ??ZDApp_ProcessOSALMsg_2 & 0xFFFF
   \   00001E   24E9         ADD     A,#-0x17
   \   000020   6007         JZ      ??ZDApp_ProcessOSALMsg_3
   \   000022   2447         ADD     A,#0x47
   \   000024   6009         JZ      ??ZDApp_ProcessOSALMsg_4
   \   000026   02....       LJMP    ??ZDApp_ProcessOSALMsg_5 & 0xFFFF
   1026            {
   1027              // Incoming ZDO Message
   1028              case AF_INCOMING_MSG_CMD:
   1029                ZDP_IncomingData( (afIncomingMSGPacket_t *)msgPtr );
   \                     ??ZDApp_ProcessOSALMsg_3:
   \   000029                ; Setup parameters for call to function ZDP_IncomingData
   \   000029   12....       LCALL   ??ZDP_IncomingData?relay
   1030                break;
   \   00002C   02....       LJMP    ??ZDApp_ProcessOSALMsg_5 & 0xFFFF
   1031          
   1032              case ZDO_CB_MSG:
   1033                ZDApp_ProcessMsgCBs( (zdoIncomingMsg_t *)msgPtr );
   \                     ??ZDApp_ProcessOSALMsg_4:
   \   00002F                ; Setup parameters for call to function ZDApp_ProcessMsgCBs
   \   00002F   12....       LCALL   ??ZDApp_ProcessMsgCBs?relay
   1034                break;
   \   000032   02....       LJMP    ??ZDApp_ProcessOSALMsg_5 & 0xFFFF
   1035          
   1036              case AF_DATA_CONFIRM_CMD:
   1037                // This message is received as a confirmation of a data packet sent.
   1038                // The status is of ZStatus_t type [defined in NLMEDE.h]
   1039                // The message fields are defined in AF.h
   1040                afDataConfirm = (afDataConfirm_t *)msgPtr;
   1041                sentEP = afDataConfirm->endpoint;
   1042                sentStatus = afDataConfirm->hdr.status;
   1043          
   1044                // Action taken when confirmation is received.
   1045          #if defined ( ZIGBEE_FREQ_AGILITY )
   1046                if ( pZDNwkMgr_ProcessDataConfirm )
   1047                  pZDNwkMgr_ProcessDataConfirm( afDataConfirm );
   1048          #endif
   1049                (void)sentEP;
   1050                (void)sentStatus;
   1051                break;
   1052          
   1053          //*******************触发DISC事件*********************************************//
   1054              case ZDO_NWK_DISC_CNF:
   1055                if (devState != DEV_NWK_DISC)
   \                     ??ZDApp_ProcessOSALMsg_0:
   \   000035   90....       MOV     DPTR,#devState
   \   000038   E0           MOVX    A,@DPTR
   \   000039   6402         XRL     A,#0x2
   \   00003B   6003         JZ      $+5
   \   00003D   02....       LJMP    ??ZDApp_ProcessOSALMsg_5 & 0xFFFF
   1056                  break;
   1057          
   1058                if ( ZG_BUILD_JOINING_TYPE && ZG_DEVICE_JOINING_TYPE )
   \   000040   90....       MOV     DPTR,#zgDeviceLogicalType
   \   000043   E0           MOVX    A,@DPTR
   \   000044   6401         XRL     A,#0x1
   \   000046   6008         JZ      ??ZDApp_ProcessOSALMsg_6
   \   000048   E0           MOVX    A,@DPTR
   \   000049   6402         XRL     A,#0x2
   \   00004B   6003         JZ      $+5
   \   00004D   02....       LJMP    ??ZDApp_ProcessOSALMsg_5 & 0xFFFF
   1059                {
   1060                  // Process the network discovery scan results and choose a parent
   1061                  // device to join/rejoin itself
   1062                  networkDesc_t *pChosenNwk;
   1063                  if ( ( (pChosenNwk = ZDApp_NwkDescListProcessing()) != NULL ) && (zdoDiscCounter > NUM_DISC_ATTEMPTS) )
   \                     ??ZDApp_ProcessOSALMsg_6:
   \   000050                ; Setup parameters for call to function ZDApp_NwkDescListProcessing
   \   000050   12....       LCALL   ??ZDApp_NwkDescListProcessing?relay
   \   000053   8A..         MOV     ?V0 + 0,R2
   \   000055   8B..         MOV     ?V0 + 1,R3
   \   000057   A8..         MOV     R0,?V0 + 0
   \   000059   A9..         MOV     R1,?V0 + 1
   \   00005B   E8           MOV     A,R0
   \   00005C   FE           MOV     R6,A
   \   00005D   E9           MOV     A,R1
   \   00005E   FF           MOV     R7,A
   \   00005F   E8           MOV     A,R0
   \   000060   49           ORL     A,R1
   \   000061   7003         JNZ     $+5
   \   000063   02....       LJMP    ??ZDApp_ProcessOSALMsg_7 & 0xFFFF
   \   000066   90....       MOV     DPTR,#zdoDiscCounter
   \   000069   E0           MOVX    A,@DPTR
   \   00006A   C3           CLR     C
   \   00006B   9403         SUBB    A,#0x3
   \   00006D   5003         JNC     $+5
   \   00006F   02....       LJMP    ??ZDApp_ProcessOSALMsg_7 & 0xFFFF
   1064                  {
   1065                    if ( devStartMode == MODE_JOIN )
   \   000072   90....       MOV     DPTR,#devStartMode
   \   000075   E0           MOVX    A,@DPTR
   \   000076   7059         JNZ     ??ZDApp_ProcessOSALMsg_8
   1066                    {
   1067                      devState = DEV_NWK_JOINING;
   \   000078   90....       MOV     DPTR,#devState
   \   00007B   7403         MOV     A,#0x3
   \   00007D   12....       LCALL   ?Subroutine12 & 0xFFFF
   1068          
   1069                      ZDApp_NodeProfileSync( pChosenNwk->stackProfile);
   \                     ??CrossCallReturnLabel_6:
   \   000080   E0           MOVX    A,@DPTR
   \   000081   F9           MOV     R1,A
   \   000082   12....       LCALL   ??ZDApp_NodeProfileSync?relay
   1070          
   1071                      if ( NLME_JoinRequest( pChosenNwk->extendedPANID, pChosenNwk->panId,
   1072                                            pChosenNwk->logicalChannel,
   1073                                            ZDO_Config_Node_Descriptor.CapabilityFlags,
   1074                                            pChosenNwk->chosenRouter, pChosenNwk->chosenRouterDepth ) != ZSuccess )
   \   000085                ; Setup parameters for call to function NLME_JoinRequest
   \   000085   8E82         MOV     DPL,R6
   \   000087   8F83         MOV     DPH,R7
   \   000089   A3           INC     DPTR
   \   00008A   A3           INC     DPTR
   \   00008B   A3           INC     DPTR
   \   00008C   A3           INC     DPTR
   \   00008D   A3           INC     DPTR
   \   00008E   A3           INC     DPTR
   \   00008F   A3           INC     DPTR
   \   000090   A3           INC     DPTR
   \   000091   A3           INC     DPTR
   \   000092   A3           INC     DPTR
   \   000093   E0           MOVX    A,@DPTR
   \   000094   F5..         MOV     ?V0 + 0,A
   \   000096   78..         MOV     R0,#?V0 + 0
   \   000098   12....       LCALL   ?PUSH_XSTACK_I_ONE
   \   00009B   8E82         MOV     DPL,R6
   \   00009D   8F83         MOV     DPH,R7
   \   00009F   A3           INC     DPTR
   \   0000A0   A3           INC     DPTR
   \   0000A1   A3           INC     DPTR
   \   0000A2   A3           INC     DPTR
   \   0000A3   A3           INC     DPTR
   \   0000A4   A3           INC     DPTR
   \   0000A5   A3           INC     DPTR
   \   0000A6   12....       LCALL   ?PUSH_XSTACK8_X_TWO
   \   0000A9   90....       MOV     DPTR,#ZDO_Config_Node_Descriptor + 2
   \   0000AC   E0           MOVX    A,@DPTR
   \   0000AD   F5..         MOV     ?V0 + 0,A
   \   0000AF   78..         MOV     R0,#?V0 + 0
   \   0000B1   12....       LCALL   ?PUSH_XSTACK_I_ONE
   \   0000B4   8E82         MOV     DPL,R6
   \   0000B6   8F83         MOV     DPH,R7
   \   0000B8   A3           INC     DPTR
   \   0000B9   A3           INC     DPTR
   \   0000BA   E0           MOVX    A,@DPTR
   \   0000BB   F9           MOV     R1,A
   \   0000BC   8E82         MOV     DPL,R6
   \   0000BE   8F83         MOV     DPH,R7
   \   0000C0   E0           MOVX    A,@DPTR
   \   0000C1   FC           MOV     R4,A
   \   0000C2   A3           INC     DPTR
   \   0000C3   E0           MOVX    A,@DPTR
   \   0000C4   12....       LCALL   ?Subroutine34 & 0xFFFF
   1075                      {
   1076                        ZDApp_NetworkInit( (uint16)(NWK_START_DELAY
   1077                                                    + ((uint16)(osal_rand()& EXTENDED_JOINING_RANDOM_MASK))) );
   1078                      }
   1079                    } // if ( devStartMode == MODE_JOIN )
   \                     ??CrossCallReturnLabel_72:
   \   0000C7   12....       LCALL   ??NLME_JoinRequest?relay
   \   0000CA   7404         MOV     A,#0x4
   \   0000CC   12....       LCALL   ?DEALLOC_XSTACK8
   \   0000CF   806B         SJMP    ??ZDApp_ProcessOSALMsg_9
   1080                    else if ( devStartMode == MODE_REJOIN )
   \                     ??ZDApp_ProcessOSALMsg_8:
   \   0000D1   6403         XRL     A,#0x3
   \   0000D3   706D         JNZ     ??CrossCallReturnLabel_37
   1081                    {
   1082                      devState = DEV_NWK_REJOIN;
   \   0000D5   90....       MOV     DPTR,#devState
   \   0000D8   7404         MOV     A,#0x4
   \   0000DA   F0           MOVX    @DPTR,A
   1083          
   1084                      // Before trying to do rejoin, check if the device has a valid short address
   1085                      // If not, generate a random short address for itself
   1086                      if ( _NIB.nwkDevAddress == INVALID_NODE_ADDR )
   \   0000DB   90....       MOV     DPTR,#_NIB + 20
   \   0000DE   E0           MOVX    A,@DPTR
   \   0000DF   64FE         XRL     A,#0xfe
   \   0000E1   7003         JNZ     ??ZDApp_ProcessOSALMsg_10
   \   0000E3   A3           INC     DPTR
   \   0000E4   E0           MOVX    A,@DPTR
   \   0000E5   F4           CPL     A
   \                     ??ZDApp_ProcessOSALMsg_10:
   \   0000E6   7012         JNZ     ??ZDApp_ProcessOSALMsg_11
   1087                      {
   1088                        _NIB.nwkDevAddress = osal_rand();
   \   0000E8                ; Setup parameters for call to function osal_rand
   \   0000E8   12....       LCALL   ??osal_rand?relay
   \   0000EB   90....       MOV     DPTR,#_NIB + 20
   \   0000EE   12....       LCALL   ??Subroutine60_0 & 0xFFFF
   1089                        ZMacSetReq( ZMacShortAddress, (byte*)&_NIB.nwkDevAddress );
   \                     ??CrossCallReturnLabel_124:
   \   0000F1                ; Setup parameters for call to function ZMacSetReq
   \   0000F1   7A..         MOV     R2,#(_NIB + 20) & 0xff
   \   0000F3   7B..         MOV     R3,#((_NIB + 20) >> 8) & 0xff
   \   0000F5   7953         MOV     R1,#0x53
   \   0000F7   12....       LCALL   ??ZMacSetReq?relay
   1090                      }
   1091          
   1092                      if ( ZG_SECURE_ENABLED )
   1093                      {
   1094                        ZDApp_RestoreNwkKey();
   1095                      }
   1096          
   1097                      // Check if the device has a valid PanID, if not, set it to the discovered Pan
   1098                      if ( _NIB.nwkPanId == INVALID_PAN_ID )
   \                     ??ZDApp_ProcessOSALMsg_11:
   \   0000FA   90....       MOV     DPTR,#_NIB + 33
   \   0000FD   E0           MOVX    A,@DPTR
   \   0000FE   64FE         XRL     A,#0xfe
   \   000100   7003         JNZ     ??ZDApp_ProcessOSALMsg_12
   \   000102   A3           INC     DPTR
   \   000103   E0           MOVX    A,@DPTR
   \   000104   F4           CPL     A
   \                     ??ZDApp_ProcessOSALMsg_12:
   \   000105   7014         JNZ     ??ZDApp_ProcessOSALMsg_13
   1099                      {
   1100                        _NIB.nwkPanId = pChosenNwk->panId;
   \   000107   12....       LCALL   ?Subroutine19 & 0xFFFF
   \                     ??CrossCallReturnLabel_78:
   \   00010A   90....       MOV     DPTR,#_NIB + 33
   \   00010D   E8           MOV     A,R0
   \   00010E   F0           MOVX    @DPTR,A
   \   00010F   A3           INC     DPTR
   \   000110   E9           MOV     A,R1
   \   000111   F0           MOVX    @DPTR,A
   1101                        ZMacSetReq( ZMacPanId, (byte*)&(_NIB.nwkPanId) );
   \   000112                ; Setup parameters for call to function ZMacSetReq
   \   000112   7A..         MOV     R2,#(_NIB + 33) & 0xff
   \   000114   7B..         MOV     R3,#((_NIB + 33) >> 8) & 0xff
   \   000116   7950         MOV     R1,#0x50
   \   000118   12....       LCALL   ??ZMacSetReq?relay
   1102                      }
   1103          
   1104                      tmp = true;
   \                     ??ZDApp_ProcessOSALMsg_13:
   \   00011B   85..82       MOV     DPL,?XSP + 0
   \   00011E   85..83       MOV     DPH,?XSP + 1
   \   000121   7401         MOV     A,#0x1
   \   000123   F0           MOVX    @DPTR,A
   1105                      ZMacSetReq( ZMacRxOnIdle, &tmp ); // Set receiver always on during rejoin
   \   000124                ; Setup parameters for call to function ZMacSetReq
   \   000124   AA82         MOV     R2,DPL
   \   000126   AB83         MOV     R3,DPH
   \   000128   7952         MOV     R1,#0x52
   \   00012A   12....       LCALL   ??ZMacSetReq?relay
   1106                      if ( NLME_ReJoinRequest( ZDO_UseExtendedPANID, pChosenNwk->logicalChannel) != ZSuccess )
   \   00012D                ; Setup parameters for call to function NLME_ReJoinRequest
   \   00012D   8E82         MOV     DPL,R6
   \   00012F   8F83         MOV     DPH,R7
   \   000131   A3           INC     DPTR
   \   000132   A3           INC     DPTR
   \   000133   E0           MOVX    A,@DPTR
   \   000134   F9           MOV     R1,A
   \   000135   7A..         MOV     R2,#ZDO_UseExtendedPANID & 0xff
   \   000137   7B..         MOV     R3,#(ZDO_UseExtendedPANID >> 8) & 0xff
   \   000139   12....       LCALL   ??NLME_ReJoinRequest?relay
   \                     ??ZDApp_ProcessOSALMsg_9:
   \   00013C   E9           MOV     A,R1
   \   00013D   6003         JZ      ??CrossCallReturnLabel_37
   1107                      {
   1108                        ZDApp_NetworkInit( (uint16)(NWK_START_DELAY
   1109                                                    + ((uint16)(osal_rand()& EXTENDED_JOINING_RANDOM_MASK))) );
   \   00013F                ; Setup parameters for call to function ZDApp_NetworkInit
   \   00013F                ; Setup parameters for call to function osal_rand
   \   00013F   12....       LCALL   ?Subroutine28 & 0xFFFF
   1110                      }
   1111                    } // else if ( devStartMode == MODE_REJOIN )
   1112          
   1113                    if ( ZDO_Config_Node_Descriptor.CapabilityFlags & CAPINFO_RCVR_ON_IDLE )
   \                     ??CrossCallReturnLabel_37:
   \   000142   90....       MOV     DPTR,#ZDO_Config_Node_Descriptor + 2
   \   000145   E0           MOVX    A,@DPTR
   \   000146   A2E3         MOV     C,0xE0 /* A   */.3
   \   000148   4003         JC      $+5
   \   00014A   02....       LJMP    ??ZDApp_ProcessOSALMsg_5 & 0xFFFF
   1114                    {
   1115                      // The receiver is on, turn network layer polling off.
   1116                      NLME_SetPollRate( 0 );
   \   00014D                ; Setup parameters for call to function NLME_SetPollRate
   \   00014D   12....       LCALL   ?Subroutine27 & 0xFFFF
   1117                      NLME_SetQueuedPollRate( 0 );
   1118                      NLME_SetResponseRate( 0 );
   1119                    }
   1120                    else
   1121                    {
   1122                      if ( (ZG_SECURE_ENABLED) && (devStartMode == MODE_JOIN) )
   1123                      {
   1124                        ZDApp_SavedPollRate = zgPollRate;
   1125                        NLME_SetPollRate( zgRejoinPollRate );
   1126                      }
   1127                    }
   1128                  }
   \                     ??CrossCallReturnLabel_34:
   \   000150   02....       LJMP    ??ZDApp_ProcessOSALMsg_5 & 0xFFFF
   1129          //************************如果不成功******************************************//
   1130                  else
   1131                  {
   1132                    if ( continueJoining )
   \                     ??ZDApp_ProcessOSALMsg_7:
   \   000153   90....       MOV     DPTR,#continueJoining
   \   000156   E0           MOVX    A,@DPTR
   \   000157   7003         JNZ     $+5
   \   000159   02....       LJMP    ??ZDApp_ProcessOSALMsg_5 & 0xFFFF
   1133                    {
   1134              #if defined ( MANAGED_SCAN )
   1135                      ZDApp_NetworkInit( MANAGEDSCAN_DELAY_BETWEEN_SCANS );
   1136              #else
   1137          //********睡眠然后重连********************************************************//
   1138          //* 失败后进入睡眠
   1139          //* 初始睡眠时间为5S，之后每次翻倍，当睡眠时间大于一个小时，则设置睡眠时间为一个小时
   1140                      zdoDiscCounter++;
   \   00015C   90....       MOV     DPTR,#zdoDiscCounter
   \   00015F   E0           MOVX    A,@DPTR
   \   000160   04           INC     A
   \   000161   F0           MOVX    @DPTR,A
   1141          
   1142                      P1DIR |= 0X03;                 
   \   000162   43FE03       ORL     0xfe,#0x3
   1143                      SWLED = 0;                     //LED关闭
   \   000165   C291         CLR     0x90.1
   1144          			   
   1145                      NLME_SetPollRate(0);         
   \   000167                ; Setup parameters for call to function NLME_SetPollRate
   \   000167   12....       LCALL   ?Subroutine27 & 0xFFFF
   1146                      NLME_SetQueuedPollRate(0);
   1147                      NLME_SetResponseRate(0);
   1148          			  
   1149          			// 设置睡眠所用参数
   1150          			sleepMode = START_SLEEP;
   \                     ??CrossCallReturnLabel_35:
   \   00016A   90....       MOV     DPTR,#sleepMode
   \   00016D   7401         MOV     A,#0x1
   \   00016F   F0           MOVX    @DPTR,A
   1151          			CountF = 1;
   \   000170   90....       MOV     DPTR,#CountF
   \   000173   F0           MOVX    @DPTR,A
   1152          			// 初始睡眠时间为5S，之后每次翻倍，当睡眠时间大于一个小时，则设置睡眠时间为一个小时
   1153          			startSleepTime *= 2;  
   \   000174   90....       MOV     DPTR,#startSleepTime
   \   000177   78..         MOV     R0,#?V0 + 0
   \   000179   12....       LCALL   ?L_MOV_X
   \   00017C   7401         MOV     A,#0x1
   \   00017E   78..         MOV     R0,#?V0 + 0
   \   000180   12....       LCALL   ?L_SHL
   \   000183   90....       MOV     DPTR,#startSleepTime
   \   000186   78..         MOV     R0,#?V0 + 0
   \   000188   12....       LCALL   ?L_MOV_TO_X
   1154          			if(startSleepTime > 3600000) {
   \   00018B   90....       MOV     DPTR,#startSleepTime
   \   00018E   C082         PUSH    DPL
   \   000190   90....       MOV     DPTR,#__Constant_36ee81
   \   000193   78..         MOV     R0,#?V0 + 0
   \   000195   12....       LCALL   ?L_MOV_X
   \   000198   7583..       MOV     DPH,#(startSleepTime >> 8) & 0xff
   \   00019B   D082         POP     DPL
   \   00019D   78..         MOV     R0,#?V0 + 0
   \   00019F   12....       LCALL   ?UL_GT_X
   \   0001A2   400C         JC      ??ZDApp_ProcessOSALMsg_14
   1155          				startSleepTime = 3600000;
   \   0001A4   90....       MOV     DPTR,#__Constant_36ee80
   \   0001A7   12....       LCALL   ?XLOAD_R2345
   \   0001AA   90....       MOV     DPTR,#startSleepTime
   \   0001AD   12....       LCALL   ?XSTORE_R2345
   1156          			}
   1157          			halSleep(1000);		// 睡眠函数，参数无意义
   \                     ??ZDApp_ProcessOSALMsg_14:
   \   0001B0                ; Setup parameters for call to function halSleep
   1158          			while(CountF == 0) {
   1159          				halSleep(1000);
   \   0001B0                ; Setup parameters for call to function halSleep
   \   0001B0   7AE8         MOV     R2,#-0x18
   \   0001B2   7B03         MOV     R3,#0x3
   \   0001B4   12....       LCALL   ??halSleep?relay
   1160          			}
   \   0001B7   90....       MOV     DPTR,#CountF
   \   0001BA   E0           MOVX    A,@DPTR
   \   0001BB   60F3         JZ      ??ZDApp_ProcessOSALMsg_14
   1161                      sleepMode = FREE_SLEEP;
   \   0001BD   90....       MOV     DPTR,#sleepMode
   \   0001C0   E4           CLR     A
   \   0001C1   F0           MOVX    @DPTR,A
   1162          			
   1163                      NLME_SetPollRate(1000);
   \   0001C2                ; Setup parameters for call to function NLME_SetPollRate
   \   0001C2   7AE8         MOV     R2,#-0x18
   \   0001C4   7B03         MOV     R3,#0x3
   \   0001C6   12....       LCALL   ??NLME_SetPollRate?relay
   1164                      NLME_SetQueuedPollRate(100);
   \   0001C9                ; Setup parameters for call to function NLME_SetQueuedPollRate
   \   0001C9   7A64         MOV     R2,#0x64
   \   0001CB   7B00         MOV     R3,#0x0
   \   0001CD   12....       LCALL   ??NLME_SetQueuedPollRate?relay
   1165                      NLME_SetResponseRate(100);
   \   0001D0                ; Setup parameters for call to function NLME_SetResponseRate
   \   0001D0   7A64         MOV     R2,#0x64
   \   0001D2   7B00         MOV     R3,#0x0
   \   0001D4   12....       LCALL   ??NLME_SetResponseRate?relay
   1166                      
   1167          			SWLED = 1;                     //LED开启
   \   0001D7   D291         SETB    0x90.1
   1168                      ZDApp_NetworkInit( (uint16)(BEACON_REQUEST_DELAY
   1169                            + ((uint16)(osal_rand()& BEACON_REQ_DELAY_MASK))) );
   \   0001D9                ; Setup parameters for call to function ZDApp_NetworkInit
   \   0001D9                ; Setup parameters for call to function osal_rand
   \   0001D9   12....       LCALL   ??osal_rand?relay
   \   0001DC   EA           MOV     A,R2
   \   0001DD   24F4         ADD     A,#-0xc
   \   0001DF   FA           MOV     R2,A
   \   0001E0   E4           CLR     A
   \   0001E1   3401         ADDC    A,#0x1
   \   0001E3   FB           MOV     R3,A
   \   0001E4   8039         SJMP    ??ZDApp_ProcessOSALMsg_15
   1170              #endif
   1171                    }
   1172                  }
   1173                }
   1174                break;
   1175          
   1176              case ZDO_NWK_JOIN_IND:
   1177                if ( ZG_BUILD_JOINING_TYPE && ZG_DEVICE_JOINING_TYPE )
   \                     ??ZDApp_ProcessOSALMsg_1:
   \   0001E6   90....       MOV     DPTR,#zgDeviceLogicalType
   \   0001E9   E0           MOVX    A,@DPTR
   \   0001EA   6401         XRL     A,#0x1
   \   0001EC   6005         JZ      ??ZDApp_ProcessOSALMsg_16
   \   0001EE   E0           MOVX    A,@DPTR
   \   0001EF   6402         XRL     A,#0x2
   \   0001F1   702F         JNZ     ??ZDApp_ProcessOSALMsg_5
   1178                {
   1179                  ZDApp_ProcessNetworkJoin();
   \                     ??ZDApp_ProcessOSALMsg_16:
   \   0001F3                ; Setup parameters for call to function ZDApp_ProcessNetworkJoin
   \   0001F3   12....       LCALL   ??ZDApp_ProcessNetworkJoin?relay
   \   0001F6   802A         SJMP    ??ZDApp_ProcessOSALMsg_5
   1180                }
   1181                break;
   1182          
   1183              case ZDO_NWK_JOIN_REQ:
   1184                if ( ZG_BUILD_JOINING_TYPE && ZG_DEVICE_JOINING_TYPE )
   \                     ??ZDApp_ProcessOSALMsg_2:
   \   0001F8   90....       MOV     DPTR,#zgDeviceLogicalType
   \   0001FB   E0           MOVX    A,@DPTR
   \   0001FC   6401         XRL     A,#0x1
   \   0001FE   6005         JZ      ??ZDApp_ProcessOSALMsg_17
   \   000200   E0           MOVX    A,@DPTR
   \   000201   6402         XRL     A,#0x2
   \   000203   701D         JNZ     ??ZDApp_ProcessOSALMsg_5
   1185                {
   1186                  retryCnt = 0;
   \                     ??ZDApp_ProcessOSALMsg_17:
   \   000205   90....       MOV     DPTR,#retryCnt
   \   000208   E4           CLR     A
   \   000209   F0           MOVX    @DPTR,A
   1187                  devStartMode = MODE_RESUME;
   \   00020A   90....       MOV     DPTR,#devStartMode
   \   00020D   04           INC     A
   \   00020E   F0           MOVX    @DPTR,A
   1188                  _tmpRejoinState = true;
   \   00020F   90....       MOV     DPTR,#_tmpRejoinState
   \   000212   12....       LCALL   ?Subroutine11 & 0xFFFF
   1189                  osal_cpyExtAddr( ZDO_UseExtendedPANID, _NIB.extendedPANID );
   1190                  zgDefaultStartingScanDuration = BEACON_ORDER_60_MSEC;
   \                     ??CrossCallReturnLabel_5:
   \   000215   90....       MOV     DPTR,#zgDefaultStartingScanDuration
   \   000218   7402         MOV     A,#0x2
   \   00021A   F0           MOVX    @DPTR,A
   1191                  ZDApp_NetworkInit( 0 );
   \   00021B                ; Setup parameters for call to function ZDApp_NetworkInit
   \   00021B   7A00         MOV     R2,#0x0
   \   00021D   7B00         MOV     R3,#0x0
   \                     ??ZDApp_ProcessOSALMsg_15:
   \   00021F   12....       LCALL   ??ZDApp_NetworkInit?relay
   1192                }
   1193                break;
   1194          
   1195              default:
   1196                if ( ZG_SECURE_ENABLED )
   1197                  ZDApp_ProcessSecMsg( msgPtr );
   1198                break;
   1199            }
   1200          
   1201          }
   \                     ??ZDApp_ProcessOSALMsg_5:
   \   000222   7401         MOV     A,#0x1
   \   000224   80..         SJMP    ??Subroutine45_0
   \   000226                REQUIRE P1DIR
   \   000226                REQUIRE _A_P1

   \                                 In  segment BANKED_CODE, align 1, keep-with-next
   \                     ?Subroutine34:
   \   000000   FD           MOV     R5,A
   \   000001                REQUIRE ??Subroutine43_0
   \   000001                ; // Fall through to label ??Subroutine43_0

   \                                 In  segment BANKED_CODE, align 1, keep-with-next
   \                     ??Subroutine43_0:
   \   000000   EE           MOV     A,R6
   \   000001   240B         ADD     A,#0xb
   \   000003   FA           MOV     R2,A
   \   000004   EF           MOV     A,R7
   \   000005   3400         ADDC    A,#0x0
   \   000007   FB           MOV     R3,A
   \   000008   22           RET

   \                                 In  segment BANKED_CODE, align 1, keep-with-next
   \                     ?Subroutine19:
   \   000000   8E82         MOV     DPL,R6
   \   000002   8F83         MOV     DPH,R7
   \   000004                REQUIRE ??Subroutine44_0
   \   000004                ; // Fall through to label ??Subroutine44_0

   \                                 In  segment BANKED_CODE, align 1, keep-with-next
   \                     ??Subroutine45_0:
   \   000000   12....       LCALL   ?DEALLOC_XSTACK8
   \   000003                REQUIRE ??Subroutine46_0
   \   000003                ; // Fall through to label ??Subroutine46_0

   \                                 In  segment BANKED_CODE, align 1, keep-with-next
   \                     ??Subroutine46_0:
   \   000000   7F04         MOV     R7,#0x4
   \   000002   02....       LJMP    ?BANKED_LEAVE_XDATA

   \                                 In  segment BANKED_CODE, align 1, keep-with-next
   \                     ?Subroutine28:
   \   000000   12....       LCALL   ??osal_rand?relay
   \   000003   EA           MOV     A,R2
   \   000004   547F         ANL     A,#0x7f
   \   000006   2464         ADD     A,#0x64
   \   000008   FA           MOV     R2,A
   \   000009   7B00         MOV     R3,#0x0
   \   00000B   12....       LCALL   ??ZDApp_NetworkInit?relay
   \   00000E   22           RET

   \                                 In  segment BANKED_CODE, align 1, keep-with-next
   \                     ?Subroutine27:
   \   000000   7A00         MOV     R2,#0x0
   \   000002   7B00         MOV     R3,#0x0
   \   000004   12....       LCALL   ??NLME_SetPollRate?relay
   \   000007                ; Setup parameters for call to function NLME_SetQueuedPollRate
   \   000007                ; Setup parameters for call to function NLME_SetQueuedPollRate
   \   000007                ; Setup parameters for call to function NLME_SetQueuedPollRate
   \   000007   7A00         MOV     R2,#0x0
   \   000009   7B00         MOV     R3,#0x0
   \   00000B   12....       LCALL   ??NLME_SetQueuedPollRate?relay
   \   00000E                ; Setup parameters for call to function NLME_SetResponseRate
   \   00000E                ; Setup parameters for call to function NLME_SetResponseRate
   \   00000E                ; Setup parameters for call to function NLME_SetResponseRate
   \   00000E   7A00         MOV     R2,#0x0
   \   000010   7B00         MOV     R3,#0x0
   \   000012   12....       LCALL   ??NLME_SetResponseRate?relay
   \   000015   22           RET

   \                                 In  segment BANKED_CODE, align 1, keep-with-next
   \                     ?Subroutine12:
   \   000000   F0           MOVX    @DPTR,A
   \   000001                ; Setup parameters for call to function ZDApp_NodeProfileSync
   \   000001   8E82         MOV     DPL,R6
   \   000003   8F83         MOV     DPH,R7
   \   000005   A3           INC     DPTR
   \   000006   A3           INC     DPTR
   \   000007   A3           INC     DPTR
   \   000008   A3           INC     DPTR
   \   000009   A3           INC     DPTR
   \   00000A   A3           INC     DPTR
   \   00000B   22           RET
   1202          
   1203          /*********************************************************************
   1204           * @fn      ZDApp_ProcessMsgCBs()
   1205           *
   1206           * @brief   Process response messages
   1207           *
   1208           * @param   none
   1209           *
   1210           * @return  none
   1211           */

   \                                 In  segment BANKED_CODE, align 1, keep-with-next
   1212          void ZDApp_ProcessMsgCBs( zdoIncomingMsg_t *inMsg )
   \                     ZDApp_ProcessMsgCBs:
   1213          {
   \   000000   74F6         MOV     A,#-0xa
   \   000002   12....       LCALL   ?BANKED_ENTER_XDATA
   \   000005                ; Saved register size: 10
   \   000005                ; Auto size: 21
   \   000005   74EB         MOV     A,#-0x15
   \   000007   12....       LCALL   ?ALLOC_XSTACK8
   \   00000A   EA           MOV     A,R2
   \   00000B   FE           MOV     R6,A
   \   00000C   EB           MOV     A,R3
   \   00000D   FF           MOV     R7,A
   1214            switch ( inMsg->clusterID )
   \   00000E   12....       LCALL   ?Subroutine31 & 0xFFFF
   \                     ??CrossCallReturnLabel_43:
   \   000011   F5..         MOV     ?V0 + 1,A
   \   000013   78..         MOV     R0,#?V0 + 0
   \   000015   12....       LCALL   ?US_SWITCH_SPARSE
   \                     `?<Jumptable for ZDApp_ProcessMsgCBs>_0`:
   \   000018   0200         DW        2
   \   00001A   2100         DW        33
   \   00001C   2200         DW        34
   \   00001E   ....         DW        ??ZDApp_ProcessMsgCBs_0
   \   000020   0080         DW        32768
   \   000022   0180         DW        32769
   \   000024   ....         DW        ??ZDApp_ProcessMsgCBs_1
   \   000026   0000         DW        0
   \   000028   ....         DW        ??ZDApp_ProcessMsgCBs_2
   1215            {
   1216          #if defined ( ZDO_NWKADDR_REQUEST ) || defined ( ZDO_IEEEADDR_REQUEST ) || defined ( REFLECTOR )
   1217              case NWK_addr_rsp:
   1218              case IEEE_addr_rsp:
   1219                {
   1220                  ZDO_NwkIEEEAddrResp_t *pAddrRsp;
   1221                  pAddrRsp = ZDO_ParseAddrRsp( inMsg );
   \                     ??ZDApp_ProcessMsgCBs_1:
   \   00002A                ; Setup parameters for call to function ZDO_ParseAddrRsp
   \   00002A   12....       LCALL   ??ZDO_ParseAddrRsp?relay
   \   00002D   8A..         MOV     ?V0 + 0,R2
   \   00002F   8B..         MOV     ?V0 + 1,R3
   \   000031   AE..         MOV     R6,?V0 + 0
   \   000033   AF..         MOV     R7,?V0 + 1
   1222                  if ( pAddrRsp )
   \   000035   EE           MOV     A,R6
   \   000036   4F           ORL     A,R7
   \   000037   603D         JZ      ??ZDApp_ProcessMsgCBs_2
   1223                  {
   1224                    if ( pAddrRsp->status == ZSuccess )
   \   000039   8E82         MOV     DPL,R6
   \   00003B   8F83         MOV     DPH,R7
   \   00003D   E0           MOVX    A,@DPTR
   \   00003E   700F         JNZ     ??ZDApp_ProcessMsgCBs_3
   1225                    {
   1226                      ZDO_UpdateAddrManager( pAddrRsp->nwkAddr, pAddrRsp->extAddr );
   \   000040                ; Setup parameters for call to function ZDO_UpdateAddrManager
   \   000040   EE           MOV     A,R6
   \   000041   2403         ADD     A,#0x3
   \   000043   FC           MOV     R4,A
   \   000044   EF           MOV     A,R7
   \   000045   3400         ADDC    A,#0x0
   \   000047   FD           MOV     R5,A
   \   000048   A3           INC     DPTR
   \   000049   12....       LCALL   ?Subroutine24 & 0xFFFF
   1227                    }
   \                     ??CrossCallReturnLabel_29:
   \   00004C   12....       LCALL   ??ZDO_UpdateAddrManager?relay
   1228                    osal_mem_free( pAddrRsp );
   \                     ??ZDApp_ProcessMsgCBs_3:
   \   00004F                ; Setup parameters for call to function osal_mem_free
   \   00004F   EE           MOV     A,R6
   \   000050   FA           MOV     R2,A
   \   000051   EF           MOV     A,R7
   \   000052   FB           MOV     R3,A
   \   000053   12....       LCALL   ??osal_mem_free?relay
   \   000056   801E         SJMP    ??ZDApp_ProcessMsgCBs_2
   1229                  }
   1230                }
   1231                break;
   1232          #endif
   1233          
   1234          #if defined ( REFLECTOR )
   1235              case Bind_req:
   1236              case Unbind_req:
   1237                {
   1238                  ZDO_BindUnbindReq_t bindReq;
   1239                  ZDO_ParseBindUnbindReq( inMsg, &bindReq );
   \                     ??ZDApp_ProcessMsgCBs_0:
   \   000058                ; Setup parameters for call to function ZDO_ParseBindUnbindReq
   \   000058   85..82       MOV     DPL,?XSP + 0
   \   00005B   85..83       MOV     DPH,?XSP + 1
   \   00005E   AC82         MOV     R4,DPL
   \   000060   AD83         MOV     R5,DPH
   \   000062   12....       LCALL   ??ZDO_ParseBindUnbindReq?relay
   1240                  ZDO_ProcessBindUnbindReq( inMsg, &bindReq );
   \   000065                ; Setup parameters for call to function ZDO_ProcessBindUnbindReq
   \   000065   85..82       MOV     DPL,?XSP + 0
   \   000068   85..83       MOV     DPH,?XSP + 1
   \   00006B   AC82         MOV     R4,DPL
   \   00006D   AD83         MOV     R5,DPH
   \   00006F   EE           MOV     A,R6
   \   000070   FA           MOV     R2,A
   \   000071   EF           MOV     A,R7
   \   000072   FB           MOV     R3,A
   \   000073   12....       LCALL   ??ZDO_ProcessBindUnbindReq?relay
   1241                }
   1242                break;
   1243          #endif
   1244          
   1245          #if ( ZG_BUILD_COORDINATOR_TYPE )
   1246              case Bind_rsp:
   1247              case Unbind_rsp:
   1248                if (ZG_DEVICE_COORDINATOR_TYPE && matchED)
   1249                {
   1250                  ZDMatchSendState(
   1251                       (uint8)((inMsg->clusterID == Bind_rsp) ? ZDMATCH_REASON_BIND_RSP : ZDMATCH_REASON_UNBIND_RSP),
   1252                       ZDO_ParseBindRsp(inMsg), inMsg->TransSeq );
   1253                }
   1254                break;
   1255          
   1256              case End_Device_Bind_req:
   1257                if (ZG_DEVICE_COORDINATOR_TYPE)
   1258                {
   1259                  ZDEndDeviceBind_t bindReq;
   1260                  ZDO_ParseEndDeviceBindReq( inMsg, &bindReq );
   1261                  ZDO_MatchEndDeviceBind( &bindReq );
   1262          
   1263                  // Freeing the cluster lists - if allocated.
   1264                  if ( bindReq.numInClusters )
   1265                    osal_mem_free( bindReq.inClusters );
   1266                  if ( bindReq.numOutClusters )
   1267                    osal_mem_free( bindReq.outClusters );
   1268                }
   1269                break;
   1270          #endif
   1271            }
   1272          }
   \                     ??ZDApp_ProcessMsgCBs_2:
   \   000076                REQUIRE ?Subroutine8
   \   000076                ; // Fall through to label ?Subroutine8

   \                                 In  segment BANKED_CODE, align 1, keep-with-next
   \                     ?Subroutine8:
   \   000000   7415         MOV     A,#0x15
   \   000002   02....       LJMP    ??Subroutine50_0 & 0xFFFF

   \                                 In  segment BANKED_CODE, align 1, keep-with-next
   \                     ?Subroutine40:
   \   000000   EE           MOV     A,R6
   \   000001   240C         ADD     A,#0xc
   \   000003                REQUIRE ??Subroutine53_0
   \   000003                ; // Fall through to label ??Subroutine53_0

   \                                 In  segment BANKED_CODE, align 1, keep-with-next
   \                     ??Subroutine53_0:
   \   000000   F582         MOV     DPL,A
   \   000002   EF           MOV     A,R7
   \   000003                REQUIRE ??Subroutine54_0
   \   000003                ; // Fall through to label ??Subroutine54_0

   \                                 In  segment BANKED_CODE, align 1, keep-with-next
   \                     ??Subroutine54_0:
   \   000000   3400         ADDC    A,#0x0
   \   000002   F583         MOV     DPH,A
   \   000004   22           RET

   \                                 In  segment BANKED_CODE, align 1, keep-with-next
   \                     ?Subroutine31:
   \   000000   12....       LCALL   ?Subroutine40 & 0xFFFF
   \                     ??CrossCallReturnLabel_120:
   \   000003   E0           MOVX    A,@DPTR
   \   000004   F5..         MOV     ?V0 + 0,A
   \   000006   A3           INC     DPTR
   \   000007   E0           MOVX    A,@DPTR
   \   000008   22           RET
   1273          
   1274          /*********************************************************************
   1275           * @fn      ZDApp_RegisterCBs()
   1276           *
   1277           * @brief   Process response messages
   1278           *
   1279           * @param   none
   1280           *
   1281           * @return  none
   1282           */

   \                                 In  segment BANKED_CODE, align 1, keep-with-next
   1283          void ZDApp_RegisterCBs( void )
   \                     ZDApp_RegisterCBs:
   1284          {
   \   000000   C082         PUSH    DPL
   \   000002   C083         PUSH    DPH
   \   000004                ; Saved register size: 2
   \   000004                ; Auto size: 0
   1285          #if defined ( ZDO_IEEEADDR_REQUEST ) || defined ( REFLECTOR )
   1286            ZDO_RegisterForZDOMsg( ZDAppTaskID, IEEE_addr_rsp );
   \   000004                ; Setup parameters for call to function ZDO_RegisterForZDOMsg
   \   000004   7A01         MOV     R2,#0x1
   \   000006   12....       LCALL   ?Subroutine22 & 0xFFFF
   1287          #endif
   1288          #if defined ( ZDO_NWKADDR_REQUEST ) || defined ( REFLECTOR )
   1289            ZDO_RegisterForZDOMsg( ZDAppTaskID, NWK_addr_rsp );
   \                     ??CrossCallReturnLabel_82:
   \   000009                ; Setup parameters for call to function ZDO_RegisterForZDOMsg
   \   000009   7A00         MOV     R2,#0x0
   \   00000B   12....       LCALL   ?Subroutine22 & 0xFFFF
   1290          #endif
   1291          #if ZG_BUILD_COORDINATOR_TYPE
   1292            ZDO_RegisterForZDOMsg( ZDAppTaskID, Bind_rsp );
   1293            ZDO_RegisterForZDOMsg( ZDAppTaskID, Unbind_rsp );
   1294            ZDO_RegisterForZDOMsg( ZDAppTaskID, End_Device_Bind_req );
   1295          #endif
   1296          #if defined ( REFLECTOR )
   1297            ZDO_RegisterForZDOMsg( ZDAppTaskID, Bind_req );
   \                     ??CrossCallReturnLabel_83:
   \   00000E                ; Setup parameters for call to function ZDO_RegisterForZDOMsg
   \   00000E   7A21         MOV     R2,#0x21
   \   000010   7B00         MOV     R3,#0x0
   \   000012   12....       LCALL   ??Subroutine47_0 & 0xFFFF
   1298            ZDO_RegisterForZDOMsg( ZDAppTaskID, Unbind_req );
   \                     ??CrossCallReturnLabel_84:
   \   000015                ; Setup parameters for call to function ZDO_RegisterForZDOMsg
   \   000015   7A22         MOV     R2,#0x22
   \   000017   7B00         MOV     R3,#0x0
   \   000019   12....       LCALL   ??Subroutine47_0 & 0xFFFF
   1299          #endif
   1300          }
   \                     ??CrossCallReturnLabel_85:
   \   00001C   02....       LJMP    ?Subroutine2 & 0xFFFF

   \                                 In  segment BANKED_CODE, align 1, keep-with-next
   \                     ?Subroutine22:
   \   000000   7B80         MOV     R3,#-0x80
   \   000002                REQUIRE ??Subroutine47_0
   \   000002                ; // Fall through to label ??Subroutine47_0

   \                                 In  segment BANKED_CODE, align 1, keep-with-next
   \                     ??Subroutine47_0:
   \   000000   90....       MOV     DPTR,#ZDAppTaskID
   \   000003   E0           MOVX    A,@DPTR
   \   000004   F9           MOV     R1,A
   \   000005   12....       LCALL   ??ZDO_RegisterForZDOMsg?relay
   \   000008   22           RET
   1301          
   1302          /*********************************************************************
   1303           * @fn      ZDApp_ProcessSecMsg()
   1304           *
   1305           * @brief   Process the incoming security message.
   1306           *
   1307           * @param   msgPtr - message to process
   1308           *
   1309           * @return  none
   1310           */

   \                                 In  segment BANKED_CODE, align 1, keep-with-next
   1311          void ZDApp_ProcessSecMsg( osal_event_hdr_t *msgPtr )
   \                     ZDApp_ProcessSecMsg:
   1312          {
   \   000000   C082         PUSH    DPL
   \   000002   C083         PUSH    DPH
   \   000004                ; Saved register size: 2
   \   000004                ; Auto size: 0
   1313            switch ( msgPtr->event )
   \   000004   8A82         MOV     DPL,R2
   \   000006   8B83         MOV     DPH,R3
   \   000008   E0           MOVX    A,@DPTR
   \   000009   24FA         ADD     A,#-0x6
   \   00000B   6006         JZ      ??ZDApp_ProcessSecMsg_0
   \   00000D   24FC         ADD     A,#-0x4
   \   00000F   6014         JZ      ??ZDApp_ProcessSecMsg_1
   \   000011   8022         SJMP    ??ZDApp_ProcessSecMsg_2
   1314            {
   1315              case ZDO_ESTABLISH_KEY_CFM:
   1316                if ( ZG_CHECK_SECURITY_MODE == ZG_SECURITY_PRO_HIGH )
   1317                {
   1318                  ZDSecMgrEstablishKeyCfm( (ZDO_EstablishKeyCfm_t*)msgPtr );
   1319                }
   1320                break;
   1321          
   1322              case ZDO_ESTABLISH_KEY_IND:
   1323                if ( ZG_CHECK_SECURITY_MODE == ZG_SECURITY_PRO_HIGH )
   1324                {
   1325                  if ( ZG_BUILD_JOINING_TYPE && ZG_DEVICE_JOINING_TYPE )
   1326                  {
   1327                    ZDSecMgrEstablishKeyInd( (ZDO_EstablishKeyInd_t*)msgPtr );
   1328                  }
   1329                }
   1330                break;
   1331          
   1332              case ZDO_TRANSPORT_KEY_IND:
   1333                if ( ZG_BUILD_JOINING_TYPE && ZG_DEVICE_JOINING_TYPE )
   \                     ??ZDApp_ProcessSecMsg_0:
   \   000013   90....       MOV     DPTR,#zgDeviceLogicalType
   \   000016   E0           MOVX    A,@DPTR
   \   000017   6401         XRL     A,#0x1
   \   000019   6005         JZ      ??ZDApp_ProcessSecMsg_3
   \   00001B   E0           MOVX    A,@DPTR
   \   00001C   6402         XRL     A,#0x2
   \   00001E   7015         JNZ     ??ZDApp_ProcessSecMsg_2
   1334                {
   1335                  ZDSecMgrTransportKeyInd( (ZDO_TransportKeyInd_t*)msgPtr );
   \                     ??ZDApp_ProcessSecMsg_3:
   \   000020                ; Setup parameters for call to function ZDSecMgrTransportKeyInd
   \   000020   12....       LCALL   ??ZDSecMgrTransportKeyInd?relay
   \   000023   8010         SJMP    ??ZDApp_ProcessSecMsg_2
   1336                }
   1337                break;
   1338          
   1339              case ZDO_UPDATE_DEVICE_IND:
   1340                if ( ZG_BUILD_COORDINATOR_TYPE && ZG_DEVICE_COORDINATOR_TYPE )
   1341                {
   1342                  ZDSecMgrUpdateDeviceInd( (ZDO_UpdateDeviceInd_t*)msgPtr );
   1343                }
   1344                break;
   1345          
   1346              case ZDO_REMOVE_DEVICE_IND:
   1347                if ( ZG_BUILD_RTRONLY_TYPE && ( zgDeviceLogicalType == ZG_DEVICETYPE_ROUTER ) )
   1348                {
   1349                  ZDSecMgrRemoveDeviceInd( (ZDO_RemoveDeviceInd_t*)msgPtr );
   1350                }
   1351                break;
   1352          
   1353              case ZDO_REQUEST_KEY_IND:
   1354                if (( ZG_CHECK_SECURITY_MODE == ZG_SECURITY_PRO_HIGH ) ||
   1355                    ( ZG_CHECK_SECURITY_MODE == ZG_SECURITY_SE_STANDARD ))
   1356                {
   1357                  if ( ZG_BUILD_COORDINATOR_TYPE && ZG_DEVICE_COORDINATOR_TYPE )
   1358                  {
   1359                    ZDSecMgrRequestKeyInd( (ZDO_RequestKeyInd_t*)msgPtr );
   1360                  }
   1361                }
   1362                break;
   1363          
   1364              case ZDO_SWITCH_KEY_IND:
   1365                if ( ZG_BUILD_JOINING_TYPE && ZG_DEVICE_JOINING_TYPE )
   \                     ??ZDApp_ProcessSecMsg_1:
   \   000025   90....       MOV     DPTR,#zgDeviceLogicalType
   \   000028   E0           MOVX    A,@DPTR
   \   000029   6401         XRL     A,#0x1
   \   00002B   6005         JZ      ??ZDApp_ProcessSecMsg_4
   \   00002D   E0           MOVX    A,@DPTR
   \   00002E   6402         XRL     A,#0x2
   \   000030   7003         JNZ     ??ZDApp_ProcessSecMsg_2
   1366                {
   1367                  ZDSecMgrSwitchKeyInd( (ZDO_SwitchKeyInd_t*)msgPtr );
   \                     ??ZDApp_ProcessSecMsg_4:
   \   000032                ; Setup parameters for call to function ZDSecMgrSwitchKeyInd
   \   000032   12....       LCALL   ??ZDSecMgrSwitchKeyInd?relay
   1368                }
   1369                break;
   1370          
   1371              case ZDO_AUTHENTICATE_IND:
   1372                if ( ZG_CHECK_SECURITY_MODE == ZG_SECURITY_PRO_HIGH )
   1373                {
   1374                  ZDSecMgrAuthenticateInd( (ZDO_AuthenticateInd_t*)msgPtr );
   1375                }
   1376                break;
   1377          
   1378              case ZDO_AUTHENTICATE_CFM:
   1379                if ( ZG_CHECK_SECURITY_MODE == ZG_SECURITY_PRO_HIGH )
   1380                {
   1381                  ZDSecMgrAuthenticateCfm( (ZDO_AuthenticateCfm_t*)msgPtr );
   1382                }
   1383                break;
   1384          
   1385              default:
   1386                // Unsupported messages
   1387                break;
   1388            }
   1389          }
   \                     ??ZDApp_ProcessSecMsg_2:
   \   000035   02....       LJMP    ?Subroutine2 & 0xFFFF
   1390          
   1391          /*********************************************************************
   1392           * @fn      ZDApp_ProcessNetworkJoin()
   1393           *
   1394           * @brief
   1395           *
   1396           *   Save off the Network key information.
   1397           *
   1398           * @param   none
   1399           *
   1400           * @return  none
   1401           */

   \                                 In  segment BANKED_CODE, align 1, keep-with-next
   1402          void ZDApp_ProcessNetworkJoin( void )
   \                     ZDApp_ProcessNetworkJoin:
   1403          {
   \   000000   74F6         MOV     A,#-0xa
   \   000002   12....       LCALL   ?BANKED_ENTER_XDATA
   \   000005                ; Saved register size: 10
   \   000005                ; Auto size: 2
   \   000005   74FE         MOV     A,#-0x2
   \   000007   12....       LCALL   ?ALLOC_XSTACK8
   1404            if ( (devState == DEV_NWK_JOINING) ||
   1405                ((devState == DEV_NWK_ORPHAN)  &&
   1406                 (ZDO_Config_Node_Descriptor.LogicalType == NODETYPE_ROUTER)) )
   \   00000A   90....       MOV     DPTR,#devState
   \   00000D   E0           MOVX    A,@DPTR
   \   00000E   6403         XRL     A,#0x3
   \   000010   6015         JZ      ??ZDApp_ProcessNetworkJoin_0
   \   000012   E0           MOVX    A,@DPTR
   \   000013   640A         XRL     A,#0xa
   \   000015   6003         JZ      $+5
   \   000017   02....       LJMP    ??ZDApp_ProcessNetworkJoin_1 & 0xFFFF
   \   00001A   90....       MOV     DPTR,#ZDO_Config_Node_Descriptor
   \   00001D   E0           MOVX    A,@DPTR
   \   00001E   5407         ANL     A,#0x7
   \   000020   6401         XRL     A,#0x1
   \   000022   6003         JZ      $+5
   \   000024   02....       LJMP    ??ZDApp_ProcessNetworkJoin_2 & 0xFFFF
   1407            {
   1408              // Result of a Join attempt by this device.
   1409              if ( nwkStatus == ZSuccess )
   \                     ??ZDApp_ProcessNetworkJoin_0:
   \   000027   90....       MOV     DPTR,#nwkStatus
   \   00002A   E0           MOVX    A,@DPTR
   \   00002B   701C         JNZ     ??ZDApp_ProcessNetworkJoin_3
   1410              {
   1411                osal_set_event( ZDAppTaskID, ZDO_STATE_CHANGE_EVT );
   \   00002D                ; Setup parameters for call to function osal_set_event
   \   00002D   12....       LCALL   ?Subroutine18 & 0xFFFF
   1412          
   1413          #if defined ( POWER_SAVING )
   1414                osal_pwrmgr_device( PWRMGR_BATTERY );
   \                     ??CrossCallReturnLabel_65:
   \   000030                ; Setup parameters for call to function osal_pwrmgr_device
   \   000030   7901         MOV     R1,#0x1
   \   000032   12....       LCALL   ??osal_pwrmgr_device?relay
   1415          #endif
   1416          
   1417                if ( ZG_SECURE_ENABLED && ( ZDApp_RestoreNwkKey() == false ) )
   1418                {
   1419                  // wait for auth from trust center!!
   1420                  devState = DEV_END_DEVICE_UNAUTH;
   1421          
   1422                  // Start the reset timer for MAX UNAUTH time
   1423                  ZDApp_ResetTimerStart( 10000 );//MAX_DEVICE_UNAUTH_TIMEOUT );
   1424                }
   1425                else
   1426                {
   1427                  if ( ZSTACK_ROUTER_BUILD )
   1428                  {
   1429                    if ( devState == DEV_NWK_ORPHAN
   1430                      && ZDO_Config_Node_Descriptor.LogicalType != NODETYPE_DEVICE )
   1431                    {
   1432                      // Change NIB state to router for restore
   1433                      _NIB.nwkState = NWK_ROUTER;
   1434                    }
   1435                  }
   1436          
   1437                  if ( devState == DEV_NWK_JOINING )
   \   000035   90....       MOV     DPTR,#devState
   \   000038   E0           MOVX    A,@DPTR
   \   000039   6403         XRL     A,#0x3
   \   00003B   7003         JNZ     ??ZDApp_ProcessNetworkJoin_4
   1438                  {
   1439                    ZDApp_AnnounceNewAddress();
   \   00003D                ; Setup parameters for call to function ZDApp_AnnounceNewAddress
   \   00003D   12....       LCALL   ??ZDApp_AnnounceNewAddress?relay
   1440                  }
   1441          
   1442                  devState = DEV_END_DEVICE;
   \                     ??ZDApp_ProcessNetworkJoin_4:
   \   000040   90....       MOV     DPTR,#devState
   \   000043   7406         MOV     A,#0x6
   \   000045   F0           MOVX    @DPTR,A
   1443                  if ( ZSTACK_ROUTER_BUILD )
   \   000046   02....       LJMP    ??CrossCallReturnLabel_66 & 0xFFFF
   1444                  {
   1445                    // NOTE: first two parameters are not used, see NLMEDE.h for details
   1446                    if ( ZDO_Config_Node_Descriptor.LogicalType != NODETYPE_DEVICE )
   1447                    {
   1448                      NLME_StartRouterRequest( 0, 0, false );
   1449                    }
   1450                  }
   1451                }
   1452              }
   1453              else
   1454              {
   1455                if ( (devStartMode == MODE_RESUME) && (++retryCnt >= MAX_RESUME_RETRY) )
   \                     ??ZDApp_ProcessNetworkJoin_3:
   \   000049   90....       MOV     DPTR,#devStartMode
   \   00004C   E0           MOVX    A,@DPTR
   \   00004D   6401         XRL     A,#0x1
   \   00004F   7036         JNZ     ??ZDApp_ProcessNetworkJoin_5
   \   000051   90....       MOV     DPTR,#retryCnt
   \   000054   E0           MOVX    A,@DPTR
   \   000055   04           INC     A
   \   000056   F0           MOVX    @DPTR,A
   \   000057   C3           CLR     C
   \   000058   9403         SUBB    A,#0x3
   \   00005A   402B         JC      ??ZDApp_ProcessNetworkJoin_5
   1456                {
   1457                  if ( _NIB.nwkPanId == 0xFFFF || _NIB.nwkPanId == INVALID_PAN_ID )
   \   00005C   90....       MOV     DPTR,#_NIB + 33
   \   00005F   E0           MOVX    A,@DPTR
   \   000060   F4           CPL     A
   \   000061   7003         JNZ     ??ZDApp_ProcessNetworkJoin_6
   \   000063   A3           INC     DPTR
   \   000064   E0           MOVX    A,@DPTR
   \   000065   F4           CPL     A
   \                     ??ZDApp_ProcessNetworkJoin_6:
   \   000066   600D         JZ      ??ZDApp_ProcessNetworkJoin_7
   \   000068   90....       MOV     DPTR,#_NIB + 33
   \   00006B   E0           MOVX    A,@DPTR
   \   00006C   64FE         XRL     A,#0xfe
   \   00006E   7003         JNZ     ??ZDApp_ProcessNetworkJoin_8
   \   000070   A3           INC     DPTR
   \   000071   E0           MOVX    A,@DPTR
   \   000072   F4           CPL     A
   \                     ??ZDApp_ProcessNetworkJoin_8:
   \   000073   7006         JNZ     ??ZDApp_ProcessNetworkJoin_9
   1458                    devStartMode = MODE_JOIN;
   \                     ??ZDApp_ProcessNetworkJoin_7:
   \   000075   90....       MOV     DPTR,#devStartMode
   \   000078   E4           CLR     A
   \   000079   800B         SJMP    ??ZDApp_ProcessNetworkJoin_10
   1459                  else
   1460                  {
   1461                    devStartMode = MODE_REJOIN;
   \                     ??ZDApp_ProcessNetworkJoin_9:
   \   00007B   90....       MOV     DPTR,#devStartMode
   \   00007E   7403         MOV     A,#0x3
   \   000080   F0           MOVX    @DPTR,A
   1462                    _tmpRejoinState = true;
   \   000081   90....       MOV     DPTR,#_tmpRejoinState
   \   000084   7401         MOV     A,#0x1
   \                     ??ZDApp_ProcessNetworkJoin_10:
   \   000086   F0           MOVX    @DPTR,A
   1463                  }
   1464                }
   1465          
   1466                if ( (NLME_GetShortAddr() != INVALID_NODE_ADDR) ||
   1467                     (_NIB.nwkDevAddress != INVALID_NODE_ADDR) )
   \                     ??ZDApp_ProcessNetworkJoin_5:
   \   000087                ; Setup parameters for call to function NLME_GetShortAddr
   \   000087   12....       LCALL   ??NLME_GetShortAddr?relay
   \   00008A   8A..         MOV     ?V0 + 0,R2
   \   00008C   8B..         MOV     ?V0 + 1,R3
   \   00008E   74FE         MOV     A,#-0x2
   \   000090   65..         XRL     A,?V0 + 0
   \   000092   7004         JNZ     ??ZDApp_ProcessNetworkJoin_11
   \   000094   74FF         MOV     A,#-0x1
   \   000096   65..         XRL     A,?V0 + 1
   \                     ??ZDApp_ProcessNetworkJoin_11:
   \   000098   700D         JNZ     ??ZDApp_ProcessNetworkJoin_12
   \   00009A   90....       MOV     DPTR,#_NIB + 20
   \   00009D   E0           MOVX    A,@DPTR
   \   00009E   64FE         XRL     A,#0xfe
   \   0000A0   7003         JNZ     ??ZDApp_ProcessNetworkJoin_13
   \   0000A2   A3           INC     DPTR
   \   0000A3   E0           MOVX    A,@DPTR
   \   0000A4   F4           CPL     A
   \                     ??ZDApp_ProcessNetworkJoin_13:
   \   0000A5   601B         JZ      ??ZDApp_ProcessNetworkJoin_14
   1468                {
   1469                  uint16 addr = INVALID_NODE_ADDR;
   \                     ??ZDApp_ProcessNetworkJoin_12:
   \   0000A7   85..82       MOV     DPL,?XSP + 0
   \   0000AA   85..83       MOV     DPH,?XSP + 1
   \   0000AD   74FE         MOV     A,#-0x2
   \   0000AF   F0           MOVX    @DPTR,A
   \   0000B0   A3           INC     DPTR
   \   0000B1   04           INC     A
   \   0000B2   F0           MOVX    @DPTR,A
   1470                  // Invalidate nwk addr so end device does not use in its data reqs.
   1471                  _NIB.nwkDevAddress = INVALID_NODE_ADDR;
   \   0000B3   90....       MOV     DPTR,#_NIB + 20
   \   0000B6   14           DEC     A
   \   0000B7   F0           MOVX    @DPTR,A
   \   0000B8   A3           INC     DPTR
   \   0000B9   04           INC     A
   \   0000BA   12....       LCALL   ?Subroutine13 & 0xFFFF
   1472                  ZMacSetReq( ZMacShortAddress, (uint8 *)&addr );
   1473                }
   \                     ??CrossCallReturnLabel_8:
   \   0000BD   7953         MOV     R1,#0x53
   \   0000BF   12....       LCALL   ??ZMacSetReq?relay
   1474          
   1475                // Clear the neighbor Table and network discovery tables.
   1476                nwkNeighborInitTable();
   \                     ??ZDApp_ProcessNetworkJoin_14:
   \   0000C2                ; Setup parameters for call to function nwkNeighborInitTable
   \   0000C2   12....       LCALL   ??nwkNeighborInitTable?relay
   1477                NLME_NwkDiscTerm();
   \   0000C5                ; Setup parameters for call to function NLME_NwkDiscTerm
   \   0000C5   12....       LCALL   ??NLME_NwkDiscTerm?relay
   1478          
   1479                zdoDiscCounter = 1;
   \   0000C8   90....       MOV     DPTR,#zdoDiscCounter
   \   0000CB   7401         MOV     A,#0x1
   \   0000CD   F0           MOVX    @DPTR,A
   1480          
   1481          //      ZDApp_NetworkInit( (uint16)
   1482          //                         ((NWK_START_DELAY * (osal_rand() & 0x0F)) +
   1483          //                          (NWK_START_DELAY * 5)) );
   1484                ZDApp_NetworkInit( (uint16)(NWK_START_DELAY
   1485                     + ((uint16)(osal_rand()& EXTENDED_JOINING_RANDOM_MASK))) );
   \   0000CE                ; Setup parameters for call to function ZDApp_NetworkInit
   \   0000CE                ; Setup parameters for call to function osal_rand
   1486              }
   1487            }
   \                     ??ZDApp_ProcessNetworkJoin_15:
   \   0000CE   12....       LCALL   ?Subroutine28 & 0xFFFF
   \                     ??CrossCallReturnLabel_38:
   \   0000D1   807C         SJMP    ??CrossCallReturnLabel_66
   1488            else if ( devState == DEV_NWK_ORPHAN || devState == DEV_NWK_REJOIN )
   \                     ??ZDApp_ProcessNetworkJoin_1:
   \   0000D3   E0           MOVX    A,@DPTR
   \   0000D4   6404         XRL     A,#0x4
   \   0000D6   7069         JNZ     ??ZDApp_ProcessNetworkJoin_16
   1489            {
   1490              // results of an orphaning attempt by this device
   1491              if (nwkStatus == ZSuccess)
   \                     ??ZDApp_ProcessNetworkJoin_2:
   \   0000D8   90....       MOV     DPTR,#nwkStatus
   \   0000DB   E0           MOVX    A,@DPTR
   \   0000DC   7013         JNZ     ??ZDApp_ProcessNetworkJoin_17
   1492              {
   1493                if ( ZG_SECURE_ENABLED )
   1494                {
   1495                  ZDApp_RestoreNwkKey();
   1496                }
   1497          
   1498                devState = DEV_END_DEVICE;
   \   0000DE   12....       LCALL   ?Subroutine9 & 0xFFFF
   1499                osal_set_event( ZDAppTaskID, ZDO_STATE_CHANGE_EVT );
   1500                // setup Power Manager Device
   1501          #if defined ( POWER_SAVING )
   1502                osal_pwrmgr_device( PWRMGR_BATTERY );
   1503          #endif
   1504          
   1505                if ( ZDO_Config_Node_Descriptor.CapabilityFlags & CAPINFO_RCVR_ON_IDLE )
   \                     ??CrossCallReturnLabel_1:
   \   0000E1   90....       MOV     DPTR,#ZDO_Config_Node_Descriptor + 2
   \   0000E4   E0           MOVX    A,@DPTR
   \   0000E5   A2E3         MOV     C,0xE0 /* A   */.3
   \   0000E7   5003         JNC     ??CrossCallReturnLabel_36
   1506                {
   1507                  // The receiver is on, turn network layer polling off.
   1508                  NLME_SetPollRate( 0 );
   \   0000E9                ; Setup parameters for call to function NLME_SetPollRate
   \   0000E9   12....       LCALL   ?Subroutine27 & 0xFFFF
   1509                  NLME_SetQueuedPollRate( 0 );
   1510                  NLME_SetResponseRate( 0 );
   1511                }
   1512          
   1513                if ( ZSTACK_ROUTER_BUILD )
   1514                {
   1515                  // NOTE: first two parameters are not used, see NLMEDE.h for details
   1516                  if ( ZDO_Config_Node_Descriptor.LogicalType != NODETYPE_DEVICE )
   1517                  {
   1518                    NLME_StartRouterRequest( 0, 0, false );
   1519                  }
   1520                }
   1521          
   1522                ZDApp_AnnounceNewAddress();
   \                     ??CrossCallReturnLabel_36:
   \   0000EC                ; Setup parameters for call to function ZDApp_AnnounceNewAddress
   \   0000EC   12....       LCALL   ??ZDApp_AnnounceNewAddress?relay
   \   0000EF   805E         SJMP    ??CrossCallReturnLabel_66
   1523              }
   1524              else
   1525              {
   1526                if ( devStartMode == MODE_RESUME )
   \                     ??ZDApp_ProcessNetworkJoin_17:
   \   0000F1   90....       MOV     DPTR,#devStartMode
   \   0000F4   E0           MOVX    A,@DPTR
   \   0000F5   6401         XRL     A,#0x1
   \   0000F7   7040         JNZ     ??ZDApp_ProcessNetworkJoin_18
   1527                {
   1528                  if ( ++retryCnt <= MAX_RESUME_RETRY )
   \   0000F9   90....       MOV     DPTR,#retryCnt
   \   0000FC   E0           MOVX    A,@DPTR
   \   0000FD   04           INC     A
   \   0000FE   F0           MOVX    @DPTR,A
   \   0000FF   C3           CLR     C
   \   000100   9404         SUBB    A,#0x4
   \   000102   502D         JNC     ??ZDApp_ProcessNetworkJoin_19
   1529                  {
   1530                    if ( _NIB.nwkPanId == 0xFFFF || _NIB.nwkPanId == INVALID_PAN_ID )
   \   000104   90....       MOV     DPTR,#_NIB + 33
   \   000107   E0           MOVX    A,@DPTR
   \   000108   F4           CPL     A
   \   000109   7003         JNZ     ??ZDApp_ProcessNetworkJoin_20
   \   00010B   A3           INC     DPTR
   \   00010C   E0           MOVX    A,@DPTR
   \   00010D   F4           CPL     A
   \                     ??ZDApp_ProcessNetworkJoin_20:
   \   00010E   600D         JZ      ??ZDApp_ProcessNetworkJoin_21
   \   000110   90....       MOV     DPTR,#_NIB + 33
   \   000113   E0           MOVX    A,@DPTR
   \   000114   64FE         XRL     A,#0xfe
   \   000116   7003         JNZ     ??ZDApp_ProcessNetworkJoin_22
   \   000118   A3           INC     DPTR
   \   000119   E0           MOVX    A,@DPTR
   \   00011A   F4           CPL     A
   \                     ??ZDApp_ProcessNetworkJoin_22:
   \   00011B   7007         JNZ     ??ZDApp_ProcessNetworkJoin_23
   1531                      devStartMode = MODE_JOIN;
   \                     ??ZDApp_ProcessNetworkJoin_21:
   \   00011D   90....       MOV     DPTR,#devStartMode
   \   000120   E4           CLR     A
   \                     ??ZDApp_ProcessNetworkJoin_24:
   \   000121   F0           MOVX    @DPTR,A
   \   000122   8015         SJMP    ??ZDApp_ProcessNetworkJoin_18
   1532                    else
   1533                    {
   1534                      devStartMode = MODE_REJOIN;
   \                     ??ZDApp_ProcessNetworkJoin_23:
   \   000124   90....       MOV     DPTR,#devStartMode
   \   000127   7403         MOV     A,#0x3
   \   000129   F0           MOVX    @DPTR,A
   1535                      _tmpRejoinState = true;
   \   00012A   90....       MOV     DPTR,#_tmpRejoinState
   \   00012D   7401         MOV     A,#0x1
   \   00012F   80F0         SJMP    ??ZDApp_ProcessNetworkJoin_24
   1536                    }
   1537                  }
   1538                  // Do a normal join to the network after certain times of rejoin retries
   1539                  else if( AIB_apsUseInsecureJoin == true )
   \                     ??ZDApp_ProcessNetworkJoin_19:
   \   000131   90....       MOV     DPTR,#AIB_apsUseInsecureJoin
   \   000134   E0           MOVX    A,@DPTR
   \   000135   6401         XRL     A,#0x1
   \   000137   60E4         JZ      ??ZDApp_ProcessNetworkJoin_21
   1540                  {
   1541                    devStartMode = MODE_JOIN;
   1542                  }
   1543                }
   1544          
   1545                // Clear the neighbor Table and network discovery tables.
   1546                nwkNeighborInitTable();
   \                     ??ZDApp_ProcessNetworkJoin_18:
   \   000139                ; Setup parameters for call to function nwkNeighborInitTable
   \   000139   12....       LCALL   ??nwkNeighborInitTable?relay
   1547                NLME_NwkDiscTerm();
   \   00013C                ; Setup parameters for call to function NLME_NwkDiscTerm
   \   00013C   12....       LCALL   ??NLME_NwkDiscTerm?relay
   1548          
   1549                // setup a retry for later...
   1550                ZDApp_NetworkInit( (uint16)(NWK_START_DELAY
   1551                     + (osal_rand()& EXTENDED_JOINING_RANDOM_MASK)) );
   \   00013F                ; Setup parameters for call to function ZDApp_NetworkInit
   \   00013F                ; Setup parameters for call to function osal_rand
   \   00013F   808D         SJMP    ??ZDApp_ProcessNetworkJoin_15
   1552              }
   1553            }
   1554          #if defined ( ZIGBEE_STOCHASTIC_ADDRESSING )
   1555            else
   1556            {
   1557              // Assume from address conflict
   1558              if ( _NIB.nwkAddrAlloc == NWK_ADDRESSING_STOCHASTIC )
   \                     ??ZDApp_ProcessNetworkJoin_16:
   \   000141   90....       MOV     DPTR,#_NIB + 96
   \   000144   E0           MOVX    A,@DPTR
   \   000145   6402         XRL     A,#0x2
   \   000147   7006         JNZ     ??CrossCallReturnLabel_66
   1559              {
   1560                // Notify the network
   1561                ZDApp_AnnounceNewAddress();
   \   000149                ; Setup parameters for call to function ZDApp_AnnounceNewAddress
   \   000149   12....       LCALL   ??ZDApp_AnnounceNewAddress?relay
   1562          
   1563                // Notify apps
   1564                osal_set_event( ZDAppTaskID, ZDO_STATE_CHANGE_EVT );
   \   00014C                ; Setup parameters for call to function osal_set_event
   \   00014C   12....       LCALL   ?Subroutine18 & 0xFFFF
   1565              }
   1566            }
   1567          #endif
   1568          }
   \                     ??CrossCallReturnLabel_66:
   \   00014F   02....       LJMP    ?Subroutine7 & 0xFFFF

   \                                 In  segment BANKED_CODE, align 1, keep-with-next
   \                     ?Subroutine13:
   \   000000   F0           MOVX    @DPTR,A
   \   000001                ; Setup parameters for call to function ZMacSetReq
   \   000001                ; Setup parameters for indirect call
   \   000001   85..82       MOV     DPL,?XSP + 0
   \   000004   85..83       MOV     DPH,?XSP + 1
   \   000007   AA82         MOV     R2,DPL
   \   000009   AB83         MOV     R3,DPH
   \   00000B   22           RET
   1569          
   1570          /*********************************************************************
   1571           * @fn      ZDApp_SaveNwkKey()
   1572           *
   1573           * @brief   Save off the Network key information.
   1574           *
   1575           * @param   none
   1576           *
   1577           * @return  none
   1578           */

   \                                 In  segment BANKED_CODE, align 1, keep-with-next
   \                     ?Subroutine4:
   \   000000   7415         MOV     A,#0x15
   \   000002                REQUIRE ??Subroutine45_0
   \   000002                ; // Fall through to label ??Subroutine45_0

   \                                 In  segment BANKED_CODE, align 1, keep-with-next
   1579          void ZDApp_SaveNwkKey( void )
   \                     ZDApp_SaveNwkKey:
   1580          {
   \   000000   74F4         MOV     A,#-0xc
   \   000002   12....       LCALL   ?BANKED_ENTER_XDATA
   \   000005                ; Saved register size: 12
   \   000005                ; Auto size: 21
   \   000005   74EB         MOV     A,#-0x15
   \   000007   12....       LCALL   ?ALLOC_XSTACK8
   1581            nwkActiveKeyItems keyItems;
   1582          
   1583            SSP_ReadNwkActiveKey( &keyItems );
   \   00000A                ; Setup parameters for call to function SSP_ReadNwkActiveKey
   \   00000A   85..82       MOV     DPL,?XSP + 0
   \   00000D   85..83       MOV     DPH,?XSP + 1
   \   000010   AA82         MOV     R2,DPL
   \   000012   AB83         MOV     R3,DPH
   \   000014   12....       LCALL   ??SSP_ReadNwkActiveKey?relay
   1584            keyItems.frameCounter++;
   \   000017   90....       MOV     DPTR,#__Constant_1
   \   00001A   78..         MOV     R0,#?V0 + 0
   \   00001C   12....       LCALL   ?L_MOV_X
   \   00001F   7411         MOV     A,#0x11
   \   000021   12....       LCALL   ?XSTACK_DISP0_8
   \   000024   78..         MOV     R0,#?V0 + 0
   \   000026   12....       LCALL   ?L_ADD_TO_X
   1585          
   1586            osal_nv_write( ZCD_NV_NWKKEY, 0, sizeof( nwkActiveKeyItems ),
   1587                          (void *)&keyItems );
   \   000029                ; Setup parameters for call to function osal_nv_write
   \   000029   85..82       MOV     DPL,?XSP + 0
   \   00002C   85..83       MOV     DPH,?XSP + 1
   \   00002F   8582..       MOV     ?V0 + 0,DPL
   \   000032   8583..       MOV     ?V0 + 1,DPH
   \   000035   78..         MOV     R0,#?V0 + 0
   \   000037   12....       LCALL   ?PUSH_XSTACK_I_TWO
   \   00003A   75..15       MOV     ?V0 + 0,#0x15
   \   00003D   75..00       MOV     ?V0 + 1,#0x0
   \   000040   78..         MOV     R0,#?V0 + 0
   \   000042   12....       LCALL   ?PUSH_XSTACK_I_TWO
   \   000045   7C00         MOV     R4,#0x0
   \   000047   7D00         MOV     R5,#0x0
   \   000049   7A82         MOV     R2,#-0x7e
   \   00004B   7B00         MOV     R3,#0x0
   \   00004D   12....       LCALL   ??osal_nv_write?relay
   \   000050   7404         MOV     A,#0x4
   \   000052   12....       LCALL   ?DEALLOC_XSTACK8
   1588          
   1589            nwkFrameCounterChanges = 0;
   \   000055   90....       MOV     DPTR,#nwkFrameCounterChanges
   \   000058   E4           CLR     A
   \   000059   F0           MOVX    @DPTR,A
   \   00005A   A3           INC     DPTR
   \   00005B   F0           MOVX    @DPTR,A
   1590          
   1591            // Clear copy in RAM before return.
   1592            osal_memset( &keyItems, 0x00, sizeof(keyItems) );
   \   00005C                ; Setup parameters for call to function osal_memset
   \   00005C   7C15         MOV     R4,#0x15
   \   00005E   FD           MOV     R5,A
   \   00005F   F9           MOV     R1,A
   \   000060   85..82       MOV     DPL,?XSP + 0
   \   000063   85..83       MOV     DPH,?XSP + 1
   \   000066   AA82         MOV     R2,DPL
   \   000068   AB83         MOV     R3,DPH
   \   00006A   12....       LCALL   ??osal_memset?relay
   1593          
   1594          }
   \   00006D   02....       LJMP    ?Subroutine4 & 0xFFFF
   1595          
   1596          /*********************************************************************
   1597           * @fn      ZDApp_ResetNwkKey()
   1598           *
   1599           * @brief   Reset the Network key information in NV.
   1600           *
   1601           * @param   none
   1602           *
   1603           * @return  none
   1604           */

   \                                 In  segment BANKED_CODE, align 1, keep-with-next
   1605          void ZDApp_ResetNwkKey( void )
   \                     ZDApp_ResetNwkKey:
   1606          {
   \   000000   74F6         MOV     A,#-0xa
   \   000002   12....       LCALL   ?BANKED_ENTER_XDATA
   \   000005                ; Saved register size: 10
   \   000005                ; Auto size: 21
   \   000005   74EB         MOV     A,#-0x15
   \   000007   12....       LCALL   ?ALLOC_XSTACK8
   1607            nwkActiveKeyItems keyItems;
   1608          
   1609            osal_memset( &keyItems, 0, sizeof( nwkActiveKeyItems ) );
   \   00000A                ; Setup parameters for call to function osal_memset
   \   00000A   7C15         MOV     R4,#0x15
   \   00000C   12....       LCALL   ?Subroutine33 & 0xFFFF
   1610            osal_nv_write( ZCD_NV_NWKKEY, 0, sizeof( nwkActiveKeyItems ),
   1611                          (void *)&keyItems );
   \                     ??CrossCallReturnLabel_46:
   \   00000F   12....       LCALL   ?PUSH_XSTACK_I_TWO
   \   000012   75..15       MOV     ?V0 + 0,#0x15
   \   000015   75..00       MOV     ?V0 + 1,#0x0
   \   000018   78..         MOV     R0,#?V0 + 0
   \   00001A   12....       LCALL   ?PUSH_XSTACK_I_TWO
   \   00001D   7C00         MOV     R4,#0x0
   \   00001F   7D00         MOV     R5,#0x0
   \   000021   7A82         MOV     R2,#-0x7e
   \   000023   7B00         MOV     R3,#0x0
   \   000025   12....       LCALL   ??osal_nv_write?relay
   \   000028   7404         MOV     A,#0x4
   \   00002A   12....       LCALL   ?DEALLOC_XSTACK8
   1612          }
   \   00002D   02....       LJMP    ?Subroutine8 & 0xFFFF
   1613          
   1614          /*********************************************************************
   1615           * @fn      ZDApp_RestoreNwkKey()
   1616           *
   1617           * @brief
   1618           *
   1619           *   Save off the Network key information.
   1620           *
   1621           * @param   none
   1622           *
   1623           * @return  true if restored from NV, false if not
   1624           */

   \                                 In  segment BANKED_CODE, align 1, keep-with-next
   1625          uint8 ZDApp_RestoreNwkKey( void )
   \                     ZDApp_RestoreNwkKey:
   1626          {
   \   000000   74F4         MOV     A,#-0xc
   \   000002   12....       LCALL   ?BANKED_ENTER_XDATA
   \   000005                ; Saved register size: 12
   \   000005                ; Auto size: 21
   \   000005   74EB         MOV     A,#-0x15
   \   000007   12....       LCALL   ?ALLOC_XSTACK8
   1627            nwkActiveKeyItems keyItems;
   1628            uint8 ret = false;
   \   00000A   7E00         MOV     R6,#0x0
   1629          
   1630            if ( osal_nv_read( ZCD_NV_NWKKEY, 0, sizeof(nwkActiveKeyItems), (void*)&keyItems )
   1631                == ZSUCCESS )
   \   00000C                ; Setup parameters for call to function osal_nv_read
   \   00000C   85..82       MOV     DPL,?XSP + 0
   \   00000F   85..83       MOV     DPH,?XSP + 1
   \   000012   8582..       MOV     ?V0 + 0,DPL
   \   000015   8583..       MOV     ?V0 + 1,DPH
   \   000018   78..         MOV     R0,#?V0 + 0
   \   00001A   12....       LCALL   ?PUSH_XSTACK_I_TWO
   \   00001D   75..15       MOV     ?V0 + 0,#0x15
   \   000020   8E..         MOV     ?V0 + 1,R6
   \   000022   78..         MOV     R0,#?V0 + 0
   \   000024   12....       LCALL   ?PUSH_XSTACK_I_TWO
   \   000027   7C00         MOV     R4,#0x0
   \   000029   7D00         MOV     R5,#0x0
   \   00002B   7A82         MOV     R2,#-0x7e
   \   00002D   12....       LCALL   ?Subroutine35 & 0xFFFF
   \                     ??CrossCallReturnLabel_48:
   \   000030   12....       LCALL   ?DEALLOC_XSTACK8
   \   000033   E9           MOV     A,R1
   \   000034   703F         JNZ     ??ZDApp_RestoreNwkKey_0
   1632            {
   1633              if ( keyItems.frameCounter > 0 )
   \   000036   7411         MOV     A,#0x11
   \   000038   12....       LCALL   ?XSTACK_DISP0_8
   \   00003B   78..         MOV     R0,#?V0 + 0
   \   00003D   12....       LCALL   ?L_MOV_X
   \   000040   E5..         MOV     A,?V0 + 0
   \   000042   45..         ORL     A,?V0 + 1
   \   000044   45..         ORL     A,?V0 + 2
   \   000046   45..         ORL     A,?V0 + 3
   \   000048   6021         JZ      ??ZDApp_RestoreNwkKey_1
   1634              {
   1635                // Restore the key information
   1636                keyItems.frameCounter += MAX_NWK_FRAMECOUNTER_CHANGES;
   \   00004A   90....       MOV     DPTR,#__Constant_3e8
   \   00004D   78..         MOV     R0,#?V0 + 0
   \   00004F   12....       LCALL   ?L_MOV_X
   \   000052   7411         MOV     A,#0x11
   \   000054   12....       LCALL   ?XSTACK_DISP0_8
   \   000057   78..         MOV     R0,#?V0 + 0
   \   000059   12....       LCALL   ?L_ADD_TO_X
   1637                nwkFrameCounter = keyItems.frameCounter;
   \   00005C   7411         MOV     A,#0x11
   \   00005E   12....       LCALL   ?XSTACK_DISP0_8
   \   000061   12....       LCALL   ?XLOAD_R2345
   \   000064   90....       MOV     DPTR,#nwkFrameCounter
   \   000067   12....       LCALL   ?XSTORE_R2345
   1638                ret = true;
   \   00006A   0E           INC     R6
   1639              }
   1640          
   1641              // Force a save for the first frame counter increment
   1642              nwkFrameCounterChanges = MAX_NWK_FRAMECOUNTER_CHANGES + 1;
   \                     ??ZDApp_RestoreNwkKey_1:
   \   00006B   90....       MOV     DPTR,#nwkFrameCounterChanges
   \   00006E   74E9         MOV     A,#-0x17
   \   000070   F0           MOVX    @DPTR,A
   \   000071   A3           INC     DPTR
   \   000072   7403         MOV     A,#0x3
   \   000074   F0           MOVX    @DPTR,A
   1643            }
   1644            // Clear copy in RAM before return.
   1645            osal_memset( &keyItems, 0x00, sizeof(keyItems) );
   \                     ??ZDApp_RestoreNwkKey_0:
   \   000075                ; Setup parameters for call to function osal_memset
   \   000075   7C15         MOV     R4,#0x15
   \   000077   7D00         MOV     R5,#0x0
   \   000079   7900         MOV     R1,#0x0
   \   00007B   85..82       MOV     DPL,?XSP + 0
   \   00007E   85..83       MOV     DPH,?XSP + 1
   \   000081   AA82         MOV     R2,DPL
   \   000083   AB83         MOV     R3,DPH
   \   000085   12....       LCALL   ??osal_memset?relay
   1646          
   1647            return ( ret );
   \   000088   EE           MOV     A,R6
   \   000089   F9           MOV     R1,A
   \   00008A   02....       LJMP    ?Subroutine4 & 0xFFFF
   1648          }
   1649          
   1650          /*********************************************************************
   1651           * @fn      ZDApp_ResetTimerStart
   1652           *
   1653           * @brief   Start the reset timer.
   1654           *
   1655           * @param   delay - delay time(ms) before reset
   1656           *
   1657           * @return  none
   1658           */

   \                                 In  segment BANKED_CODE, align 1, keep-with-next
   1659          void ZDApp_ResetTimerStart( uint16 delay )
   \                     ZDApp_ResetTimerStart:
   1660          {
   \   000000   C082         PUSH    DPL
   \   000002   C083         PUSH    DPH
   \   000004                ; Saved register size: 2
   \   000004                ; Auto size: 0
   1661            // Start the rest timer
   1662            osal_start_timerEx( ZDAppTaskID, ZDO_DEVICE_RESET, delay );
   \   000004                ; Setup parameters for call to function osal_start_timerEx
   \   000004   EA           MOV     A,R2
   \   000005   FC           MOV     R4,A
   \   000006   EB           MOV     A,R3
   \   000007   FD           MOV     R5,A
   \   000008   7A04         MOV     R2,#0x4
   \   00000A   12....       LCALL   ?Subroutine25 & 0xFFFF
   1663          }
   \                     ??CrossCallReturnLabel_86:
   \   00000D   02....       LJMP    ?Subroutine2 & 0xFFFF

   \                                 In  segment BANKED_CODE, align 1, keep-with-next
   \                     ?Subroutine25:
   \   000000   7B00         MOV     R3,#0x0
   \   000002   90....       MOV     DPTR,#ZDAppTaskID
   \   000005                REQUIRE ??Subroutine48_0
   \   000005                ; // Fall through to label ??Subroutine48_0
   1664          
   1665          /*********************************************************************
   1666           * @fn      ZDApp_ResetTimerCancel
   1667           *
   1668           * @brief   Cancel the reset timer.
   1669           *
   1670           * @param   none
   1671           *
   1672           * @return  none
   1673           */

   \                                 In  segment BANKED_CODE, align 1, keep-with-next
   1674          void ZDApp_ResetTimerCancel( void )
   \                     ZDApp_ResetTimerCancel:
   1675          {
   \   000000   C082         PUSH    DPL
   \   000002   C083         PUSH    DPH
   \   000004                ; Saved register size: 2
   \   000004                ; Auto size: 0
   1676            // Cancel the reset timer
   1677            osal_stop_timerEx( ZDAppTaskID, ZDO_DEVICE_RESET );
   \   000004                ; Setup parameters for call to function osal_stop_timerEx
   \   000004   7A04         MOV     R2,#0x4
   \   000006   7B00         MOV     R3,#0x0
   \   000008   90....       MOV     DPTR,#ZDAppTaskID
   \   00000B   E0           MOVX    A,@DPTR
   \   00000C   F9           MOV     R1,A
   \   00000D   12....       LCALL   ??osal_stop_timerEx?relay
   1678          }
   \   000010   02....       LJMP    ?Subroutine2 & 0xFFFF
   1679          
   1680          /*********************************************************************
   1681           * @fn      ZDApp_LeaveCtrlInit
   1682           *
   1683           * @brief   Initialize the leave control logic.
   1684           *
   1685           * @param   none
   1686           *
   1687           * @return  none
   1688           */

   \                                 In  segment BANKED_CODE, align 1, keep-with-next
   1689          void ZDApp_LeaveCtrlInit( void )
   \                     ZDApp_LeaveCtrlInit:
   1690          {
   \   000000   74F6         MOV     A,#-0xa
   \   000002   12....       LCALL   ?BANKED_ENTER_XDATA
   \   000005                ; Saved register size: 10
   \   000005                ; Auto size: 0
   1691            uint8 status;
   1692          
   1693          
   1694            // Initialize control state
   1695            ZDApp_LeaveCtrl = ZDAPP_LEAVE_CTRL_INIT;
   \   000005   90....       MOV     DPTR,#ZDApp_LeaveCtrl
   \   000008   E4           CLR     A
   \   000009   F0           MOVX    @DPTR,A
   1696          
   1697            status = osal_nv_item_init( ZCD_NV_LEAVE_CTRL,
   1698                                        sizeof(ZDApp_LeaveCtrl),
   1699                                        &ZDApp_LeaveCtrl );
   1700          
   1701            if ( status == ZSUCCESS )
   \   00000A                ; Setup parameters for call to function osal_nv_item_init
   \   00000A   75....       MOV     ?V0 + 0,#ZDApp_LeaveCtrl & 0xff
   \   00000D   75....       MOV     ?V0 + 1,#(ZDApp_LeaveCtrl >> 8) & 0xff
   \   000010   78..         MOV     R0,#?V0 + 0
   \   000012   12....       LCALL   ?PUSH_XSTACK_I_TWO
   \   000015   7C01         MOV     R4,#0x1
   \   000017   7D00         MOV     R5,#0x0
   \   000019   7A85         MOV     R2,#-0x7b
   \   00001B   7B00         MOV     R3,#0x0
   \   00001D   12....       LCALL   ??osal_nv_item_init?relay
   \   000020   7402         MOV     A,#0x2
   \   000022   12....       LCALL   ?DEALLOC_XSTACK8
   \   000025   E9           MOV     A,R1
   \   000026   701C         JNZ     ??ZDApp_LeaveCtrlInit_0
   1702            {
   1703              // Read saved control
   1704              osal_nv_read( ZCD_NV_LEAVE_CTRL,
   1705                            0,
   1706                            sizeof( uint8 ),
   1707                            &ZDApp_LeaveCtrl);
   \   000028                ; Setup parameters for call to function osal_nv_read
   \   000028   78..         MOV     R0,#?V0 + 0
   \   00002A   12....       LCALL   ?PUSH_XSTACK_I_TWO
   \   00002D   75..01       MOV     ?V0 + 0,#0x1
   \   000030   75..00       MOV     ?V0 + 1,#0x0
   \   000033   78..         MOV     R0,#?V0 + 0
   \   000035   12....       LCALL   ?PUSH_XSTACK_I_TWO
   \   000038   7C00         MOV     R4,#0x0
   \   00003A   7D00         MOV     R5,#0x0
   \   00003C   7A85         MOV     R2,#-0x7b
   \   00003E   12....       LCALL   ?Subroutine35 & 0xFFFF
   1708            }
   \                     ??CrossCallReturnLabel_49:
   \   000041   12....       LCALL   ?DEALLOC_XSTACK8
   1709          }
   \                     ??ZDApp_LeaveCtrlInit_0:
   \   000044   02....       LJMP    ??Subroutine51_0 & 0xFFFF
   1710          
   1711          /*********************************************************************
   1712           * @fn      ZDApp_LeaveCtrlSet
   1713           *
   1714           * @brief   Set the leave control logic.
   1715           *
   1716           * @param   ra - reassociate flag
   1717           *
   1718           * @return  none
   1719           */

   \                                 In  segment BANKED_CODE, align 1, keep-with-next
   1720          void ZDApp_LeaveCtrlSet( uint8 ra )
   \                     ZDApp_LeaveCtrlSet:
   1721          {
   \   000000   74F6         MOV     A,#-0xa
   \   000002   12....       LCALL   ?BANKED_ENTER_XDATA
   \   000005                ; Saved register size: 10
   \   000005                ; Auto size: 0
   \   000005   E9           MOV     A,R1
   \   000006   FE           MOV     R6,A
   1722            ZDApp_LeaveCtrl = ZDAPP_LEAVE_CTRL_SET;
   \   000007   90....       MOV     DPTR,#ZDApp_LeaveCtrl
   \   00000A   7401         MOV     A,#0x1
   \   00000C   F0           MOVX    @DPTR,A
   1723          
   1724            if ( ra == TRUE )
   \   00000D   6E           XRL     A,R6
   \   00000E   7003         JNZ     ??ZDApp_LeaveCtrlSet_0
   1725            {
   1726              ZDApp_LeaveCtrl |= ZDAPP_LEAVE_CTRL_RA;
   \   000010   7403         MOV     A,#0x3
   \   000012   F0           MOVX    @DPTR,A
   1727            }
   1728          
   1729            // Write the leave control
   1730            osal_nv_write( ZCD_NV_LEAVE_CTRL,
   1731                           0,
   1732                           sizeof( uint8 ),
   1733                           &ZDApp_LeaveCtrl);
   \                     ??ZDApp_LeaveCtrlSet_0:
   \   000013                ; Setup parameters for call to function osal_nv_write
   \   000013   02....       LJMP    ?Subroutine1 & 0xFFFF
   1734          }

   \                                 In  segment BANKED_CODE, align 1, keep-with-next
   \                     ?Subroutine1:
   \   000000   75....       MOV     ?V0 + 0,#ZDApp_LeaveCtrl & 0xff
   \   000003   75....       MOV     ?V0 + 1,#(ZDApp_LeaveCtrl >> 8) & 0xff
   \   000006   78..         MOV     R0,#?V0 + 0
   \   000008   12....       LCALL   ?PUSH_XSTACK_I_TWO
   \   00000B   75..01       MOV     ?V0 + 0,#0x1
   \   00000E   75..00       MOV     ?V0 + 1,#0x0
   \   000011   78..         MOV     R0,#?V0 + 0
   \   000013   12....       LCALL   ?PUSH_XSTACK_I_TWO
   \   000016   7C00         MOV     R4,#0x0
   \   000018   7D00         MOV     R5,#0x0
   \   00001A   7A85         MOV     R2,#-0x7b
   \   00001C   7B00         MOV     R3,#0x0
   \   00001E   12....       LCALL   ??osal_nv_write?relay
   \   000021   7404         MOV     A,#0x4
   \   000023                REQUIRE ??Subroutine50_0
   \   000023                ; // Fall through to label ??Subroutine50_0
   1735          
   1736          /*********************************************************************
   1737           * @fn      ZDApp_LeaveCtrlReset
   1738           *
   1739           * @brief   Re-initialize the leave control logic.
   1740           *
   1741           * @param   none
   1742           *
   1743           * @return  none
   1744           */

   \                                 In  segment BANKED_CODE, align 1, keep-with-next
   1745          void ZDApp_LeaveCtrlReset( void )
   \                     ZDApp_LeaveCtrlReset:
   1746          {
   \   000000   74F6         MOV     A,#-0xa
   \   000002   12....       LCALL   ?BANKED_ENTER_XDATA
   \   000005                ; Saved register size: 10
   \   000005                ; Auto size: 0
   1747            // Set leave control to initialized state
   1748            ZDApp_LeaveCtrl = ZDAPP_LEAVE_CTRL_INIT;
   \   000005   90....       MOV     DPTR,#ZDApp_LeaveCtrl
   \   000008   E4           CLR     A
   \   000009   F0           MOVX    @DPTR,A
   1749          
   1750            // Write initialized control
   1751            osal_nv_write( ZCD_NV_LEAVE_CTRL,
   1752                          0,
   1753                          sizeof( uint8 ),
   1754                          &ZDApp_LeaveCtrl);
   \   00000A                ; Setup parameters for call to function osal_nv_write
   \   00000A   02....       LJMP    ?Subroutine1 & 0xFFFF
   1755          }
   1756          
   1757          /*********************************************************************
   1758           * @fn      ZDApp_LeaveCtrlBypass
   1759           *
   1760           * @brief   Check if NV restore should be skipped during a leave reset.
   1761           *
   1762           * @param   none
   1763           *
   1764           * @return  uint8 - (TRUE bypass:FALSE do not bypass)
   1765           */

   \                                 In  segment BANKED_CODE, align 1, keep-with-next
   1766          uint8 ZDApp_LeaveCtrlBypass( void )
   \                     ZDApp_LeaveCtrlBypass:
   1767          {
   \   000000   C082         PUSH    DPL
   \   000002   C083         PUSH    DPH
   \   000004                ; Saved register size: 2
   \   000004                ; Auto size: 0
   1768            uint8 bypass;
   1769          
   1770            if ( ZDApp_LeaveCtrl & ZDAPP_LEAVE_CTRL_SET )
   1771            {
   1772              bypass = TRUE;
   1773            }
   1774            else
   1775            {
   1776              bypass = FALSE;
   1777            }
   1778          
   1779            return bypass;
   \   000004   90....       MOV     DPTR,#ZDApp_LeaveCtrl
   \   000007   E0           MOVX    A,@DPTR
   \   000008   A2E0         MOV     C,0xE0 /* A   */.0
   \   00000A   E4           CLR     A
   \   00000B   33           RLC     A
   \   00000C   F9           MOV     R1,A
   \   00000D   80..         SJMP    ?Subroutine2
   1780          }
   1781          
   1782          /*********************************************************************
   1783           * @fn      ZDApp_LeaveCtrlStartup
   1784           *
   1785           * @brief   Check for startup conditions during a leave reset.
   1786           *
   1787           * @param   state      - devState_t determined by leave control logic
   1788           * @param   startDelay - startup delay
   1789           *
   1790           * @return  none
   1791           */

   \                                 In  segment BANKED_CODE, align 1, keep-with-next
   1792          void ZDApp_LeaveCtrlStartup( devStates_t* state, uint16* startDelay )
   \                     ZDApp_LeaveCtrlStartup:
   1793          {
   \   000000   C082         PUSH    DPL
   \   000002   C083         PUSH    DPH
   \   000004                ; Saved register size: 2
   \   000004                ; Auto size: 0
   1794            *startDelay = 0;
   \   000004   8C82         MOV     DPL,R4
   \   000006   8D83         MOV     DPH,R5
   \   000008   E4           CLR     A
   \   000009   F0           MOVX    @DPTR,A
   \   00000A   A3           INC     DPTR
   \   00000B   F0           MOVX    @DPTR,A
   1795          
   1796            if ( ZDApp_LeaveCtrl & ZDAPP_LEAVE_CTRL_SET )
   \   00000C   90....       MOV     DPTR,#ZDApp_LeaveCtrl
   \   00000F   E0           MOVX    A,@DPTR
   \   000010   A2E0         MOV     C,0xE0 /* A   */.0
   \   000012   5019         JNC     ??ZDApp_LeaveCtrlStartup_0
   1797            {
   1798              if ( ZDApp_LeaveCtrl & ZDAPP_LEAVE_CTRL_RA )
   \   000014   A2E1         MOV     C,0xE0 /* A   */.1
   \   000016   500C         JNC     ??ZDApp_LeaveCtrlStartup_1
   1799              {
   1800                *startDelay = LEAVE_RESET_DELAY;
   \   000018   8C82         MOV     DPL,R4
   \   00001A   8D83         MOV     DPH,R5
   \   00001C   7488         MOV     A,#-0x78
   \   00001E   F0           MOVX    @DPTR,A
   \   00001F   A3           INC     DPTR
   \   000020   7413         MOV     A,#0x13
   \   000022   8005         SJMP    ??ZDApp_LeaveCtrlStartup_2
   1801              }
   1802              else
   1803              {
   1804                *state = DEV_HOLD;
   \                     ??ZDApp_LeaveCtrlStartup_1:
   \   000024   8A82         MOV     DPL,R2
   \   000026   8B83         MOV     DPH,R3
   \   000028   E4           CLR     A
   \                     ??ZDApp_LeaveCtrlStartup_2:
   \   000029   F0           MOVX    @DPTR,A
   1805              }
   1806          
   1807              // Reset leave control logic
   1808              ZDApp_LeaveCtrlReset();
   \   00002A                ; Setup parameters for call to function ZDApp_LeaveCtrlReset
   \   00002A   12....       LCALL   ??ZDApp_LeaveCtrlReset?relay
   1809            }
   1810          }
   \                     ??ZDApp_LeaveCtrlStartup_0:
   \   00002D                REQUIRE ?Subroutine2
   \   00002D                ; // Fall through to label ?Subroutine2
   1811          
   1812          /*********************************************************************
   1813           * @fn      ZDApp_LeaveReset
   1814           *
   1815           * @brief   Setup a device reset due to a leave indication/confirm.
   1816           *
   1817           * @param   ra - reassociate flag
   1818           *
   1819           * @return  none
   1820           */

   \                                 In  segment BANKED_CODE, align 1, keep-with-next
   1821          void ZDApp_LeaveReset( uint8 ra )
   \                     ZDApp_LeaveReset:
   1822          {
   \   000000   74F7         MOV     A,#-0x9
   \   000002   12....       LCALL   ?BANKED_ENTER_XDATA
   \   000005                ; Saved register size: 9
   \   000005                ; Auto size: 0
   1823            ZDApp_LeaveCtrlSet( ra );
   \   000005                ; Setup parameters for call to function ZDApp_LeaveCtrlSet
   \   000005   12....       LCALL   ??ZDApp_LeaveCtrlSet?relay
   1824          
   1825            ZDApp_ResetTimerStart( LEAVE_RESET_DELAY );
   \   000008                ; Setup parameters for call to function ZDApp_ResetTimerStart
   \   000008   7A88         MOV     R2,#-0x78
   \   00000A   7B13         MOV     R3,#0x13
   \   00000C   12....       LCALL   ??ZDApp_ResetTimerStart?relay
   1826          }
   \   00000F   80..         SJMP    ??Subroutine49_0
   1827          
   1828          /*********************************************************************
   1829           * @fn      ZDApp_LeaveUpdate
   1830           *
   1831           * @brief   Update local device data related to leaving device.
   1832           *
   1833           * @param   nwkAddr        - NWK address of leaving device
   1834           * @param   extAddr        - EXT address of leaving device
   1835           * @param   removeChildren - remove children of leaving device
   1836           *
   1837           * @return  none
   1838           */

   \                                 In  segment BANKED_CODE, align 1, keep-with-next
   1839          void ZDApp_LeaveUpdate( uint16 nwkAddr, uint8* extAddr,
   \                     ZDApp_LeaveUpdate:
   1840                                  uint8 removeChildren )
   1841          {
   \   000000   74F1         MOV     A,#-0xf
   \   000002   12....       LCALL   ?BANKED_ENTER_XDATA
   \   000005                ; Saved register size: 15
   \   000005                ; Auto size: 9
   \   000005   74F7         MOV     A,#-0x9
   \   000007   12....       LCALL   ?ALLOC_XSTACK8
   \   00000A   8A..         MOV     ?V0 + 0,R2
   \   00000C   8B..         MOV     ?V0 + 1,R3
   \   00000E   EC           MOV     A,R4
   \   00000F   FE           MOV     R6,A
   \   000010   ED           MOV     A,R5
   \   000011   FF           MOV     R7,A
   1842            // Remove Apps Key for leaving device
   1843            ZDSecMgrDeviceRemoveByExtAddr(extAddr);
   \   000012                ; Setup parameters for call to function ZDSecMgrDeviceRemoveByExtAddr
   \   000012   EE           MOV     A,R6
   \   000013   FA           MOV     R2,A
   \   000014   EF           MOV     A,R7
   \   000015   FB           MOV     R3,A
   \   000016   12....       LCALL   ??ZDSecMgrDeviceRemoveByExtAddr?relay
   1844          
   1845            // Clear SECURITY bit from Address Manager
   1846            ZDSecMgrAddrClear( extAddr );
   \   000019                ; Setup parameters for call to function ZDSecMgrAddrClear
   \   000019   EE           MOV     A,R6
   \   00001A   FA           MOV     R2,A
   \   00001B   EF           MOV     A,R7
   \   00001C   FB           MOV     R3,A
   \   00001D   12....       LCALL   ??ZDSecMgrAddrClear?relay
   1847          
   1848            if ( pbindRemoveDev )
   \   000020   90....       MOV     DPTR,#pbindRemoveDev
   \   000023   12....       LCALL   ?Subroutine16 & 0xFFFF
   \                     ??CrossCallReturnLabel_13:
   \   000026   603C         JZ      ??ZDApp_LeaveUpdate_0
   1849            {
   1850              zAddrType_t devAddr;
   1851          
   1852              // Remove bind entry and all related data
   1853              devAddr.addrMode = Addr64Bit;
   \   000028   7408         MOV     A,#0x8
   \   00002A   12....       LCALL   ?XSTACK_DISP0_8
   \   00002D   7403         MOV     A,#0x3
   \   00002F   F0           MOVX    @DPTR,A
   1854              osal_memcpy(devAddr.addr.extAddr, extAddr, Z_EXTADDR_LEN);
   \   000030                ; Setup parameters for call to function osal_memcpy
   \   000030   8E..         MOV     ?V0 + 4,R6
   \   000032   8F..         MOV     ?V0 + 5,R7
   \   000034   75..00       MOV     ?V0 + 6,#0x0
   \   000037   78..         MOV     R0,#?V0 + 4
   \   000039   12....       LCALL   ?PUSH_XSTACK_I_THREE
   \   00003C   7C08         MOV     R4,#0x8
   \   00003E   7D00         MOV     R5,#0x0
   \   000040   7403         MOV     A,#0x3
   \   000042   12....       LCALL   ?XSTACK_DISP0_8
   \   000045   AA82         MOV     R2,DPL
   \   000047   AB83         MOV     R3,DPH
   \   000049   12....       LCALL   ??osal_memcpy?relay
   \   00004C   7403         MOV     A,#0x3
   \   00004E   12....       LCALL   ?DEALLOC_XSTACK8
   1855          
   1856              pbindRemoveDev(&devAddr);
   \   000051                ; Setup parameters for indirect call
   \   000051   85..82       MOV     DPL,?XSP + 0
   \   000054   85..83       MOV     DPH,?XSP + 1
   \   000057   AA82         MOV     R2,DPL
   \   000059   AB83         MOV     R3,DPH
   \   00005B   90....       MOV     DPTR,#pbindRemoveDev
   \   00005E   12....       LCALL   ??Subroutine56_0 & 0xFFFF
   1857            }
   \                     ??CrossCallReturnLabel_100:
   \   000061   12....       LCALL   ?CALL_IND
   1858          
   1859            // Remove if child
   1860            if ( ZSTACK_ROUTER_BUILD )
   1861            {
   1862              NLME_RemoveChild( extAddr, removeChildren );
   1863            }
   1864          
   1865            // Remove Routing table related entry
   1866            RTG_RemoveRtgEntry( nwkAddr, 0 );
   \                     ??ZDApp_LeaveUpdate_0:
   \   000064                ; Setup parameters for call to function RTG_RemoveRtgEntry
   \   000064   7900         MOV     R1,#0x0
   \   000066   AA..         MOV     R2,?V0 + 0
   \   000068   AB..         MOV     R3,?V0 + 1
   \   00006A   12....       LCALL   ??RTG_RemoveRtgEntry?relay
   1867          
   1868            // Remove entry from neighborTable
   1869            nwkNeighborRemove( nwkAddr, _NIB.nwkPanId );
   \   00006D                ; Setup parameters for call to function nwkNeighborRemove
   \   00006D   90....       MOV     DPTR,#_NIB + 33
   \   000070   E0           MOVX    A,@DPTR
   \   000071   FC           MOV     R4,A
   \   000072   A3           INC     DPTR
   \   000073   E0           MOVX    A,@DPTR
   \   000074   FD           MOV     R5,A
   \   000075   AA..         MOV     R2,?V0 + 0
   \   000077   AB..         MOV     R3,?V0 + 1
   \   000079   12....       LCALL   ??nwkNeighborRemove?relay
   1870          
   1871            // Schedule to save data to NV
   1872            ZDApp_NwkWriteNVRequest();
   1873          }
   \   00007C   7409         MOV     A,#0x9
   \   00007E   12....       LCALL   ?DEALLOC_XSTACK8
   \   000081   7F07         MOV     R7,#0x7
   \   000083   02....       LJMP    ?BANKED_LEAVE_XDATA

   \                                 In  segment BANKED_CODE, align 1, keep-with-next
   \                     ??Subroutine56_0:
   \   000000   E0           MOVX    A,@DPTR
   \   000001   F8           MOV     R0,A
   \   000002   A3           INC     DPTR
   \   000003                REQUIRE ??Subroutine57_0
   \   000003                ; // Fall through to label ??Subroutine57_0

   \                                 In  segment BANKED_CODE, align 1, keep-with-next
   \                     ??Subroutine57_0:
   \   000000   E0           MOVX    A,@DPTR
   \   000001   F583         MOV     DPH,A
   \   000003   8882         MOV     DPL,R0
   \   000005   22           RET
   1874          
   1875          /*********************************************************************
   1876           * @fn      ZDApp_NetworkDiscoveryReq
   1877           *
   1878           * @brief   Request a network discovery.
   1879           *
   1880           * @param  scanChannels -
   1881           * @param  scanDuration -
   1882           *
   1883           * @return  ZStatus_t
   1884           */

   \                                 In  segment BANKED_CODE, align 1, keep-with-next
   1885          ZStatus_t ZDApp_NetworkDiscoveryReq( uint32 scanChannels, uint8 scanDuration)
   \                     ZDApp_NetworkDiscoveryReq:
   1886          {
   \   000000   74F4         MOV     A,#-0xc
   \   000002   12....       LCALL   ?BANKED_ENTER_XDATA
   \   000005                ; Saved register size: 12
   \   000005                ; Auto size: 0
   1887            // Setup optional filters - tbd
   1888            //自己加的***************************************************************
   1889          /*      NLME_SetPollRate(1000);
   1890                NLME_SetQueuedPollRate(100);
   1891                NLME_SetResponseRate(100);            
   1892                powf=0;
   1893                pf=100;*/
   1894            // Request NLME network discovery
   1895            return NLME_NetworkDiscoveryRequest(scanChannels, scanDuration);
   \   000005                ; Setup parameters for call to function NLME_NetworkDiscoveryRequest
   \   000005   12....       LCALL   ??NLME_NetworkDiscoveryRequest?relay
   \   000008   02....       LJMP    ??Subroutine46_0 & 0xFFFF
   1896          }
   1897          
   1898          /*********************************************************************
   1899           * @fn      ZDApp_JoinReq
   1900           *
   1901           * @brief   Request the device to join a parent in a network.
   1902           *
   1903           * @param   channel -
   1904           * @param   panID -
   1905           *
   1906           * @return  ZStatus_t
   1907           */

   \                                 In  segment BANKED_CODE, align 1, keep-with-next
   1908          ZStatus_t ZDApp_JoinReq( uint8 channel, uint16 panID, uint8 *extendedPanID,
   \                     ZDApp_JoinReq:
   1909                                   uint16 chosenParent, uint8 parentDepth, uint8 stackProfile )
   1910          {
   \   000000   74F2         MOV     A,#-0xe
   \   000002   12....       LCALL   ?BANKED_ENTER_XDATA
   \   000005                ; Saved register size: 14
   \   000005                ; Auto size: 0
   \   000005   89..         MOV     ?V0 + 4,R1
   \   000007   8A..         MOV     ?V0 + 0,R2
   \   000009   8B..         MOV     ?V0 + 1,R3
   \   00000B   EC           MOV     A,R4
   \   00000C   FE           MOV     R6,A
   \   00000D   ED           MOV     A,R5
   \   00000E   FF           MOV     R7,A
   \   00000F   740E         MOV     A,#0xe
   \   000011   12....       LCALL   ?XSTACK_DISP0_8
   \   000014   E0           MOVX    A,@DPTR
   \   000015   F5..         MOV     ?V0 + 2,A
   \   000017   A3           INC     DPTR
   \   000018   E0           MOVX    A,@DPTR
   \   000019   F5..         MOV     ?V0 + 3,A
   \   00001B   7410         MOV     A,#0x10
   \   00001D   12....       LCALL   ?XSTACK_DISP0_8
   \   000020   E0           MOVX    A,@DPTR
   \   000021   F5..         MOV     ?V0 + 5,A
   \   000023   7411         MOV     A,#0x11
   \   000025   12....       LCALL   ?XSTACK_DISP0_8
   \   000028   E0           MOVX    A,@DPTR
   \   000029   F9           MOV     R1,A
   1911            // Sync up the node with the stack profile (In the case where a pro device
   1912            // joins a non-pro network, or verse versa)
   1913            ZDApp_NodeProfileSync( stackProfile);
   \   00002A                ; Setup parameters for call to function ZDApp_NodeProfileSync
   \   00002A   12....       LCALL   ??ZDApp_NodeProfileSync?relay
   1914          
   1915            // Request NLME Join Request
   1916            return NLME_JoinRequest(extendedPanID, panID,channel,
   1917                                    ZDO_Config_Node_Descriptor.CapabilityFlags,
   1918                                    chosenParent, parentDepth);
   \   00002D                ; Setup parameters for call to function NLME_JoinRequest
   \   00002D   78..         MOV     R0,#?V0 + 5
   \   00002F   12....       LCALL   ?PUSH_XSTACK_I_ONE
   \   000032   78..         MOV     R0,#?V0 + 2
   \   000034   12....       LCALL   ?PUSH_XSTACK_I_TWO
   \   000037   90....       MOV     DPTR,#ZDO_Config_Node_Descriptor + 2
   \   00003A   E0           MOVX    A,@DPTR
   \   00003B   F5..         MOV     ?V0 + 2,A
   \   00003D   78..         MOV     R0,#?V0 + 2
   \   00003F   12....       LCALL   ?PUSH_XSTACK_I_ONE
   \   000042   A9..         MOV     R1,?V0 + 4
   \   000044   AC..         MOV     R4,?V0 + 0
   \   000046   AD..         MOV     R5,?V0 + 1
   \   000048   EE           MOV     A,R6
   \   000049   FA           MOV     R2,A
   \   00004A   EF           MOV     A,R7
   \   00004B   FB           MOV     R3,A
   \   00004C   12....       LCALL   ??NLME_JoinRequest?relay
   \   00004F   7404         MOV     A,#0x4
   \   000051   12....       LCALL   ?DEALLOC_XSTACK8
   \   000054                REQUIRE ?Subroutine5
   \   000054                ; // Fall through to label ?Subroutine5
   1919          
   1920          }

   \                                 In  segment BANKED_CODE, align 1, keep-with-next
   \                     ?Subroutine5:
   \   000000   7F06         MOV     R7,#0x6
   \   000002   02....       LJMP    ?BANKED_LEAVE_XDATA
   1921          
   1922          /*********************************************************************
   1923           * @fn      ZDApp_DeviceConfigured
   1924           *
   1925           * @brief   Check to see if the local device is configured (i.e., part
   1926           *          of a network).
   1927           *
   1928           * @param   none
   1929           *
   1930           * @return  TRUE if configured. FALSE, otherwise.
   1931           */

   \                                 In  segment BANKED_CODE, align 1, keep-with-next
   1932          uint8 ZDApp_DeviceConfigured( void )
   \                     ZDApp_DeviceConfigured:
   1933          {
   \   000000   74F6         MOV     A,#-0xa
   \   000002   12....       LCALL   ?BANKED_ENTER_XDATA
   \   000005                ; Saved register size: 10
   \   000005                ; Auto size: 2
   \   000005   74FE         MOV     A,#-0x2
   \   000007   12....       LCALL   ?ALLOC_XSTACK8
   1934            uint16 nwkAddr = INVALID_NODE_ADDR;
   \   00000A   85..82       MOV     DPL,?XSP + 0
   \   00000D   85..83       MOV     DPH,?XSP + 1
   \   000010   74FE         MOV     A,#-0x2
   \   000012   F0           MOVX    @DPTR,A
   \   000013   A3           INC     DPTR
   \   000014   04           INC     A
   \   000015   F0           MOVX    @DPTR,A
   1935          
   1936            osal_nv_read( ZCD_NV_NIB, osal_offsetof( nwkIB_t, nwkDevAddress ),
   1937                          sizeof( uint16), &nwkAddr );
   \   000016                ; Setup parameters for call to function osal_nv_read
   \   000016   85..82       MOV     DPL,?XSP + 0
   \   000019   85..83       MOV     DPH,?XSP + 1
   \   00001C   8582..       MOV     ?V0 + 0,DPL
   \   00001F   8583..       MOV     ?V0 + 1,DPH
   \   000022   78..         MOV     R0,#?V0 + 0
   \   000024   12....       LCALL   ?PUSH_XSTACK_I_TWO
   \   000027   75..02       MOV     ?V0 + 0,#0x2
   \   00002A   75..00       MOV     ?V0 + 1,#0x0
   \   00002D   78..         MOV     R0,#?V0 + 0
   \   00002F   12....       LCALL   ?PUSH_XSTACK_I_TWO
   \   000032   7C14         MOV     R4,#0x14
   \   000034   7D00         MOV     R5,#0x0
   \   000036   7A21         MOV     R2,#0x21
   \   000038   12....       LCALL   ?Subroutine35 & 0xFFFF
   \                     ??CrossCallReturnLabel_50:
   \   00003B   12....       LCALL   ?DEALLOC_XSTACK8
   1938          
   1939            // Does the NIB have anything more than default?
   1940            return ( nwkAddr == INVALID_NODE_ADDR ? FALSE : TRUE );
   \   00003E   85..82       MOV     DPL,?XSP + 0
   \   000041   85..83       MOV     DPH,?XSP + 1
   \   000044   E0           MOVX    A,@DPTR
   \   000045   64FE         XRL     A,#0xfe
   \   000047   7003         JNZ     ??ZDApp_DeviceConfigured_0
   \   000049   A3           INC     DPTR
   \   00004A   E0           MOVX    A,@DPTR
   \   00004B   F4           CPL     A
   \                     ??ZDApp_DeviceConfigured_0:
   \   00004C   7004         JNZ     ??ZDApp_DeviceConfigured_1
   \   00004E   7900         MOV     R1,#0x0
   \   000050   8002         SJMP    ??ZDApp_DeviceConfigured_2
   \                     ??ZDApp_DeviceConfigured_1:
   \   000052   7901         MOV     R1,#0x1
   \                     ??ZDApp_DeviceConfigured_2:
   \   000054   02....       LJMP    ?Subroutine7 & 0xFFFF
   1941          }
   1942          
   1943          /*********************************************************************
   1944           * CALLBACK FUNCTIONS
   1945           */
   1946          
   1947          
   1948          /*********************************************************************
   1949           * @fn      ZDApp_SendEventMsg()
   1950           *
   1951           * @brief
   1952           *
   1953           *   Sends a Network Join message
   1954           *
   1955           * @param  cmd - command ID
   1956           * @param  len - length (in bytes) of the buf field
   1957           * @param  buf - buffer for the rest of the message.
   1958           *
   1959           * @return  none
   1960           */

   \                                 In  segment BANKED_CODE, align 1, keep-with-next
   1961          void ZDApp_SendEventMsg( uint8 cmd, uint8 len, uint8 *buf )
   \                     ZDApp_SendEventMsg:
   1962          {
   \   000000   74F7         MOV     A,#-0x9
   \   000002   12....       LCALL   ?BANKED_ENTER_XDATA
   \   000005                ; Saved register size: 9
   \   000005                ; Auto size: 0
   \   000005   E9           MOV     A,R1
   \   000006   FE           MOV     R6,A
   \   000007   EA           MOV     A,R2
   1963            ZDApp_SendMsg( ZDAppTaskID, cmd, len, buf );
   \   000008                ; Setup parameters for call to function ZDApp_SendMsg
   \   000008   FB           MOV     R3,A
   \   000009   EE           MOV     A,R6
   \   00000A   FA           MOV     R2,A
   \   00000B   12....       LCALL   ?Subroutine23 & 0xFFFF
   1964          }
   \                     ??CrossCallReturnLabel_24:
   \   00000E   02....       LJMP    ??Subroutine49_0 & 0xFFFF

   \                                 In  segment BANKED_CODE, align 1, keep-with-next
   \                     ?Subroutine23:
   \   000000   90....       MOV     DPTR,#ZDAppTaskID
   \   000003   E0           MOVX    A,@DPTR
   \   000004   F9           MOV     R1,A
   \   000005   12....       LCALL   ??ZDApp_SendMsg?relay
   \   000008   22           RET
   1965          
   1966          /*********************************************************************
   1967           * @fn      ZDApp_SendMsg()
   1968           *
   1969           * @brief   Sends a OSAL message
   1970           *
   1971           * @param  taskID - Where to send the message
   1972           * @param  cmd - command ID
   1973           * @param  len - length (in bytes) of the buf field
   1974           * @param  buf - buffer for the rest of the message.
   1975           *
   1976           * @return  none
   1977           */

   \                                 In  segment BANKED_CODE, align 1, keep-with-next
   1978          void ZDApp_SendMsg( uint8 taskID, uint8 cmd, uint8 len, uint8 *buf )
   \                     ZDApp_SendMsg:
   1979          {
   \   000000   74F0         MOV     A,#-0x10
   \   000002   12....       LCALL   ?BANKED_ENTER_XDATA
   \   000005                ; Saved register size: 16
   \   000005                ; Auto size: 0
   \   000005   89..         MOV     ?V0 + 3,R1
   \   000007   8A..         MOV     ?V0 + 4,R2
   \   000009   8B..         MOV     ?V0 + 5,R3
   \   00000B   8C..         MOV     ?V0 + 0,R4
   \   00000D   8D..         MOV     ?V0 + 1,R5
   1980            osal_event_hdr_t *msgPtr;
   1981          
   1982            // Send the address to the task
   1983            msgPtr = (osal_event_hdr_t *)osal_msg_allocate( len );
   \   00000F                ; Setup parameters for call to function osal_msg_allocate
   \   00000F   8B..         MOV     ?V0 + 6,R3
   \   000011   AA..         MOV     R2,?V0 + 6
   \   000013   7B00         MOV     R3,#0x0
   \   000015   12....       LCALL   ??osal_msg_allocate?relay
   \   000018   8A..         MOV     ?V0 + 6,R2
   \   00001A   8B..         MOV     ?V0 + 7,R3
   \   00001C   AE..         MOV     R6,?V0 + 6
   \   00001E   AF..         MOV     R7,?V0 + 7
   1984            if ( msgPtr )
   \   000020   EE           MOV     A,R6
   \   000021   4F           ORL     A,R7
   \   000022   6031         JZ      ??ZDApp_SendMsg_0
   1985            {
   1986              if ( (len > 0) && (buf != NULL) )
   \   000024   E5..         MOV     A,?V0 + 5
   \   000026   601D         JZ      ??ZDApp_SendMsg_1
   \   000028   E5..         MOV     A,?V0 + 0
   \   00002A   45..         ORL     A,?V0 + 1
   \   00002C   6017         JZ      ??ZDApp_SendMsg_1
   1987                osal_memcpy( msgPtr, buf, len );
   \   00002E                ; Setup parameters for call to function osal_memcpy
   \   00002E   75..00       MOV     ?V0 + 2,#0x0
   \   000031   78..         MOV     R0,#?V0 + 0
   \   000033   12....       LCALL   ?PUSH_XSTACK_I_THREE
   \   000036   85....       MOV     ?V0 + 0,?V0 + 5
   \   000039   AC..         MOV     R4,?V0 + 0
   \   00003B   7D00         MOV     R5,#0x0
   \   00003D   12....       LCALL   ??osal_memcpy?relay
   \   000040   7403         MOV     A,#0x3
   \   000042   12....       LCALL   ?DEALLOC_XSTACK8
   1988          
   1989              msgPtr->event = cmd;
   \                     ??ZDApp_SendMsg_1:
   \   000045   8E82         MOV     DPL,R6
   \   000047   8F83         MOV     DPH,R7
   \   000049   E5..         MOV     A,?V0 + 4
   \   00004B   F0           MOVX    @DPTR,A
   1990              osal_msg_send( taskID, (uint8 *)msgPtr );
   \   00004C                ; Setup parameters for call to function osal_msg_send
   \   00004C   EE           MOV     A,R6
   \   00004D   FA           MOV     R2,A
   \   00004E   EF           MOV     A,R7
   \   00004F   FB           MOV     R3,A
   \   000050   A9..         MOV     R1,?V0 + 3
   \   000052   12....       LCALL   ??osal_msg_send?relay
   1991            }
   1992          }
   \                     ??ZDApp_SendMsg_0:
   \   000055   7F08         MOV     R7,#0x8
   \   000057   02....       LJMP    ?BANKED_LEAVE_XDATA
   1993          
   1994          /*********************************************************************
   1995           * Call Back Functions from NWK  - API
   1996           */
   1997          
   1998          /*********************************************************************
   1999           * @fn          ZDO_NetworkDiscoveryConfirmCB
   2000           *
   2001           * @brief       This function returns a choice of PAN to join.
   2002           *
   2003           * @param       status - return status of the nwk discovery confirm
   2004           *
   2005           * @return      ZStatus_t
   2006           */

   \                                 In  segment BANKED_CODE, align 1, keep-with-next
   2007          ZStatus_t ZDO_NetworkDiscoveryConfirmCB(uint8 status)
   \                     ZDO_NetworkDiscoveryConfirmCB:
   2008          {
   \   000000   C082         PUSH    DPL
   \   000002   C083         PUSH    DPH
   \   000004                ; Saved register size: 2
   \   000004                ; Auto size: 3
   \   000004   74FD         MOV     A,#-0x3
   \   000006   12....       LCALL   ?ALLOC_XSTACK8
   \   000009   E9           MOV     A,R1
   \   00000A   85..82       MOV     DPL,?XSP + 0
   \   00000D   85..83       MOV     DPH,?XSP + 1
   \   000010   F0           MOVX    @DPTR,A
   2009            osal_event_hdr_t msg;
   2010          
   2011            // If Scan is initiated by ZDO_MGMT_NWK_DISC_REQ
   2012            // Send ZDO_MGMT_NWK_DISC_RSP back
   2013          #if defined ( ZDO_MGMT_NWKDISC_RESPONSE )
   2014            if ( zdappMgmtNwkDiscReqInProgress )
   2015            {
   2016              zdappMgmtNwkDiscReqInProgress = false;
   2017              ZDO_FinishProcessingMgmtNwkDiscReq();
   2018            }
   2019            else
   2020          #endif
   2021            {
   2022              // Pass the confirm to another task if it registers the callback
   2023              // Otherwise, pass the confirm to ZDApp.
   2024              if (zdoCBFunc[ZDO_NWK_DISCOVERY_CNF_CBID] != NULL )
   \   000011   90....       MOV     DPTR,#zdoCBFunc + 4
   \   000014   12....       LCALL   ?Subroutine16 & 0xFFFF
   \                     ??CrossCallReturnLabel_14:
   \   000017   6015         JZ      ??ZDO_NetworkDiscoveryConfirmCB_0
   2025              {
   2026                zdoCBFunc[ZDO_NWK_DISCOVERY_CNF_CBID]( (void*)&status );
   \   000019                ; Setup parameters for indirect call
   \   000019   85..82       MOV     DPL,?XSP + 0
   \   00001C   85..83       MOV     DPH,?XSP + 1
   \   00001F   AA82         MOV     R2,DPL
   \   000021   AB83         MOV     R3,DPH
   \   000023   90....       MOV     DPTR,#zdoCBFunc + 5
   \   000026   12....       LCALL   ??Subroutine57_0 & 0xFFFF
   2027              }
   \                     ??CrossCallReturnLabel_94:
   \   000029   12....       LCALL   ?CALL_IND
   \   00002C   8016         SJMP    ??CrossCallReturnLabel_25
   2028              else
   2029              {
   2030                // Otherwise, send scan confirm to ZDApp task to proceed
   2031                msg.status = ZDO_SUCCESS;
   \                     ??ZDO_NetworkDiscoveryConfirmCB_0:
   \   00002E   7402         MOV     A,#0x2
   \   000030   12....       LCALL   ?XSTACK_DISP0_8
   \   000033   E4           CLR     A
   \   000034   F0           MOVX    @DPTR,A
   2032                ZDApp_SendMsg( ZDAppTaskID, ZDO_NWK_DISC_CNF, sizeof(osal_event_hdr_t), (uint8 *)&msg );
   \   000035                ; Setup parameters for call to function ZDApp_SendMsg
   \   000035   04           INC     A
   \   000036   12....       LCALL   ?XSTACK_DISP0_8
   \   000039   AC82         MOV     R4,DPL
   \   00003B   AD83         MOV     R5,DPH
   \   00003D   7B02         MOV     R3,#0x2
   \   00003F   7A01         MOV     R2,#0x1
   \   000041   12....       LCALL   ?Subroutine23 & 0xFFFF
   2033              }
   2034            }
   2035            return (ZSuccess);
   \                     ??CrossCallReturnLabel_25:
   \   000044   7900         MOV     R1,#0x0
   \   000046   7403         MOV     A,#0x3
   \   000048   12....       LCALL   ?DEALLOC_XSTACK8
   \   00004B   02....       LJMP    ?Subroutine2 & 0xFFFF
   2036          }  // ZDO_NetworkDiscoveryConfirmCB
   2037          
   2038          /*********************************************************************
   2039           * @fn          ZDApp_NwkDescListProcessing
   2040           *
   2041           * @brief       This function process the network discovery result and select
   2042           *              a parent device to join itself.
   2043           *
   2044           * @param       none
   2045           *
   2046           * @return      ZStatus_t
   2047           */
   2048          #define STACK_PROFILE_MAX 2

   \                                 In  segment BANKED_CODE, align 1, keep-with-next
   2049          networkDesc_t* ZDApp_NwkDescListProcessing(void)
   \                     ZDApp_NwkDescListProcessing:
   2050          {
   \   000000   74F2         MOV     A,#-0xe
   \   000002   12....       LCALL   ?BANKED_ENTER_XDATA
   \   000005                ; Saved register size: 14
   \   000005                ; Auto size: 0
   2051            networkDesc_t *pNwkDesc;
   2052            uint8 i, ResultCount = 0;
   \   000005   75..00       MOV     ?V0 + 0,#0x0
   2053            uint8 stackProfile;
   2054            uint8 stackProfilePro;
   2055            uint8 selected;
   2056          
   2057            // Count the number of nwk descriptors in the list
   2058            pNwkDesc = nwk_getNwkDescList();
   \   000008                ; Setup parameters for call to function nwk_getNwkDescList
   \   000008   12....       LCALL   ??nwk_getNwkDescList?relay
   \   00000B   8A..         MOV     ?V0 + 2,R2
   \   00000D   8B..         MOV     ?V0 + 3,R3
   \   00000F   AE..         MOV     R6,?V0 + 2
   \   000011   AF..         MOV     R7,?V0 + 3
   \   000013   8005         SJMP    ??CrossCallReturnLabel_91
   2059            while (pNwkDesc)
   2060            {
   2061              ResultCount++;
   \                     ??ZDApp_NwkDescListProcessing_0:
   \   000015   05..         INC     ?V0 + 0
   2062              pNwkDesc = pNwkDesc->nextDesc;
   \   000017   12....       LCALL   ?Subroutine21 & 0xFFFF
   2063            }
   \                     ??CrossCallReturnLabel_91:
   \   00001A   EE           MOV     A,R6
   \   00001B   4F           ORL     A,R7
   \   00001C   70F7         JNZ     ??ZDApp_NwkDescListProcessing_0
   2064          
   2065            // process discovery results
   2066            stackProfilePro = FALSE;
   \   00001E   75..00       MOV     ?V0 + 3,#0x0
   2067            selected = FALSE;
   2068          
   2069          
   2070            for ( stackProfile = 0; stackProfile < STACK_PROFILE_MAX; stackProfile++ )
   \   000021   75..00       MOV     ?V0 + 1,#0x0
   2071            {
   2072              pNwkDesc = nwk_getNwkDescList();
   \                     ??ZDApp_NwkDescListProcessing_1:
   \   000024                ; Setup parameters for call to function nwk_getNwkDescList
   \   000024   12....       LCALL   ??nwk_getNwkDescList?relay
   \   000027   8A..         MOV     ?V0 + 4,R2
   \   000029   8B..         MOV     ?V0 + 5,R3
   \   00002B   AE..         MOV     R6,?V0 + 4
   \   00002D   AF..         MOV     R7,?V0 + 5
   2073              for ( i = 0; i < ResultCount; i++, pNwkDesc = pNwkDesc->nextDesc )
   \   00002F   75..00       MOV     ?V0 + 2,#0x0
   \   000032   8023         SJMP    ??CrossCallReturnLabel_92
   2074              {
   2075                if ( zgConfigPANID != 0xFFFF )
   2076                {
   2077                  // PAN Id is preconfigured. check if it matches
   2078                  if ( pNwkDesc->panId != zgConfigPANID )
   2079                    continue;
   2080                }
   2081          
   2082                if ( nwk_ExtPANIDValid( ZDO_UseExtendedPANID) == true )
   2083                {
   2084                  // If the extended Pan ID is commissioned to a non zero value
   2085                  // Only join the Pan that has match EPID
   2086                  if ( osal_ExtAddrEqual( ZDO_UseExtendedPANID, pNwkDesc->extendedPANID) == false )
   2087                    continue;
   2088          
   2089                }
   2090          
   2091                // check that network is allowing joining
   2092                if ( ZSTACK_ROUTER_BUILD )
   2093                {
   2094                  if ( stackProfilePro == FALSE )
   2095                  {
   2096                    if ( !pNwkDesc->routerCapacity )
   2097                    {
   2098                      continue;
   2099                    }
   2100                  }
   2101                  else
   2102                  {
   2103                    if ( !pNwkDesc->deviceCapacity )
   2104                    {
   2105                      continue;
   2106                    }
   2107                  }
   2108                }
   2109                else if ( ZSTACK_END_DEVICE_BUILD )
   2110                {
   2111                  if ( !pNwkDesc->deviceCapacity )
   2112                  {
   2113                    continue;
   2114                  }
   2115                }
   2116          
   2117                // check version of zigbee protocol
   2118                if ( pNwkDesc->version != _NIB.nwkProtocolVersion )
   2119                  continue;
   2120          
   2121                // check version of stack profile
   2122                if ( pNwkDesc->stackProfile != zgStackProfile  )
   2123                {
   2124                  if ( ((zgStackProfile == HOME_CONTROLS) && (pNwkDesc->stackProfile == ZIGBEEPRO_PROFILE))
   2125                      || ((zgStackProfile == ZIGBEEPRO_PROFILE) && (pNwkDesc->stackProfile == HOME_CONTROLS))  )
   \                     ??ZDApp_NwkDescListProcessing_2:
   \   000034   E0           MOVX    A,@DPTR
   \   000035   6402         XRL     A,#0x2
   \   000037   7012         JNZ     ??ZDApp_NwkDescListProcessing_3
   \   000039   8E82         MOV     DPL,R6
   \   00003B   8F83         MOV     DPH,R7
   \   00003D   A3           INC     DPTR
   \   00003E   A3           INC     DPTR
   \   00003F   A3           INC     DPTR
   \   000040   A3           INC     DPTR
   \   000041   A3           INC     DPTR
   \   000042   A3           INC     DPTR
   \   000043   E0           MOVX    A,@DPTR
   \   000044   6401         XRL     A,#0x1
   \   000046   7003         JNZ     ??ZDApp_NwkDescListProcessing_3
   2126                  {
   2127                    stackProfilePro = TRUE;
   \                     ??ZDApp_NwkDescListProcessing_4:
   \   000048   75..01       MOV     ?V0 + 3,#0x1
   2128                  }
   2129          
   2130                  if ( stackProfile == 0 )
   \                     ??ZDApp_NwkDescListProcessing_3:
   \   00004B   E5..         MOV     A,?V0 + 1
   \   00004D   6003         JZ      $+5
   \   00004F   02....       LJMP    ??ZDApp_NwkDescListProcessing_5 & 0xFFFF
   \                     ??ZDApp_NwkDescListProcessing_6:
   \   000052   05..         INC     ?V0 + 2
   \   000054   12....       LCALL   ?Subroutine21 & 0xFFFF
   \                     ??CrossCallReturnLabel_92:
   \   000057   E5..         MOV     A,?V0 + 2
   \   000059   C3           CLR     C
   \   00005A   95..         SUBB    A,?V0 + 0
   \   00005C   4003         JC      $+5
   \   00005E   02....       LJMP    ??ZDApp_NwkDescListProcessing_7 & 0xFFFF
   \   000061   90....       MOV     DPTR,#zgConfigPANID
   \   000064   E0           MOVX    A,@DPTR
   \   000065   F4           CPL     A
   \   000066   7003         JNZ     ??ZDApp_NwkDescListProcessing_8
   \   000068   A3           INC     DPTR
   \   000069   E0           MOVX    A,@DPTR
   \   00006A   F4           CPL     A
   \                     ??ZDApp_NwkDescListProcessing_8:
   \   00006B   600F         JZ      ??ZDApp_NwkDescListProcessing_9
   \   00006D   12....       LCALL   ?Subroutine19 & 0xFFFF
   \                     ??CrossCallReturnLabel_79:
   \   000070   90....       MOV     DPTR,#zgConfigPANID
   \   000073   E0           MOVX    A,@DPTR
   \   000074   68           XRL     A,R0
   \   000075   7003         JNZ     ??ZDApp_NwkDescListProcessing_10
   \   000077   A3           INC     DPTR
   \   000078   E0           MOVX    A,@DPTR
   \   000079   69           XRL     A,R1
   \                     ??ZDApp_NwkDescListProcessing_10:
   \   00007A   70D6         JNZ     ??ZDApp_NwkDescListProcessing_6
   \                     ??ZDApp_NwkDescListProcessing_9:
   \   00007C                ; Setup parameters for call to function nwk_ExtPANIDValid
   \   00007C   7A..         MOV     R2,#ZDO_UseExtendedPANID & 0xff
   \   00007E   7B..         MOV     R3,#(ZDO_UseExtendedPANID >> 8) & 0xff
   \   000080   12....       LCALL   ??nwk_ExtPANIDValid?relay
   \   000083   E9           MOV     A,R1
   \   000084   6401         XRL     A,#0x1
   \   000086   7012         JNZ     ??ZDApp_NwkDescListProcessing_11
   \   000088                ; Setup parameters for call to function sAddrExtCmp
   \   000088   EE           MOV     A,R6
   \   000089   240B         ADD     A,#0xb
   \   00008B   FC           MOV     R4,A
   \   00008C   EF           MOV     A,R7
   \   00008D   3400         ADDC    A,#0x0
   \   00008F   FD           MOV     R5,A
   \   000090   7A..         MOV     R2,#ZDO_UseExtendedPANID & 0xff
   \   000092   7B..         MOV     R3,#(ZDO_UseExtendedPANID >> 8) & 0xff
   \   000094   12....       LCALL   ??sAddrExtCmp?relay
   \   000097   E9           MOV     A,R1
   \   000098   60B8         JZ      ??ZDApp_NwkDescListProcessing_6
   \                     ??ZDApp_NwkDescListProcessing_11:
   \   00009A   8E82         MOV     DPL,R6
   \   00009C   8F83         MOV     DPH,R7
   \   00009E   A3           INC     DPTR
   \   00009F   A3           INC     DPTR
   \   0000A0   A3           INC     DPTR
   \   0000A1   A3           INC     DPTR
   \   0000A2   E0           MOVX    A,@DPTR
   \   0000A3   60AD         JZ      ??ZDApp_NwkDescListProcessing_6
   \   0000A5   8E82         MOV     DPL,R6
   \   0000A7   8F83         MOV     DPH,R7
   \   0000A9   A3           INC     DPTR
   \   0000AA   A3           INC     DPTR
   \   0000AB   A3           INC     DPTR
   \   0000AC   A3           INC     DPTR
   \   0000AD   A3           INC     DPTR
   \   0000AE   E0           MOVX    A,@DPTR
   \   0000AF   F8           MOV     R0,A
   \   0000B0   90....       MOV     DPTR,#_NIB + 17
   \   0000B3   E0           MOVX    A,@DPTR
   \   0000B4   68           XRL     A,R0
   \   0000B5   709B         JNZ     ??ZDApp_NwkDescListProcessing_6
   \   0000B7   8E82         MOV     DPL,R6
   \   0000B9   8F83         MOV     DPH,R7
   \   0000BB   A3           INC     DPTR
   \   0000BC   A3           INC     DPTR
   \   0000BD   A3           INC     DPTR
   \   0000BE   A3           INC     DPTR
   \   0000BF   A3           INC     DPTR
   \   0000C0   A3           INC     DPTR
   \   0000C1   E0           MOVX    A,@DPTR
   \   0000C2   F8           MOV     R0,A
   \   0000C3   90....       MOV     DPTR,#zgStackProfile
   \   0000C6   E0           MOVX    A,@DPTR
   \   0000C7   68           XRL     A,R0
   \   0000C8   6039         JZ      ??ZDApp_NwkDescListProcessing_5
   \   0000CA   E0           MOVX    A,@DPTR
   \   0000CB   6401         XRL     A,#0x1
   \   0000CD   6003         JZ      $+5
   \   0000CF   02....       LJMP    ??ZDApp_NwkDescListProcessing_2 & 0xFFFF
   \   0000D2   8E82         MOV     DPL,R6
   \   0000D4   8F83         MOV     DPH,R7
   \   0000D6   A3           INC     DPTR
   \   0000D7   A3           INC     DPTR
   \   0000D8   A3           INC     DPTR
   \   0000D9   A3           INC     DPTR
   \   0000DA   A3           INC     DPTR
   \   0000DB   A3           INC     DPTR
   \   0000DC   E0           MOVX    A,@DPTR
   \   0000DD   6402         XRL     A,#0x2
   \   0000DF   6003         JZ      $+5
   \   0000E1   02....       LJMP    ??ZDApp_NwkDescListProcessing_3 & 0xFFFF
   \   0000E4   02....       LJMP    ??ZDApp_NwkDescListProcessing_4 & 0xFFFF
   2131                  {
   2132                    continue;
   2133                  }
   2134                }
   2135          
   2136                break;
   2137              }
   2138          
   2139              if (i < ResultCount)
   2140              {
   2141               selected = TRUE;
   2142                break;
   2143              }
   2144          
   2145              // break if selected or stack profile pro wasn't found
   2146              if ( (selected == TRUE) || (stackProfilePro == FALSE) )
   \                     ??ZDApp_NwkDescListProcessing_7:
   \   0000E7   E5..         MOV     A,?V0 + 3
   \   0000E9   600C         JZ      ??ZDApp_NwkDescListProcessing_12
   2147              {
   2148                break;
   2149              }
   2150            }
   \   0000EB   05..         INC     ?V0 + 1
   \   0000ED   E5..         MOV     A,?V0 + 1
   \   0000EF   C3           CLR     C
   \   0000F0   9402         SUBB    A,#0x2
   \   0000F2   5003         JNC     $+5
   \   0000F4   02....       LJMP    ??ZDApp_NwkDescListProcessing_1 & 0xFFFF
   2151          
   2152            if ( i == ResultCount )
   \                     ??ZDApp_NwkDescListProcessing_12:
   \   0000F7   E5..         MOV     A,?V0 + 0
   \   0000F9   65..         XRL     A,?V0 + 2
   \   0000FB   7006         JNZ     ??ZDApp_NwkDescListProcessing_5
   2153            {
   2154              return (NULL);   // couldn't find appropriate PAN to join !
   \   0000FD   7A00         MOV     R2,#0x0
   \   0000FF   7B00         MOV     R3,#0x0
   \   000101   8004         SJMP    ??ZDApp_NwkDescListProcessing_13
   2155            }
   2156            else
   2157            {
   2158              return (pNwkDesc);
   \                     ??ZDApp_NwkDescListProcessing_5:
   \   000103   EE           MOV     A,R6
   \   000104   FA           MOV     R2,A
   \   000105   EF           MOV     A,R7
   \   000106   FB           MOV     R3,A
   2159            }
   \                     ??ZDApp_NwkDescListProcessing_13:
   \   000107   02....       LJMP    ?Subroutine5 & 0xFFFF
   2160          }// ZDApp_NwkDescListProcessing()

   \                                 In  segment BANKED_CODE, align 1, keep-with-next
   \                     ?Subroutine21:
   \   000000   EE           MOV     A,R6
   \   000001   2414         ADD     A,#0x14
   \   000003   12....       LCALL   ??Subroutine53_0 & 0xFFFF
   \                     ??CrossCallReturnLabel_117:
   \   000006                REQUIRE ??Subroutine52_0
   \   000006                ; // Fall through to label ??Subroutine52_0

   \                                 In  segment BANKED_CODE, align 1, keep-with-next
   \                     ??Subroutine52_0:
   \   000000   E0           MOVX    A,@DPTR
   \   000001   FE           MOV     R6,A
   \   000002   A3           INC     DPTR
   \   000003   E0           MOVX    A,@DPTR
   \   000004   FF           MOV     R7,A
   \   000005   22           RET
   2161          
   2162          /*********************************************************************
   2163           * @fn          ZDO_NetworkFormationConfirmCB
   2164           *
   2165           * @brief       This function reports the results of the request to
   2166           *              initialize a coordinator in a network.
   2167           *
   2168           * @param       Status - Result of NLME_NetworkFormationRequest()
   2169           *
   2170           * @return      none
   2171           */

   \                                 In  segment BANKED_CODE, align 1, keep-with-next
   \                     ?Subroutine0:
   \   000000   12....       LCALL   ??Subroutine42_0 & 0xFFFF
   \                     ??CrossCallReturnLabel_69:
   \   000003                REQUIRE ??Subroutine49_0
   \   000003                ; // Fall through to label ??Subroutine49_0

   \                                 In  segment BANKED_CODE, align 1, keep-with-next
   2172          void ZDO_NetworkFormationConfirmCB( ZStatus_t Status )
   \                     ZDO_NetworkFormationConfirmCB:
   2173          {
   \   000000   74F7         MOV     A,#-0x9
   \   000002   12....       LCALL   ?BANKED_ENTER_XDATA
   \   000005                ; Saved register size: 9
   \   000005                ; Auto size: 0
   \   000005   E9           MOV     A,R1
   2174            nwkStatus = (byte)Status;
   \   000006   90....       MOV     DPTR,#nwkStatus
   \   000009   F0           MOVX    @DPTR,A
   2175          
   2176            if ( Status == ZSUCCESS )
   \   00000A   700A         JNZ     ??ZDO_NetworkFormationConfirmCB_0
   2177            {
   2178              // LED on shows Coordinator started
   2179              HalLedSet ( HAL_LED_3, HAL_LED_MODE_ON );
   \   00000C                ; Setup parameters for call to function HalLedSet
   \   00000C   12....       LCALL   ?Subroutine37 & 0xFFFF
   2180          
   2181              // LED off forgets HOLD_AUTO_START
   2182              HalLedSet (HAL_LED_4, HAL_LED_MODE_OFF);
   2183          
   2184          #if defined ( ZBIT )
   2185              SIM_SetColor(0xd0ffd0);
   2186          #endif
   2187          
   2188              if ( devState == DEV_HOLD )
   \                     ??CrossCallReturnLabel_54:
   \   00000F   700C         JNZ     ??ZDO_NetworkFormationConfirmCB_1
   2189              {
   2190                // Began with HOLD_AUTO_START
   2191                devState = DEV_COORD_STARTING;
   \   000011   7408         MOV     A,#0x8
   \   000013   F0           MOVX    @DPTR,A
   \   000014   8007         SJMP    ??ZDO_NetworkFormationConfirmCB_1
   2192              }
   2193            }
   2194          #if defined(BLINK_LEDS)
   2195            else
   2196            {
   2197              HalLedSet ( HAL_LED_3, HAL_LED_MODE_FLASH );  // Flash LED to show failure
   \                     ??ZDO_NetworkFormationConfirmCB_0:
   \   000016                ; Setup parameters for call to function HalLedSet
   \   000016   7A04         MOV     R2,#0x4
   \   000018   7904         MOV     R1,#0x4
   \   00001A   12....       LCALL   ??HalLedSet?relay
   2198            }
   2199          #endif
   2200          
   2201            osal_set_event( ZDAppTaskID, ZDO_NETWORK_START );
   \                     ??ZDO_NetworkFormationConfirmCB_1:
   \   00001D                ; Setup parameters for call to function osal_set_event
   \   00001D   7A02         MOV     R2,#0x2
   \   00001F   02....       LJMP    ?Subroutine0 & 0xFFFF
   2202          }

   \                                 In  segment BANKED_CODE, align 1, keep-with-next
   \                     ?Subroutine37:
   \   000000   7A01         MOV     R2,#0x1
   \   000002   7904         MOV     R1,#0x4
   \   000004   12....       LCALL   ??HalLedSet?relay
   \   000007                ; Setup parameters for call to function HalLedSet
   \   000007                ; Setup parameters for call to function HalLedSet
   \   000007                ; Setup parameters for call to function HalLedSet
   \   000007   7A00         MOV     R2,#0x0
   \   000009   7908         MOV     R1,#0x8
   \   00000B   12....       LCALL   ??HalLedSet?relay
   \   00000E   90....       MOV     DPTR,#devState
   \   000011   E0           MOVX    A,@DPTR
   \   000012   22           RET
   2203          
   2204          /****************************************************************************
   2205           * @fn          ZDApp_beaconIndProcessing
   2206           *
   2207           * @brief       This function processes the incoming beacon indication.
   2208           *
   2209           *              When another task (MT or App) is registered to process
   2210           *              beacon indication themselves, this function will parse the
   2211           *              beacon payload and pass the beacon descriptor to that task
   2212           *              If no other tasks registered, this function will process
   2213           *              the beacon payload and generate the network descriptor link
   2214           *              list.
   2215           *
   2216           * @param
   2217           *
   2218           * @return      none
   2219           *
   2220           */

   \                                 In  segment BANKED_CODE, align 1, keep-with-next
   2221          void ZDO_beaconNotifyIndCB( NLME_beaconInd_t *pBeacon )
   \                     ZDO_beaconNotifyIndCB:
   2222          {
   \   000000   74F2         MOV     A,#-0xe
   \   000002   12....       LCALL   ?BANKED_ENTER_XDATA
   \   000005                ; Saved register size: 14
   \   000005                ; Auto size: 0
   \   000005   8A..         MOV     ?V0 + 0,R2
   \   000007   8B..         MOV     ?V0 + 1,R3
   2223            // Pass the beacon Indication to another task if it registers the callback
   2224            // Otherwise, process the beacon notification here.
   2225            if (zdoCBFunc[ZDO_BEACON_NOTIFY_IND_CBID] != NULL )
   \   000009   90....       MOV     DPTR,#zdoCBFunc + 6
   \   00000C   12....       LCALL   ?Subroutine16 & 0xFFFF
   \                     ??CrossCallReturnLabel_15:
   \   00000F   6009         JZ      ??ZDO_beaconNotifyIndCB_0
   2226            {
   2227              zdoCBFunc[ZDO_BEACON_NOTIFY_IND_CBID]( (void*)pBeacon );
   \   000011                ; Setup parameters for indirect call
   \   000011   12....       LCALL   ??Subroutine57_0 & 0xFFFF
   2228            }
   \                     ??CrossCallReturnLabel_95:
   \   000014   12....       LCALL   ?CALL_IND
   \   000017   02....       LJMP    ??ZDO_beaconNotifyIndCB_1 & 0xFFFF
   2229            else
   2230            {
   2231              networkDesc_t *pNwkDesc;
   2232              networkDesc_t *pLastNwkDesc;
   2233              uint8 found = false;
   2234          
   2235              // Add the network to the Network Descriptor List
   2236              pNwkDesc = NwkDescList;
   \                     ??ZDO_beaconNotifyIndCB_0:
   \   00001A   90....       MOV     DPTR,#NwkDescList
   \   00001D   12....       LCALL   ??Subroutine52_0 & 0xFFFF
   2237              pLastNwkDesc = NwkDescList;
   \                     ??CrossCallReturnLabel_89:
   \   000020   90....       MOV     DPTR,#NwkDescList
   \   000023   E0           MOVX    A,@DPTR
   \   000024   F5..         MOV     ?V0 + 2,A
   \   000026   A3           INC     DPTR
   \   000027   E0           MOVX    A,@DPTR
   \   000028   F5..         MOV     ?V0 + 3,A
   \   00002A   802D         SJMP    ??CrossCallReturnLabel_93
   2238              while (pNwkDesc)
   2239              {
   2240                if ((pNwkDesc->panId == pBeacon->panID) &&
   2241                    (pNwkDesc->logicalChannel == pBeacon->logicalChannel))
   \                     ??ZDO_beaconNotifyIndCB_2:
   \   00002C   12....       LCALL   ?Subroutine19 & 0xFFFF
   \                     ??CrossCallReturnLabel_80:
   \   00002F   8A82         MOV     DPL,R2
   \   000031   8B83         MOV     DPH,R3
   \   000033   A3           INC     DPTR
   \   000034   A3           INC     DPTR
   \   000035   E0           MOVX    A,@DPTR
   \   000036   68           XRL     A,R0
   \   000037   7003         JNZ     ??ZDO_beaconNotifyIndCB_3
   \   000039   A3           INC     DPTR
   \   00003A   E0           MOVX    A,@DPTR
   \   00003B   69           XRL     A,R1
   \                     ??ZDO_beaconNotifyIndCB_3:
   \   00003C   7014         JNZ     ??ZDO_beaconNotifyIndCB_4
   \   00003E   8E82         MOV     DPL,R6
   \   000040   8F83         MOV     DPH,R7
   \   000042   A3           INC     DPTR
   \   000043   A3           INC     DPTR
   \   000044   E0           MOVX    A,@DPTR
   \   000045   F8           MOV     R0,A
   \   000046   8A82         MOV     DPL,R2
   \   000048   8B83         MOV     DPH,R3
   \   00004A   A3           INC     DPTR
   \   00004B   A3           INC     DPTR
   \   00004C   A3           INC     DPTR
   \   00004D   A3           INC     DPTR
   \   00004E   E0           MOVX    A,@DPTR
   \   00004F   68           XRL     A,R0
   \   000050   605F         JZ      ??ZDO_beaconNotifyIndCB_5
   2242                {
   2243                  found = true;
   2244                  break;
   2245                }
   2246                pLastNwkDesc = pNwkDesc;
   \                     ??ZDO_beaconNotifyIndCB_4:
   \   000052   8E..         MOV     ?V0 + 2,R6
   \   000054   8F..         MOV     ?V0 + 3,R7
   2247                pNwkDesc = pNwkDesc->nextDesc;
   \   000056   12....       LCALL   ?Subroutine21 & 0xFFFF
   2248              }
   \                     ??CrossCallReturnLabel_93:
   \   000059   EE           MOV     A,R6
   \   00005A   4F           ORL     A,R7
   \   00005B   70CF         JNZ     ??ZDO_beaconNotifyIndCB_2
   2249          
   2250              // If no existing descriptor found, make a new one and add to the list
   2251              if (found == false)
   2252              {
   2253                pNwkDesc = osal_mem_alloc( sizeof(networkDesc_t)  );
   \   00005D                ; Setup parameters for call to function osal_mem_alloc
   \   00005D   7A16         MOV     R2,#0x16
   \   00005F   7B00         MOV     R3,#0x0
   \   000061   12....       LCALL   ??osal_mem_alloc?relay
   \   000064   8A..         MOV     ?V0 + 4,R2
   \   000066   8B..         MOV     ?V0 + 5,R3
   \   000068   AE..         MOV     R6,?V0 + 4
   \   00006A   AF..         MOV     R7,?V0 + 5
   2254                if ( !pNwkDesc )
   \   00006C   EE           MOV     A,R6
   \   00006D   4F           ORL     A,R7
   \   00006E   7003         JNZ     $+5
   \   000070   02....       LJMP    ??ZDO_beaconNotifyIndCB_1 & 0xFFFF
   2255                {
   2256                  // Memory alloc failed, discard this beacon
   2257                  return;
   2258                }
   2259          
   2260                // Clear the network descriptor
   2261                osal_memset( pNwkDesc, 0, sizeof(networkDesc_t)  );
   \   000073                ; Setup parameters for call to function osal_memset
   \   000073   7C16         MOV     R4,#0x16
   \   000075   7D00         MOV     R5,#0x0
   \   000077   7900         MOV     R1,#0x0
   \   000079   12....       LCALL   ??osal_memset?relay
   2262          
   2263                // Initialize the descriptor
   2264                pNwkDesc->chosenRouter = INVALID_NODE_ADDR;
   \   00007C   8E82         MOV     DPL,R6
   \   00007E   8F83         MOV     DPH,R7
   \   000080   A3           INC     DPTR
   \   000081   A3           INC     DPTR
   \   000082   A3           INC     DPTR
   \   000083   A3           INC     DPTR
   \   000084   A3           INC     DPTR
   \   000085   A3           INC     DPTR
   \   000086   A3           INC     DPTR
   \   000087   74FE         MOV     A,#-0x2
   \   000089   F0           MOVX    @DPTR,A
   \   00008A   A3           INC     DPTR
   \   00008B   04           INC     A
   \   00008C   12....       LCALL   ?Subroutine12 & 0xFFFF
   2265                pNwkDesc->chosenRouterDepth = 0xFF;
   \                     ??CrossCallReturnLabel_7:
   \   00008F   A3           INC     DPTR
   \   000090   A3           INC     DPTR
   \   000091   A3           INC     DPTR
   \   000092   A3           INC     DPTR
   \   000093   F0           MOVX    @DPTR,A
   2266          
   2267                // Save new entry into the descriptor list
   2268                if ( !NwkDescList )
   \   000094   90....       MOV     DPTR,#NwkDescList
   \   000097   12....       LCALL   ?Subroutine16 & 0xFFFF
   \                     ??CrossCallReturnLabel_16:
   \   00009A   7005         JNZ     ??ZDO_beaconNotifyIndCB_6
   2269                {
   2270                  NwkDescList = pNwkDesc;
   \   00009C   90....       MOV     DPTR,#NwkDescList
   \   00009F   800B         SJMP    ??CrossCallReturnLabel_114
   2271                }
   2272                else
   2273                {
   2274                  pLastNwkDesc->nextDesc = pNwkDesc;
   \                     ??ZDO_beaconNotifyIndCB_6:
   \   0000A1   E5..         MOV     A,?V0 + 2
   \   0000A3   2414         ADD     A,#0x14
   \   0000A5   F582         MOV     DPL,A
   \   0000A7   E5..         MOV     A,?V0 + 3
   \   0000A9   12....       LCALL   ??Subroutine54_0 & 0xFFFF
   2275                }
   2276              }
   \                     ??CrossCallReturnLabel_114:
   \   0000AC   EE           MOV     A,R6
   \   0000AD   F0           MOVX    @DPTR,A
   \   0000AE   A3           INC     DPTR
   \   0000AF   EF           MOV     A,R7
   \   0000B0   F0           MOVX    @DPTR,A
   2277          
   2278              // Update the descriptor with the incoming beacon
   2279              pNwkDesc->stackProfile   = pBeacon->stackProfile;
   \                     ??ZDO_beaconNotifyIndCB_5:
   \   0000B1   85..82       MOV     DPL,?V0 + 0
   \   0000B4   85..83       MOV     DPH,?V0 + 1
   \   0000B7   A3           INC     DPTR
   \   0000B8   A3           INC     DPTR
   \   0000B9   A3           INC     DPTR
   \   0000BA   A3           INC     DPTR
   \   0000BB   A3           INC     DPTR
   \   0000BC   A3           INC     DPTR
   \   0000BD   A3           INC     DPTR
   \   0000BE   A3           INC     DPTR
   \   0000BF   A3           INC     DPTR
   \   0000C0   12....       LCALL   ?Subroutine26 & 0xFFFF
   \                     ??CrossCallReturnLabel_32:
   \   0000C3   A3           INC     DPTR
   \   0000C4   A3           INC     DPTR
   \   0000C5   A3           INC     DPTR
   \   0000C6   F0           MOVX    @DPTR,A
   2280              pNwkDesc->version        = pBeacon->protocolVersion;
   \   0000C7   E5..         MOV     A,?V0 + 0
   \   0000C9   2408         ADD     A,#0x8
   \   0000CB   F8           MOV     R0,A
   \   0000CC   E5..         MOV     A,?V0 + 1
   \   0000CE   3400         ADDC    A,#0x0
   \   0000D0   F9           MOV     R1,A
   \   0000D1   8882         MOV     DPL,R0
   \   0000D3   8983         MOV     DPH,R1
   \   0000D5   12....       LCALL   ?Subroutine26 & 0xFFFF
   \                     ??CrossCallReturnLabel_33:
   \   0000D8   12....       LCALL   ?Subroutine15 & 0xFFFF
   2281              pNwkDesc->logicalChannel = pBeacon->logicalChannel;
   \                     ??CrossCallReturnLabel_10:
   \   0000DB   A3           INC     DPTR
   \   0000DC   A3           INC     DPTR
   \   0000DD   E0           MOVX    A,@DPTR
   \   0000DE   8E82         MOV     DPL,R6
   \   0000E0   8F83         MOV     DPH,R7
   \   0000E2   12....       LCALL   ?Subroutine15 & 0xFFFF
   2282              pNwkDesc->panId          = pBeacon->panID;
   \                     ??CrossCallReturnLabel_11:
   \   0000E5   12....       LCALL   ?Subroutine24 & 0xFFFF
   \                     ??CrossCallReturnLabel_30:
   \   0000E8   8E82         MOV     DPL,R6
   \   0000EA   8F83         MOV     DPH,R7
   \   0000EC   12....       LCALL   ??Subroutine60_0 & 0xFFFF
   2283              pNwkDesc->updateId       = pBeacon->updateID;
   \                     ??CrossCallReturnLabel_125:
   \   0000EF   E5..         MOV     A,?V0 + 0
   \   0000F1   240C         ADD     A,#0xc
   \   0000F3   F582         MOV     DPL,A
   \   0000F5   E5..         MOV     A,?V0 + 1
   \   0000F7   12....       LCALL   ??Subroutine59_0 & 0xFFFF
   \                     ??CrossCallReturnLabel_105:
   \   0000FA   C0E0         PUSH    A
   \   0000FC   EE           MOV     A,R6
   \   0000FD   2413         ADD     A,#0x13
   \   0000FF   12....       LCALL   ??Subroutine53_0 & 0xFFFF
   \                     ??CrossCallReturnLabel_116:
   \   000102   D0E0         POP     A
   \   000104   F0           MOVX    @DPTR,A
   2284          
   2285              // Save the extended PAN ID from the beacon payload only if 1.1 version network
   2286              if ( pBeacon->protocolVersion != ZB_PROT_V1_0 )
   \   000105   8882         MOV     DPL,R0
   \   000107   8983         MOV     DPH,R1
   \   000109   E0           MOVX    A,@DPTR
   \   00010A   6401         XRL     A,#0x1
   \   00010C   6011         JZ      ??ZDO_beaconNotifyIndCB_7
   2287              {
   2288                osal_cpyExtAddr( pNwkDesc->extendedPANID, pBeacon->extendedPanID );
   \   00010E                ; Setup parameters for call to function sAddrExtCpy
   \   00010E   E5..         MOV     A,?V0 + 0
   \   000110   240D         ADD     A,#0xd
   \   000112   FC           MOV     R4,A
   \   000113   E5..         MOV     A,?V0 + 1
   \   000115   3400         ADDC    A,#0x0
   \   000117   12....       LCALL   ?Subroutine34 & 0xFFFF
   2289              }
   \                     ??CrossCallReturnLabel_73:
   \   00011A   12....       LCALL   ??sAddrExtCpy?relay
   \   00011D   800C         SJMP    ??ZDO_beaconNotifyIndCB_8
   2290              else
   2291              {
   2292                osal_memset( pNwkDesc->extendedPANID, 0xFF, Z_EXTADDR_LEN );
   \                     ??ZDO_beaconNotifyIndCB_7:
   \   00011F                ; Setup parameters for call to function osal_memset
   \   00011F   7C08         MOV     R4,#0x8
   \   000121   7D00         MOV     R5,#0x0
   \   000123   79FF         MOV     R1,#-0x1
   \   000125   12....       LCALL   ??Subroutine43_0 & 0xFFFF
   2293              }
   \                     ??CrossCallReturnLabel_71:
   \   000128   12....       LCALL   ??osal_memset?relay
   2294          
   2295              // check if this device is a better choice to join...
   2296              // ...dont bother checking assocPermit flag is doing a rejoin
   2297              if ( ( pBeacon->LQI > gMIN_TREE_LINK_COST ) &&
   2298                  ( ( pBeacon->permitJoining == TRUE ) || ( _tmpRejoinState ) ) )
   \                     ??ZDO_beaconNotifyIndCB_8:
   \   00012B   85..82       MOV     DPL,?V0 + 0
   \   00012E   85..83       MOV     DPH,?V0 + 1
   \   000131   A3           INC     DPTR
   \   000132   A3           INC     DPTR
   \   000133   A3           INC     DPTR
   \   000134   A3           INC     DPTR
   \   000135   A3           INC     DPTR
   \   000136   A3           INC     DPTR
   \   000137   A3           INC     DPTR
   \   000138   A3           INC     DPTR
   \   000139   A3           INC     DPTR
   \   00013A   A3           INC     DPTR
   \   00013B   E0           MOVX    A,@DPTR
   \   00013C   F8           MOV     R0,A
   \   00013D   90....       MOV     DPTR,#gMIN_TREE_LINK_COST
   \   000140   E0           MOVX    A,@DPTR
   \   000141   C3           CLR     C
   \   000142   98           SUBB    A,R0
   \   000143   4003         JC      $+5
   \   000145   02....       LJMP    ??ZDO_beaconNotifyIndCB_1 & 0xFFFF
   \   000148   85..82       MOV     DPL,?V0 + 0
   \   00014B   85..83       MOV     DPH,?V0 + 1
   \   00014E   A3           INC     DPTR
   \   00014F   A3           INC     DPTR
   \   000150   A3           INC     DPTR
   \   000151   A3           INC     DPTR
   \   000152   A3           INC     DPTR
   \   000153   E0           MOVX    A,@DPTR
   \   000154   6401         XRL     A,#0x1
   \   000156   6009         JZ      ??ZDO_beaconNotifyIndCB_9
   \   000158   90....       MOV     DPTR,#_tmpRejoinState
   \   00015B   E0           MOVX    A,@DPTR
   \   00015C   7003         JNZ     $+5
   \   00015E   02....       LJMP    ??ZDO_beaconNotifyIndCB_1 & 0xFFFF
   2299              {
   2300                uint8 selected = FALSE;
   \                     ??ZDO_beaconNotifyIndCB_9:
   \   000161   7900         MOV     R1,#0x0
   2301                uint8 capacity = FALSE;
   2302          
   2303                if ( _NIB.nwkAddrAlloc == NWK_ADDRESSING_STOCHASTIC )
   \   000163   90....       MOV     DPTR,#_NIB + 96
   \   000166   E0           MOVX    A,@DPTR
   \   000167   6402         XRL     A,#0x2
   \   000169   702D         JNZ     ??ZDO_beaconNotifyIndCB_10
   2304                {
   2305                  if ( ((pBeacon->LQI   > pNwkDesc->chosenRouterLinkQuality) &&
   2306                        (pBeacon->depth < MAX_NODE_DEPTH)) ||
   2307                      ((pBeacon->LQI   == pNwkDesc->chosenRouterLinkQuality) &&
   2308                       (pBeacon->depth < pNwkDesc->chosenRouterDepth)) )
   \   00016B   8E82         MOV     DPL,R6
   \   00016D   8F83         MOV     DPH,R7
   \   00016F   A3           INC     DPTR
   \   000170   A3           INC     DPTR
   \   000171   A3           INC     DPTR
   \   000172   A3           INC     DPTR
   \   000173   A3           INC     DPTR
   \   000174   A3           INC     DPTR
   \   000175   A3           INC     DPTR
   \   000176   A3           INC     DPTR
   \   000177   A3           INC     DPTR
   \   000178   E0           MOVX    A,@DPTR
   \   000179   C3           CLR     C
   \   00017A   98           SUBB    A,R0
   \   00017B   500A         JNC     ??ZDO_beaconNotifyIndCB_11
   \   00017D   12....       LCALL   ?Subroutine36 & 0xFFFF
   \                     ??CrossCallReturnLabel_51:
   \   000180   12....       LCALL   ??Subroutine59_0 & 0xFFFF
   \                     ??CrossCallReturnLabel_106:
   \   000183   602D         JZ      ??ZDO_beaconNotifyIndCB_12
   \   000185   802C         SJMP    ??ZDO_beaconNotifyIndCB_13
   \                     ??ZDO_beaconNotifyIndCB_11:
   \   000187   8E82         MOV     DPL,R6
   \   000189   8F83         MOV     DPH,R7
   \   00018B   A3           INC     DPTR
   \   00018C   A3           INC     DPTR
   \   00018D   A3           INC     DPTR
   \   00018E   A3           INC     DPTR
   \   00018F   A3           INC     DPTR
   \   000190   A3           INC     DPTR
   \   000191   A3           INC     DPTR
   \   000192   A3           INC     DPTR
   \   000193   A3           INC     DPTR
   \   000194   E0           MOVX    A,@DPTR
   \   000195   68           XRL     A,R0
   \   000196   701B         JNZ     ??ZDO_beaconNotifyIndCB_13
   \                     ??ZDO_beaconNotifyIndCB_10:
   \   000198   8E82         MOV     DPL,R6
   \   00019A   8F83         MOV     DPH,R7
   \   00019C   A3           INC     DPTR
   \   00019D   A3           INC     DPTR
   \   00019E   A3           INC     DPTR
   \   00019F   A3           INC     DPTR
   \   0001A0   A3           INC     DPTR
   \   0001A1   A3           INC     DPTR
   \   0001A2   A3           INC     DPTR
   \   0001A3   A3           INC     DPTR
   \   0001A4   A3           INC     DPTR
   \   0001A5   A3           INC     DPTR
   \   0001A6   E0           MOVX    A,@DPTR
   \   0001A7   F8           MOV     R0,A
   \   0001A8   12....       LCALL   ?Subroutine36 & 0xFFFF
   \                     ??CrossCallReturnLabel_52:
   \   0001AB   12....       LCALL   ??Subroutine59_0 & 0xFFFF
   \                     ??CrossCallReturnLabel_107:
   \   0001AE   C3           CLR     C
   \   0001AF   98           SUBB    A,R0
   \   0001B0   5001         JNC     ??ZDO_beaconNotifyIndCB_13
   2309                  {
   2310                    selected = TRUE;
   \                     ??ZDO_beaconNotifyIndCB_12:
   \   0001B2   09           INC     R1
   2311                  }
   2312                }
   2313                else
   2314                {
   2315                  if ( pBeacon->depth < pNwkDesc->chosenRouterDepth )
   2316                  {
   2317                    selected = TRUE;
   2318                  }
   2319                }
   2320          
   2321                if ( ZSTACK_ROUTER_BUILD )
   2322                {
   2323                  capacity = pBeacon->routerCapacity;
   2324                }
   2325                else if ( ZSTACK_END_DEVICE_BUILD )
   2326                {
   2327                  capacity = pBeacon->deviceCapacity;
   2328                }
   2329          
   2330                if ( (capacity) && (selected) )
   \                     ??ZDO_beaconNotifyIndCB_13:
   \   0001B3   85..82       MOV     DPL,?V0 + 0
   \   0001B6   85..83       MOV     DPH,?V0 + 1
   \   0001B9   A3           INC     DPTR
   \   0001BA   A3           INC     DPTR
   \   0001BB   A3           INC     DPTR
   \   0001BC   A3           INC     DPTR
   \   0001BD   A3           INC     DPTR
   \   0001BE   A3           INC     DPTR
   \   0001BF   A3           INC     DPTR
   \   0001C0   E0           MOVX    A,@DPTR
   \   0001C1   6042         JZ      ??ZDO_beaconNotifyIndCB_14
   \   0001C3   E9           MOV     A,R1
   \   0001C4   A2E0         MOV     C,0xE0 /* A   */.0
   \   0001C6   5032         JNC     ??ZDO_beaconNotifyIndCB_15
   2331                {
   2332                  // this is the new chosen router for joining...
   2333                  pNwkDesc->chosenRouter            = pBeacon->sourceAddr;
   \   0001C8   85..82       MOV     DPL,?V0 + 0
   \   0001CB   85..83       MOV     DPH,?V0 + 1
   \   0001CE   12....       LCALL   ??Subroutine44_0 & 0xFFFF
   \                     ??CrossCallReturnLabel_75:
   \   0001D1   8E82         MOV     DPL,R6
   \   0001D3   8F83         MOV     DPH,R7
   \   0001D5   A3           INC     DPTR
   \   0001D6   A3           INC     DPTR
   \   0001D7   A3           INC     DPTR
   \   0001D8   A3           INC     DPTR
   \   0001D9   A3           INC     DPTR
   \   0001DA   A3           INC     DPTR
   \   0001DB   A3           INC     DPTR
   \   0001DC   E8           MOV     A,R0
   \   0001DD   F0           MOVX    @DPTR,A
   \   0001DE   A3           INC     DPTR
   \   0001DF   E9           MOV     A,R1
   \   0001E0   12....       LCALL   ?Subroutine10 & 0xFFFF
   2334                  pNwkDesc->chosenRouterLinkQuality = pBeacon->LQI;
   \                     ??CrossCallReturnLabel_2:
   \   0001E3   A3           INC     DPTR
   \   0001E4   A3           INC     DPTR
   \   0001E5   A3           INC     DPTR
   \   0001E6   12....       LCALL   ?Subroutine20 & 0xFFFF
   \                     ??CrossCallReturnLabel_22:
   \   0001E9   F0           MOVX    @DPTR,A
   2335                  pNwkDesc->chosenRouterDepth       = pBeacon->depth;
   \   0001EA   12....       LCALL   ?Subroutine36 & 0xFFFF
   2336                }
   \                     ??CrossCallReturnLabel_53:
   \   0001ED   12....       LCALL   ??Subroutine54_0 & 0xFFFF
   \                     ??CrossCallReturnLabel_115:
   \   0001F0   12....       LCALL   ?Subroutine20 & 0xFFFF
   \                     ??CrossCallReturnLabel_23:
   \   0001F3   A3           INC     DPTR
   \   0001F4   12....       LCALL   ?Subroutine10 & 0xFFFF
   2337          
   2338                if ( pBeacon->deviceCapacity )
   \                     ??CrossCallReturnLabel_3:
   \   0001F7   E0           MOVX    A,@DPTR
   \   0001F8   600B         JZ      ??ZDO_beaconNotifyIndCB_14
   2339                  pNwkDesc->deviceCapacity = 1;
   \                     ??ZDO_beaconNotifyIndCB_15:
   \   0001FA   8E82         MOV     DPL,R6
   \   0001FC   8F83         MOV     DPH,R7
   \   0001FE   A3           INC     DPTR
   \   0001FF   A3           INC     DPTR
   \   000200   A3           INC     DPTR
   \   000201   A3           INC     DPTR
   \   000202   7401         MOV     A,#0x1
   \   000204   F0           MOVX    @DPTR,A
   2340          
   2341                if ( pBeacon->routerCapacity )
   \                     ??ZDO_beaconNotifyIndCB_14:
   \   000205   85..82       MOV     DPL,?V0 + 0
   \   000208   85..83       MOV     DPH,?V0 + 1
   \   00020B   A3           INC     DPTR
   \   00020C   A3           INC     DPTR
   \   00020D   A3           INC     DPTR
   \   00020E   A3           INC     DPTR
   \   00020F   A3           INC     DPTR
   \   000210   A3           INC     DPTR
   \   000211   E0           MOVX    A,@DPTR
   \   000212   600A         JZ      ??ZDO_beaconNotifyIndCB_1
   2342                  pNwkDesc->routerCapacity = 1;
   \   000214   8E82         MOV     DPL,R6
   \   000216   8F83         MOV     DPH,R7
   \   000218   A3           INC     DPTR
   \   000219   A3           INC     DPTR
   \   00021A   A3           INC     DPTR
   \   00021B   7401         MOV     A,#0x1
   \   00021D   F0           MOVX    @DPTR,A
   2343              }
   2344            }
   \                     ??ZDO_beaconNotifyIndCB_1:
   \   00021E   02....       LJMP    ?Subroutine5 & 0xFFFF
   2345          }

   \                                 In  segment BANKED_CODE, align 1, keep-with-next
   \                     ?Subroutine36:
   \   000000   E5..         MOV     A,?V0 + 0
   \   000002   240B         ADD     A,#0xb
   \   000004   F582         MOV     DPL,A
   \   000006   E5..         MOV     A,?V0 + 1
   \   000008   22           RET

   \                                 In  segment BANKED_CODE, align 1, keep-with-next
   \                     ?Subroutine26:
   \   000000   12....       LCALL   ?Subroutine39 & 0xFFFF
   \                     ??CrossCallReturnLabel_60:
   \   000003   22           RET

   \                                 In  segment BANKED_CODE, align 1, keep-with-next
   \                     ?Subroutine39:
   \   000000   E0           MOVX    A,@DPTR
   \   000001   8E82         MOV     DPL,R6
   \   000003   8F83         MOV     DPH,R7
   \   000005   A3           INC     DPTR
   \   000006   A3           INC     DPTR
   \   000007   A3           INC     DPTR
   \   000008   22           RET

   \                                 In  segment BANKED_CODE, align 1, keep-with-next
   \                     ?Subroutine20:
   \   000000   12....       LCALL   ?Subroutine39 & 0xFFFF
   \                     ??CrossCallReturnLabel_59:
   \   000003   A3           INC     DPTR
   \   000004   A3           INC     DPTR
   \   000005   A3           INC     DPTR
   \   000006   A3           INC     DPTR
   \   000007   A3           INC     DPTR
   \   000008   A3           INC     DPTR
   \   000009   22           RET

   \                                 In  segment BANKED_CODE, align 1, keep-with-next
   \                     ?Subroutine15:
   \   000000   A3           INC     DPTR
   \   000001   A3           INC     DPTR
   \   000002   12....       LCALL   ?Subroutine38 & 0xFFFF
   \                     ??CrossCallReturnLabel_57:
   \   000005   22           RET

   \                                 In  segment BANKED_CODE, align 1, keep-with-next
   \                     ?Subroutine38:
   \   000000   F0           MOVX    @DPTR,A
   \   000001   85..82       MOV     DPL,?V0 + 0
   \   000004   85..83       MOV     DPH,?V0 + 1
   \   000007   A3           INC     DPTR
   \   000008   A3           INC     DPTR
   \   000009   22           RET

   \                                 In  segment BANKED_CODE, align 1, keep-with-next
   \                     ?Subroutine10:
   \   000000   12....       LCALL   ?Subroutine38 & 0xFFFF
   \                     ??CrossCallReturnLabel_58:
   \   000003   A3           INC     DPTR
   \   000004   A3           INC     DPTR
   \   000005   A3           INC     DPTR
   \   000006   A3           INC     DPTR
   \   000007   A3           INC     DPTR
   \   000008   22           RET

   \                                 In  segment BANKED_CODE, align 1, keep-with-next
   \                     ??Subroutine59_0:
   \   000000   12....       LCALL   ??Subroutine54_0 & 0xFFFF
   \                     ??CrossCallReturnLabel_121:
   \   000003   E0           MOVX    A,@DPTR
   \   000004   22           RET
   2346          
   2347          /*********************************************************************
   2348           * @fn          ZDO_StartRouterConfirmCB
   2349           *
   2350           * @brief       This function reports the results of the request to
   2351           *              start functioning as a router in a network.
   2352           *
   2353           * @param       Status - Result of NLME_StartRouterRequest()
   2354           *
   2355           * @return      none
   2356           */

   \                                 In  segment BANKED_CODE, align 1, keep-with-next
   2357          void ZDO_StartRouterConfirmCB( ZStatus_t Status )
   \                     ZDO_StartRouterConfirmCB:
   2358          {
   \   000000   74F7         MOV     A,#-0x9
   \   000002   12....       LCALL   ?BANKED_ENTER_XDATA
   \   000005                ; Saved register size: 9
   \   000005                ; Auto size: 0
   \   000005   E9           MOV     A,R1
   2359            nwkStatus = (byte)Status;
   \   000006   90....       MOV     DPTR,#nwkStatus
   \   000009   F0           MOVX    @DPTR,A
   2360          
   2361            if ( Status == ZSUCCESS )
   \   00000A   700A         JNZ     ??ZDO_StartRouterConfirmCB_0
   2362            {
   2363              // LED on shows Router started
   2364              HalLedSet ( HAL_LED_3, HAL_LED_MODE_ON );
   \   00000C                ; Setup parameters for call to function HalLedSet
   \   00000C   12....       LCALL   ?Subroutine37 & 0xFFFF
   2365              // LED off forgets HOLD_AUTO_START
   2366              HalLedSet ( HAL_LED_4, HAL_LED_MODE_OFF);
   2367              if ( devState == DEV_HOLD )
   \                     ??CrossCallReturnLabel_55:
   \   00000F   700C         JNZ     ??ZDO_StartRouterConfirmCB_1
   2368              {
   2369                // Began with HOLD_AUTO_START
   2370                devState = DEV_END_DEVICE;
   \   000011   7406         MOV     A,#0x6
   \   000013   F0           MOVX    @DPTR,A
   \   000014   8007         SJMP    ??ZDO_StartRouterConfirmCB_1
   2371              }
   2372            }
   2373          #if defined(BLINK_LEDS)
   2374            else
   2375            {
   2376              HalLedSet( HAL_LED_3, HAL_LED_MODE_FLASH );  // Flash LED to show failure
   \                     ??ZDO_StartRouterConfirmCB_0:
   \   000016                ; Setup parameters for call to function HalLedSet
   \   000016   7A04         MOV     R2,#0x4
   \   000018   7904         MOV     R1,#0x4
   \   00001A   12....       LCALL   ??HalLedSet?relay
   2377            }
   2378          #endif
   2379          
   2380            osal_set_event( ZDAppTaskID, ZDO_ROUTER_START );
   \                     ??ZDO_StartRouterConfirmCB_1:
   \   00001D                ; Setup parameters for call to function osal_set_event
   \   00001D   7A20         MOV     R2,#0x20
   \   00001F   02....       LJMP    ?Subroutine0 & 0xFFFF
   2381          }
   2382          
   2383          /*********************************************************************
   2384           * @fn          ZDO_JoinConfirmCB
   2385           *
   2386           * @brief       This function allows the next hight layer to be notified
   2387           *              of the results of its request to join itself or another
   2388           *              device to a network.
   2389           *
   2390           * @param       Status - Result of NLME_JoinRequest()
   2391           *
   2392           * @return      none
   2393           */

   \                                 In  segment BANKED_CODE, align 1, keep-with-next
   2394          void ZDO_JoinConfirmCB( uint16 PanId, ZStatus_t Status )
   \                     ZDO_JoinConfirmCB:
   2395          {
   \   000000   74F7         MOV     A,#-0x9
   \   000002   12....       LCALL   ?BANKED_ENTER_XDATA
   \   000005                ; Saved register size: 9
   \   000005                ; Auto size: 5
   \   000005   74FB         MOV     A,#-0x5
   \   000007   12....       LCALL   ?ALLOC_XSTACK8
   \   00000A   E9           MOV     A,R1
   \   00000B   FE           MOV     R6,A
   2396            (void)PanId;  // remove if this parameter is used.
   2397          
   2398            nwkStatus = (byte)Status;
   \   00000C   90....       MOV     DPTR,#nwkStatus
   \   00000F   F0           MOVX    @DPTR,A
   2399          
   2400            if ( Status == ZSUCCESS )
   \   000010   700A         JNZ     ??ZDO_JoinConfirmCB_0
   2401            {
   2402              // LED on shows device joined
   2403              HalLedSet ( HAL_LED_3, HAL_LED_MODE_ON );
   \   000012                ; Setup parameters for call to function HalLedSet
   \   000012   12....       LCALL   ?Subroutine37 & 0xFFFF
   2404              // LED off forgets HOLD_AUTO_START
   2405              HalLedSet ( HAL_LED_4, HAL_LED_MODE_OFF);
   2406              if ( (devState == DEV_HOLD) )
   \                     ??CrossCallReturnLabel_56:
   \   000015   700C         JNZ     ??ZDO_JoinConfirmCB_1
   2407              {
   2408                // Began with HOLD_AUTO_START
   2409                devState = DEV_NWK_JOINING;
   \   000017   7403         MOV     A,#0x3
   \   000019   F0           MOVX    @DPTR,A
   \   00001A   8007         SJMP    ??ZDO_JoinConfirmCB_1
   2410              }
   2411          
   2412              if ( !ZG_SECURE_ENABLED )
   2413              {
   2414                // Notify to save info into NV
   2415                ZDApp_NVUpdate();
   2416              }
   2417            }
   2418            else                    //超次处理  5次
   2419            {  
   2420          
   2421          #if defined(BLINK_LEDS)
   2422              HalLedSet ( HAL_LED_3, HAL_LED_MODE_FLASH );  // Flash LED to show failure
   \                     ??ZDO_JoinConfirmCB_0:
   \   00001C                ; Setup parameters for call to function HalLedSet
   \   00001C   7A04         MOV     R2,#0x4
   \   00001E   7904         MOV     R1,#0x4
   \   000020   12....       LCALL   ??HalLedSet?relay
   2423          #endif
   2424            }
   2425          
   2426            // Pass the join confirm to higher layer if callback registered
   2427            if (zdoCBFunc[ZDO_JOIN_CNF_CBID] != NULL )
   \                     ??ZDO_JoinConfirmCB_1:
   \   000023   90....       MOV     DPTR,#zdoCBFunc + 8
   \   000026   12....       LCALL   ?Subroutine16 & 0xFFFF
   \                     ??CrossCallReturnLabel_17:
   \   000029   6033         JZ      ??ZDO_JoinConfirmCB_2
   2428            {
   2429              zdoJoinCnf_t joinCnf;
   2430          
   2431              joinCnf.status = Status;
   \   00002B   EE           MOV     A,R6
   \   00002C   85..82       MOV     DPL,?XSP + 0
   \   00002F   85..83       MOV     DPH,?XSP + 1
   \   000032   F0           MOVX    @DPTR,A
   2432              joinCnf.deviceAddr = _NIB.nwkDevAddress;
   \   000033   90....       MOV     DPTR,#_NIB + 20
   \   000036   12....       LCALL   ??Subroutine44_0 & 0xFFFF
   \                     ??CrossCallReturnLabel_76:
   \   000039   7401         MOV     A,#0x1
   \   00003B   12....       LCALL   ?XSTACK_DISP0_8
   \   00003E   E8           MOV     A,R0
   \   00003F   F0           MOVX    @DPTR,A
   \   000040   A3           INC     DPTR
   \   000041   E9           MOV     A,R1
   \   000042   F0           MOVX    @DPTR,A
   2433              joinCnf.parentAddr = _NIB.nwkCoordAddress;
   \   000043   90....       MOV     DPTR,#_NIB + 23
   \   000046   12....       LCALL   ??Subroutine44_0 & 0xFFFF
   2434          
   2435              zdoCBFunc[ZDO_JOIN_CNF_CBID]( (void*)&joinCnf );
   2436            }
   \                     ??CrossCallReturnLabel_77:
   \   000049   7403         MOV     A,#0x3
   \   00004B   12....       LCALL   ?XSTACK_DISP0_8
   \   00004E   E8           MOV     A,R0
   \   00004F   F0           MOVX    @DPTR,A
   \   000050   A3           INC     DPTR
   \   000051   E9           MOV     A,R1
   \   000052   12....       LCALL   ?Subroutine13 & 0xFFFF
   \                     ??CrossCallReturnLabel_9:
   \   000055   90....       MOV     DPTR,#zdoCBFunc + 8
   \   000058   12....       LCALL   ??Subroutine56_0 & 0xFFFF
   \                     ??CrossCallReturnLabel_101:
   \   00005B   12....       LCALL   ?CALL_IND
   2437          
   2438            // Notify ZDApp
   2439            ZDApp_SendMsg( ZDAppTaskID, ZDO_NWK_JOIN_IND, sizeof(osal_event_hdr_t), (byte*)NULL );
   \                     ??ZDO_JoinConfirmCB_2:
   \   00005E                ; Setup parameters for call to function ZDApp_SendMsg
   \   00005E   7C00         MOV     R4,#0x0
   \   000060   7D00         MOV     R5,#0x0
   \   000062   7B02         MOV     R3,#0x2
   \   000064   7A02         MOV     R2,#0x2
   \   000066   12....       LCALL   ?Subroutine23 & 0xFFFF
   2440          
   2441          }
   \                     ??CrossCallReturnLabel_26:
   \   000069                REQUIRE ?Subroutine6
   \   000069                ; // Fall through to label ?Subroutine6

   \                                 In  segment BANKED_CODE, align 1, keep-with-next
   \                     ?Subroutine6:
   \   000000   7405         MOV     A,#0x5
   \   000002   12....       LCALL   ?DEALLOC_XSTACK8
   \   000005   02....       LJMP    ??Subroutine49_0 & 0xFFFF
   2442          
   2443          /*********************************************************************
   2444           * @fn          ZDO_AddrChangeIndicationCB
   2445           *
   2446           * @brief       This function notifies the application that this
   2447           *              device's address has changed.  Could happen in
   2448           *              a network with stochastic addressing (PRO).
   2449           *
   2450           * @param       newAddr - the new address
   2451           *
   2452           * @return      none
   2453           */

   \                                 In  segment BANKED_CODE, align 1, keep-with-next
   2454          void ZDO_AddrChangeIndicationCB( uint16 newAddr )
   \                     ZDO_AddrChangeIndicationCB:
   2455          {
   \   000000   74F4         MOV     A,#-0xc
   \   000002   12....       LCALL   ?BANKED_ENTER_XDATA
   \   000005                ; Saved register size: 12
   \   000005                ; Auto size: 0
   \   000005   8A..         MOV     ?V0 + 0,R2
   \   000007   8B..         MOV     ?V0 + 1,R3
   2456            ZDO_AddrChangeInd_t *pZDOAddrChangeMsg;
   2457            epList_t *pItem = epList;
   \   000009   90....       MOV     DPTR,#epList
   \   00000C   12....       LCALL   ??Subroutine52_0 & 0xFFFF
   2458          
   2459            // Notify to save info into NV
   2460            ZDApp_NVUpdate();
   2461          
   2462            // Notify the applications
   2463            osal_set_event( ZDAppTaskID, ZDO_STATE_CHANGE_EVT );
   \                     ??CrossCallReturnLabel_90:
   \   00000F                ; Setup parameters for call to function osal_set_event
   \   00000F   12....       LCALL   ?Subroutine18 & 0xFFFF
   \                     ??CrossCallReturnLabel_67:
   \   000012   8033         SJMP    ??ZDO_AddrChangeIndicationCB_0
   2464          
   2465            while (pItem != NULL)
   2466            {
   2467              if (pItem->epDesc->endPoint != ZDO_EP)
   \                     ??ZDO_AddrChangeIndicationCB_1:
   \   000014   12....       LCALL   ?Subroutine17 & 0xFFFF
   \                     ??CrossCallReturnLabel_103:
   \   000017   E0           MOVX    A,@DPTR
   \   000018   6026         JZ      ??ZDO_AddrChangeIndicationCB_2
   2468              {
   2469                pZDOAddrChangeMsg = (ZDO_AddrChangeInd_t *)osal_msg_allocate( sizeof( ZDO_AddrChangeInd_t ) );
   \   00001A                ; Setup parameters for call to function osal_msg_allocate
   \   00001A   7A04         MOV     R2,#0x4
   \   00001C   7B00         MOV     R3,#0x0
   \   00001E   12....       LCALL   ??osal_msg_allocate?relay
   2470                if (pZDOAddrChangeMsg != NULL)
   \   000021   EA           MOV     A,R2
   \   000022   4B           ORL     A,R3
   \   000023   601B         JZ      ??ZDO_AddrChangeIndicationCB_2
   2471                {
   2472                  pZDOAddrChangeMsg->hdr.event = ZDO_ADDR_CHANGE_IND;
   \   000025   8A82         MOV     DPL,R2
   \   000027   8B83         MOV     DPH,R3
   \   000029   74D6         MOV     A,#-0x2a
   \   00002B   F0           MOVX    @DPTR,A
   2473                  pZDOAddrChangeMsg->shortAddr = newAddr;
   \   00002C   A3           INC     DPTR
   \   00002D   A3           INC     DPTR
   \   00002E   E5..         MOV     A,?V0 + 0
   \   000030   F0           MOVX    @DPTR,A
   \   000031   A3           INC     DPTR
   \   000032   E5..         MOV     A,?V0 + 1
   \   000034   F0           MOVX    @DPTR,A
   2474                  osal_msg_send( *(pItem->epDesc->task_id), (uint8 *)pZDOAddrChangeMsg );
   \   000035                ; Setup parameters for call to function osal_msg_send
   \   000035   12....       LCALL   ?Subroutine17 & 0xFFFF
   2475                }
   2476              }
   \                     ??CrossCallReturnLabel_104:
   \   000038   12....       LCALL   ??Subroutine55_0 & 0xFFFF
   \                     ??CrossCallReturnLabel_102:
   \   00003B   E0           MOVX    A,@DPTR
   \   00003C   F9           MOV     R1,A
   \   00003D   12....       LCALL   ??osal_msg_send?relay
   2477              pItem = pItem->nextDesc;
   \                     ??ZDO_AddrChangeIndicationCB_2:
   \   000040   12....       LCALL   ?Subroutine19 & 0xFFFF
   2478            }
   \                     ??CrossCallReturnLabel_81:
   \   000043   E8           MOV     A,R0
   \   000044   FE           MOV     R6,A
   \   000045   E9           MOV     A,R1
   \   000046   FF           MOV     R7,A
   \                     ??ZDO_AddrChangeIndicationCB_0:
   \   000047   EE           MOV     A,R6
   \   000048   4F           ORL     A,R7
   \   000049   70C9         JNZ     ??ZDO_AddrChangeIndicationCB_1
   2479          
   2480            // Send out a device announce
   2481            ZDApp_AnnounceNewAddress();
   \   00004B                ; Setup parameters for call to function ZDApp_AnnounceNewAddress
   \   00004B   12....       LCALL   ??ZDApp_AnnounceNewAddress?relay
   2482          }
   \   00004E   02....       LJMP    ??Subroutine46_0 & 0xFFFF

   \                                 In  segment BANKED_CODE, align 1, keep-with-next
   \                     ?Subroutine17:
   \   000000   8E82         MOV     DPL,R6
   \   000002   8F83         MOV     DPH,R7
   \   000004   A3           INC     DPTR
   \   000005                REQUIRE ??Subroutine55_0
   \   000005                ; // Fall through to label ??Subroutine55_0

   \                                 In  segment BANKED_CODE, align 1, keep-with-next
   \                     ??Subroutine55_0:
   \   000000   A3           INC     DPTR
   \   000001                REQUIRE ??Subroutine56_0
   \   000001                ; // Fall through to label ??Subroutine56_0
   2483          
   2484          /*********************************************************************
   2485           * @fn          ZDO_JoinIndicationCB
   2486           *
   2487           * @brief       This function allows the next higher layer of a
   2488           *              coordinator to be notified of a remote join request.
   2489           *
   2490           * @param       ShortAddress - 16-bit address
   2491           * @param       ExtendedAddress - IEEE (64-bit) address
   2492           * @param       CapabilityFlags - Association Capability Flags
   2493           * @param       type - of joining -
   2494           *                          NWK_ASSOC_JOIN
   2495           *                          NWK_ASSOC_REJOIN_UNSECURE
   2496           *                          NWK_ASSOC_REJOIN_SECURE
   2497           *
   2498           * @return      ZStatus_t
   2499           */

   \                                 In  segment BANKED_CODE, align 1, keep-with-next
   2500          ZStatus_t ZDO_JoinIndicationCB(uint16 ShortAddress, uint8 *ExtendedAddress,
   \                     ZDO_JoinIndicationCB:
   2501                                          uint8 CapabilityFlags, uint8 type)
   2502          {
   \   000000                ; Saved register size: 0
   \   000000                ; Auto size: 0
   2503            (void)ShortAddress;
   2504            (void)ExtendedAddress;
   2505          #if ZDO_NV_SAVE_RFDs
   2506            (void)CapabilityFlags;
   2507          
   2508          #else  // if !ZDO_NV_SAVE_RFDs
   2509            if (CapabilityFlags & CAPINFO_DEVICETYPE_FFD)
   2510          #endif
   2511            {
   2512              ZDApp_NVUpdate();  // Notify to save info into NV.
   2513            }
   2514          
   2515            if (ZG_SECURE_ENABLED)  // Send notification to TC of new device.
   2516            {
   2517              if (type == NWK_ASSOC_JOIN || type == NWK_ASSOC_REJOIN_UNSECURE)
   2518              {
   2519                osal_start_timerEx( ZDAppTaskID, ZDO_NEW_DEVICE, 600 );
   2520              }
   2521            }
   2522          
   2523            return ZSuccess;
   \   000000                REQUIRE ?Subroutine3
   \   000000                ; // Fall through to label ?Subroutine3

   \                                 In  segment BANKED_CODE, align 1, keep-with-next
   \                     ?Subroutine3:
   \   000000   7900         MOV     R1,#0x0
   \   000002   02....       LJMP    ?BRET
   2524          }
   2525          
   2526          /*********************************************************************
   2527           * @fn          ZDO_ConcentratorIndicationCB
   2528           *
   2529           * @brief       This function allows the next higher layer of a
   2530           *              device to be notified of existence of the concentrator.
   2531           *
   2532           * @param       nwkAddr - 16-bit NWK address of the concentrator
   2533           * @param       extAddr - pointer to extended Address
   2534           *                        NULL if not available
   2535           * @param       pktCost - PktCost from RREQ
   2536           *
   2537           * @return      void
   2538           */

   \                                 In  segment BANKED_CODE, align 1, keep-with-next
   2539          void ZDO_ConcentratorIndicationCB( uint16 nwkAddr, uint8 *extAddr, uint8 pktCost )
   \                     ZDO_ConcentratorIndicationCB:
   2540          {
   \   000000   74F7         MOV     A,#-0x9
   \   000002   12....       LCALL   ?BANKED_ENTER_XDATA
   \   000005                ; Saved register size: 9
   \   000005                ; Auto size: 5
   \   000005   74FB         MOV     A,#-0x5
   \   000007   12....       LCALL   ?ALLOC_XSTACK8
   2541            zdoConcentratorInd_t conInd;
   2542          
   2543            conInd.nwkAddr = nwkAddr;
   \   00000A   12....       LCALL   ?Subroutine14 & 0xFFFF
   2544            conInd.extAddr = extAddr;
   \                     ??CrossCallReturnLabel_128:
   \   00000D   7402         MOV     A,#0x2
   \   00000F   12....       LCALL   ?XSTACK_DISP0_8
   \   000012   EC           MOV     A,R4
   \   000013   F0           MOVX    @DPTR,A
   \   000014   A3           INC     DPTR
   \   000015   ED           MOV     A,R5
   \   000016   F0           MOVX    @DPTR,A
   2545            conInd.pktCost = pktCost;
   \   000017   7404         MOV     A,#0x4
   \   000019   12....       LCALL   ?XSTACK_DISP0_8
   \   00001C   E9           MOV     A,R1
   \   00001D   F0           MOVX    @DPTR,A
   2546          
   2547            if( zdoCBFunc[ZDO_CONCENTRATOR_IND_CBID] != NULL )
   \   00001E   90....       MOV     DPTR,#zdoCBFunc + 2
   \   000021   12....       LCALL   ?Subroutine16 & 0xFFFF
   \                     ??CrossCallReturnLabel_18:
   \   000024   6013         JZ      ??ZDO_ConcentratorIndicationCB_0
   2548            {
   2549              zdoCBFunc[ZDO_CONCENTRATOR_IND_CBID]( (void*)&conInd );
   \   000026                ; Setup parameters for indirect call
   \   000026   85..82       MOV     DPL,?XSP + 0
   \   000029   85..83       MOV     DPH,?XSP + 1
   \   00002C   AA82         MOV     R2,DPL
   \   00002E   AB83         MOV     R3,DPH
   \   000030   90....       MOV     DPTR,#zdoCBFunc + 3
   \   000033   12....       LCALL   ??Subroutine57_0 & 0xFFFF
   2550            }
   \                     ??CrossCallReturnLabel_96:
   \   000036   12....       LCALL   ?CALL_IND
   2551          }
   \                     ??ZDO_ConcentratorIndicationCB_0:
   \   000039   02....       LJMP    ?Subroutine6 & 0xFFFF
   2552          
   2553          /*********************************************************************
   2554           * @fn          ZDO_LeaveCnf
   2555           *
   2556           * @brief       This function allows the next higher layer to be
   2557           *              notified of the results of its request for this or
   2558           *              a child device to leave the network.
   2559           *
   2560           * @param       cnf - NLME_LeaveCnf_t
   2561           *
   2562           * @return      none
   2563           */

   \                                 In  segment BANKED_CODE, align 1, keep-with-next
   2564          void ZDO_LeaveCnf( NLME_LeaveCnf_t* cnf )
   \                     ZDO_LeaveCnf:
   2565          {
   \   000000   74F6         MOV     A,#-0xa
   \   000002   12....       LCALL   ?BANKED_ENTER_XDATA
   \   000005                ; Saved register size: 10
   \   000005                ; Auto size: 0
   \   000005   EA           MOV     A,R2
   \   000006   FE           MOV     R6,A
   \   000007   EB           MOV     A,R3
   \   000008   FF           MOV     R7,A
   2566            // Check for this device
   2567            if ( osal_ExtAddrEqual( cnf->extAddr,
   2568                                    NLME_GetExtAddr() ) == TRUE )
   \   000009                ; Setup parameters for call to function sAddrExtCmp
   \   000009                ; Setup parameters for call to function NLME_GetExtAddr
   \   000009   12....       LCALL   ??NLME_GetExtAddr?relay
   \   00000C   EA           MOV     A,R2
   \   00000D   FC           MOV     R4,A
   \   00000E   EB           MOV     A,R3
   \   00000F   FD           MOV     R5,A
   \   000010   EE           MOV     A,R6
   \   000011   2402         ADD     A,#0x2
   \   000013   FA           MOV     R2,A
   \   000014   EF           MOV     A,R7
   \   000015   3400         ADDC    A,#0x0
   \   000017   FB           MOV     R3,A
   \   000018   12....       LCALL   ??sAddrExtCmp?relay
   \   00001B   E9           MOV     A,R1
   \   00001C   6401         XRL     A,#0x1
   \   00001E   701F         JNZ     ??CrossCallReturnLabel_41
   2569            {
   2570              // Pass the leave confirm to higher layer if callback registered
   2571              if ( ( zdoCBFunc[ZDO_LEAVE_CNF_CBID] == NULL ) ||
   2572                   ( (*zdoCBFunc[ZDO_LEAVE_CNF_CBID])( cnf ) == NULL ) )
   \   000020   90....       MOV     DPTR,#zdoCBFunc + 10
   \   000023   12....       LCALL   ?Subroutine16 & 0xFFFF
   \                     ??CrossCallReturnLabel_19:
   \   000026   6011         JZ      ??ZDO_LeaveCnf_0
   \   000028                ; Setup parameters for indirect call
   \   000028   EE           MOV     A,R6
   \   000029   FA           MOV     R2,A
   \   00002A   EF           MOV     A,R7
   \   00002B   FB           MOV     R3,A
   \   00002C   12....       LCALL   ??Subroutine57_0 & 0xFFFF
   \                     ??CrossCallReturnLabel_97:
   \   00002F   12....       LCALL   ?CALL_IND
   \   000032   8B..         MOV     ?V0 + 1,R3
   \   000034   EA           MOV     A,R2
   \   000035   45..         ORL     A,?V0 + 1
   \   000037   7006         JNZ     ??CrossCallReturnLabel_41
   2573              {
   2574                // Prepare to leave with reset
   2575                ZDApp_LeaveReset( cnf->rejoin );
   \                     ??ZDO_LeaveCnf_0:
   \   000039                ; Setup parameters for call to function ZDApp_LeaveReset
   \   000039   EE           MOV     A,R6
   \   00003A   240B         ADD     A,#0xb
   \   00003C   12....       LCALL   ?Subroutine30 & 0xFFFF
   2576              }
   2577            }
   2578            else if ( ZSTACK_ROUTER_BUILD )
   2579            {
   2580              // Remove device address(optionally descendents) from data
   2581              ZDApp_LeaveUpdate( cnf->dstAddr,
   2582                                 cnf->extAddr,
   2583                                 cnf->removeChildren );
   2584            }
   2585          }
   \                     ??CrossCallReturnLabel_41:
   \   00003F   02....       LJMP    ??Subroutine51_0 & 0xFFFF

   \                                 In  segment BANKED_CODE, align 1, keep-with-next
   \                     ?Subroutine30:
   \   000000   12....       LCALL   ??Subroutine53_0 & 0xFFFF
   \                     ??CrossCallReturnLabel_118:
   \   000003   E0           MOVX    A,@DPTR
   \   000004   F9           MOV     R1,A
   \   000005   12....       LCALL   ??ZDApp_LeaveReset?relay
   \   000008   22           RET
   2586          
   2587          /*********************************************************************
   2588           * @fn          ZDO_LeaveInd
   2589           *
   2590           * @brief       This function allows the next higher layer of a
   2591           *              device to be notified of a remote leave request or
   2592           *              indication.
   2593           *
   2594           * @param       ind - NLME_LeaveInd_t
   2595           *
   2596           * @return      none
   2597           */

   \                                 In  segment BANKED_CODE, align 1, keep-with-next
   2598          void ZDO_LeaveInd( NLME_LeaveInd_t* ind )
   \                     ZDO_LeaveInd:
   2599          {
   \   000000   74F6         MOV     A,#-0xa
   \   000002   12....       LCALL   ?BANKED_ENTER_XDATA
   \   000005                ; Saved register size: 10
   \   000005                ; Auto size: 0
   \   000005   EA           MOV     A,R2
   \   000006   FE           MOV     R6,A
   \   000007   EB           MOV     A,R3
   \   000008   FF           MOV     R7,A
   2600            uint8 leave;
   2601          
   2602          
   2603            // Parent is requesting the leave - NWK layer filters out illegal
   2604            // requests
   2605            if ( ind->request == TRUE )
   \   000009   8E82         MOV     DPL,R6
   \   00000B   8F83         MOV     DPH,R7
   \   00000D   A3           INC     DPTR
   \   00000E   A3           INC     DPTR
   \   00000F   A3           INC     DPTR
   \   000010   A3           INC     DPTR
   \   000011   A3           INC     DPTR
   \   000012   A3           INC     DPTR
   \   000013   A3           INC     DPTR
   \   000014   A3           INC     DPTR
   \   000015   A3           INC     DPTR
   \   000016   A3           INC     DPTR
   \   000017   E0           MOVX    A,@DPTR
   \   000018   6401         XRL     A,#0x1
   \   00001A   7008         JNZ     ??ZDO_LeaveInd_0
   2606            {
   2607              // Notify network of leave
   2608              if ( ZSTACK_ROUTER_BUILD )
   2609              {
   2610                NLME_LeaveRsp_t rsp;
   2611                rsp.rejoin         = ind->rejoin;
   2612                rsp.removeChildren = ind->removeChildren;
   2613                NLME_LeaveRsp( &rsp );
   2614              }
   2615          
   2616              // Prepare to leave with reset
   2617              ZDApp_LeaveReset( ind->rejoin );
   \                     ??ZDO_LeaveInd_1:
   \   00001C                ; Setup parameters for call to function ZDApp_LeaveReset
   \   00001C   EE           MOV     A,R6
   \   00001D   240C         ADD     A,#0xc
   \   00001F   12....       LCALL   ?Subroutine30 & 0xFFFF
   2618            }
   \                     ??CrossCallReturnLabel_42:
   \   000022   803F         SJMP    ??ZDO_LeaveInd_2
   2619            else
   2620            {
   2621              leave = FALSE;
   2622          
   2623              // Check if this device needs to leave as a child or descendent
   2624              if ( ind->srcAddr == NLME_GetCoordShortAddr() )
   \                     ??ZDO_LeaveInd_0:
   \   000024                ; Setup parameters for call to function NLME_GetCoordShortAddr
   \   000024   12....       LCALL   ??NLME_GetCoordShortAddr?relay
   \   000027   8A..         MOV     ?V0 + 0,R2
   \   000029   8B..         MOV     ?V0 + 1,R3
   \   00002B   A8..         MOV     R0,?V0 + 0
   \   00002D   A9..         MOV     R1,?V0 + 1
   \   00002F   8E82         MOV     DPL,R6
   \   000031   8F83         MOV     DPH,R7
   \   000033   E0           MOVX    A,@DPTR
   \   000034   68           XRL     A,R0
   \   000035   7003         JNZ     ??ZDO_LeaveInd_3
   \   000037   A3           INC     DPTR
   \   000038   E0           MOVX    A,@DPTR
   \   000039   69           XRL     A,R1
   \                     ??ZDO_LeaveInd_3:
   \   00003A   7011         JNZ     ??ZDO_LeaveInd_4
   2625              {
   2626                if ( ( ind->removeChildren == TRUE               ) ||
   2627                     ( ZDO_Config_Node_Descriptor.LogicalType ==
   2628                       NODETYPE_DEVICE                           )    )
   \   00003C   12....       LCALL   ?Subroutine32 & 0xFFFF
   2629                {
   2630                  leave = TRUE;
   2631                }
   2632              }
   \                     ??CrossCallReturnLabel_111:
   \   00003F   6401         XRL     A,#0x1
   \   000041   60D9         JZ      ??ZDO_LeaveInd_1
   \   000043   90....       MOV     DPTR,#ZDO_Config_Node_Descriptor
   \   000046   E0           MOVX    A,@DPTR
   \   000047   5407         ANL     A,#0x7
   \   000049   6402         XRL     A,#0x2
   \   00004B   60CF         JZ      ??ZDO_LeaveInd_1
   2633              else if ( ind->removeChildren == TRUE )
   2634              {
   2635                // Check NWK address allocation algorithm
   2636                //leave = RTG_ANCESTOR(nwkAddr,thisAddr);
   2637              }
   2638          
   2639              if ( leave == TRUE )
   2640              {
   2641                // Prepare to leave with reset
   2642                ZDApp_LeaveReset( ind->rejoin );
   2643              }
   2644              else
   2645              {
   2646                // Remove device address(optionally descendents) from data
   2647                ZDApp_LeaveUpdate( ind->srcAddr,
   2648                                   ind->extAddr,
   2649                                   ind->removeChildren );
   \                     ??ZDO_LeaveInd_4:
   \   00004D                ; Setup parameters for call to function ZDApp_LeaveUpdate
   \   00004D   12....       LCALL   ?Subroutine32 & 0xFFFF
   2650              }
   2651            }
   \                     ??CrossCallReturnLabel_112:
   \   000050   F9           MOV     R1,A
   \   000051   EE           MOV     A,R6
   \   000052   2402         ADD     A,#0x2
   \   000054   FC           MOV     R4,A
   \   000055   EF           MOV     A,R7
   \   000056   3400         ADDC    A,#0x0
   \   000058   FD           MOV     R5,A
   \   000059   8E82         MOV     DPL,R6
   \   00005B   8F83         MOV     DPH,R7
   \   00005D   12....       LCALL   ?Subroutine24 & 0xFFFF
   \                     ??CrossCallReturnLabel_31:
   \   000060   12....       LCALL   ??ZDApp_LeaveUpdate?relay
   2652          
   2653            // Pass the leave indication to higher layer if callback registered.
   2654            if (zdoCBFunc[ZDO_LEAVE_IND_CBID] != NULL)
   \                     ??ZDO_LeaveInd_2:
   \   000063   90....       MOV     DPTR,#zdoCBFunc + 12
   \   000066   12....       LCALL   ?Subroutine16 & 0xFFFF
   \                     ??CrossCallReturnLabel_20:
   \   000069   600A         JZ      ??ZDO_LeaveInd_5
   2655            {
   2656              (void)zdoCBFunc[ZDO_LEAVE_IND_CBID](ind);
   \   00006B                ; Setup parameters for indirect call
   \   00006B   EE           MOV     A,R6
   \   00006C   FA           MOV     R2,A
   \   00006D   EF           MOV     A,R7
   \   00006E   FB           MOV     R3,A
   \   00006F   12....       LCALL   ??Subroutine57_0 & 0xFFFF
   2657            }
   \                     ??CrossCallReturnLabel_98:
   \   000072   12....       LCALL   ?CALL_IND
   2658          }
   \                     ??ZDO_LeaveInd_5:
   \   000075   02....       LJMP    ??Subroutine51_0 & 0xFFFF

   \                                 In  segment BANKED_CODE, align 1, keep-with-next
   \                     ?Subroutine32:
   \   000000   EE           MOV     A,R6
   \   000001   240B         ADD     A,#0xb
   \   000003                REQUIRE ??Subroutine58_0
   \   000003                ; // Fall through to label ??Subroutine58_0

   \                                 In  segment BANKED_CODE, align 1, keep-with-next
   \                     ??Subroutine58_0:
   \   000000   F582         MOV     DPL,A
   \   000002   EF           MOV     A,R7
   \   000003                REQUIRE ??Subroutine59_0
   \   000003                ; // Fall through to label ??Subroutine59_0
   2659          
   2660          /*********************************************************************
   2661           * @fn          ZDO_SyncIndicationCB
   2662           *
   2663           * @brief       This function allows the next higher layer of a
   2664           *              coordinator to be notified of a loss of synchronization
   2665           *                          with the parent/child device.
   2666           *
   2667           * @param       type: 0 - child; 1 - parent
   2668           *
   2669           *
   2670           * @return      none
   2671           */

   \                                 In  segment BANKED_CODE, align 1, keep-with-next
   2672          void ZDO_SyncIndicationCB( uint8 type, uint16 shortAddr )
   \                     ZDO_SyncIndicationCB:
   2673          {
   \   000000   74F7         MOV     A,#-0x9
   \   000002   12....       LCALL   ?BANKED_ENTER_XDATA
   \   000005                ; Saved register size: 9
   \   000005                ; Auto size: 0
   \   000005   E9           MOV     A,R1
   \   000006   FE           MOV     R6,A
   2674            (void)shortAddr;  // Remove this line if this parameter is used.
   2675          
   2676            if ( ZSTACK_END_DEVICE_BUILD
   2677              || (ZSTACK_ROUTER_BUILD && ((_NIB.CapabilityFlags & ZMAC_ASSOC_CAPINFO_FFD_TYPE) == 0)))
   2678            {
   2679              if ( type == 1 )
   \   000007   7401         MOV     A,#0x1
   \   000009   6E           XRL     A,R6
   \   00000A   700E         JNZ     ??CrossCallReturnLabel_27
   2680              {
   2681                // We lost contact with our parent.  Clear the neighbor Table.
   2682                nwkNeighborInitTable();
   \   00000C                ; Setup parameters for call to function nwkNeighborInitTable
   \   00000C   12....       LCALL   ??nwkNeighborInitTable?relay
   2683          
   2684                // Start the rejoin process.
   2685                ZDApp_SendMsg( ZDAppTaskID, ZDO_NWK_JOIN_REQ, sizeof(osal_event_hdr_t), NULL );
   \   00000F                ; Setup parameters for call to function ZDApp_SendMsg
   \   00000F   7C00         MOV     R4,#0x0
   \   000011   7D00         MOV     R5,#0x0
   \   000013   7B02         MOV     R3,#0x2
   \   000015   7A03         MOV     R2,#0x3
   \   000017   12....       LCALL   ?Subroutine23 & 0xFFFF
   2686              }
   2687            }
   2688          }
   \                     ??CrossCallReturnLabel_27:
   \   00001A   02....       LJMP    ??Subroutine49_0 & 0xFFFF
   2689          
   2690          /*********************************************************************
   2691           * @fn          ZDO_ManytoOneFailureIndicationCB
   2692           *
   2693           * @brief       This function allows the next higher layer of a
   2694           *              concentrator to be notified of a many-to-one route
   2695           *              failure.
   2696           *
   2697           * @param       none
   2698           *
   2699           *
   2700           * @return      none
   2701           */

   \                                 In  segment BANKED_CODE, align 1, keep-with-next
   2702          void ZDO_ManytoOneFailureIndicationCB()
   \                     ZDO_ManytoOneFailureIndicationCB:
   2703          {
   \   000000   C082         PUSH    DPL
   \   000002   C083         PUSH    DPH
   \   000004                ; Saved register size: 2
   \   000004                ; Auto size: 0
   2704            // By default, the concentrator automatically redo many-to-one route
   2705            // discovery to update all many-to-one routes in the network
   2706            // If you want anything processing other than the default,
   2707            // please replace the following code.
   2708          
   2709            RTG_MTORouteReq();
   \   000004                ; Setup parameters for call to function RTG_MTORouteReq
   \   000004   12....       LCALL   ??RTG_MTORouteReq?relay
   2710          }
   \   000007   02....       LJMP    ?Subroutine2 & 0xFFFF
   2711          
   2712          /*********************************************************************
   2713           * @fn          ZDO_PollConfirmCB
   2714           *
   2715           * @brief       This function allows the next higher layer to be
   2716           *              notified of a Poll Confirm.
   2717           *
   2718           * @param       none
   2719           *
   2720           * @return      none
   2721           */

   \                                 In  segment BANKED_CODE, align 1, keep-with-next
   2722          void ZDO_PollConfirmCB( uint8 status )
   \                     ZDO_PollConfirmCB:
   2723          {
   \   000000                ; Saved register size: 0
   \   000000                ; Auto size: 0
   2724            (void)status;  // Remove this line if this parameter is used.
   2725            return;
   \   000000   02....       LJMP    ?BRET
   2726          }
   2727          
   2728          /******************************************************************************
   2729           * @fn          ZDApp_NwkWriteNVRequest (stubs AddrMgrWriteNVRequest)
   2730           *
   2731           * @brief       Stub routine implemented by NHLE. NHLE should call
   2732           *              <AddrMgrWriteNV> when appropriate.
   2733           *
   2734           * @param       none
   2735           *
   2736           * @return      none
   2737           */

   \                                 In  segment BANKED_CODE, align 1, keep-with-next
   2738          void ZDApp_NwkWriteNVRequest( void )
   \                     AddrMgrWriteNVRequest:
   2739          {
   \   000000                ; Saved register size: 0
   \   000000                ; Auto size: 0
   2740          #if defined ( NV_RESTORE )
   2741            if ( !osal_get_timeoutEx( ZDAppTaskID, ZDO_NWK_UPDATE_NV ) )
   2742            {
   2743              // Trigger to save info into NV
   2744              ZDApp_NVUpdate();
   2745            }
   2746          #endif
   2747          }
   \   000000   02....       LJMP    ?BRET
   2748          
   2749          /*********************************************************************
   2750           * Call Back Functions from Security  - API
   2751           */
   2752          
   2753           /*********************************************************************
   2754           * @fn          ZDO_UpdateDeviceIndication
   2755           *
   2756           * @brief       This function notifies the "Trust Center" of a
   2757           *              network when a device joins or leaves the network.
   2758           *
   2759           * @param       extAddr - pointer to 64 bit address of new device
   2760           * @param       status  - 0 if a new device joined securely
   2761           *                      - 1 if a new device joined un-securely
   2762           *                      - 2 if a device left the network
   2763           *
   2764           * @return      true if newly joined device should be allowed to
   2765           *                                              remain on network
   2766           */

   \                                 In  segment BANKED_CODE, align 1, keep-with-next
   2767          ZStatus_t ZDO_UpdateDeviceIndication( uint8 *extAddr, uint8 status )
   \                     ZDO_UpdateDeviceIndication:
   2768          {
   \   000000                ; Saved register size: 0
   \   000000                ; Auto size: 0
   2769            // can implement a network access policy based on the
   2770            // IEEE address of newly joining devices...
   2771            (void)extAddr;
   2772            (void)status;
   2773          
   2774            return ZSuccess;
   \   000000   02....       LJMP    ?Subroutine3 & 0xFFFF
   2775          }
   2776          
   2777          /*********************************************************************
   2778           * @fn          ZDApp_InMsgCB
   2779           *
   2780           * @brief       This function is called to pass up any message that is
   2781           *              not yet supported.  This allows for the developer to
   2782           *              support features themselves..
   2783           *
   2784           * @return      none
   2785           */

   \                                 In  segment BANKED_CODE, align 1, keep-with-next
   2786          void ZDApp_InMsgCB( zdoIncomingMsg_t *inMsg )
   \                     ZDApp_InMsgCB:
   2787          {
   \   000000   74F6         MOV     A,#-0xa
   \   000002   12....       LCALL   ?BANKED_ENTER_XDATA
   \   000005                ; Saved register size: 10
   \   000005                ; Auto size: 0
   \   000005   EA           MOV     A,R2
   \   000006   FE           MOV     R6,A
   \   000007   EB           MOV     A,R3
   \   000008   FF           MOV     R7,A
   2788            if ( inMsg->clusterID & ZDO_RESPONSE_BIT )
   \   000009   12....       LCALL   ?Subroutine40 & 0xFFFF
   \                     ??CrossCallReturnLabel_119:
   \   00000C   A3           INC     DPTR
   \   00000D   E0           MOVX    A,@DPTR
   \   00000E   5480         ANL     A,#0x80
   \   000010   704A         JNZ     ??ZDApp_InMsgCB_0
   2789            {
   2790              // Handle the response message
   2791            }
   2792            else
   2793            {
   2794              // Handle the request message by sending a generic "not supported".
   2795              // Device Announce doesn't have a response.
   2796              if ( !(inMsg->wasBroadcast) && inMsg->clusterID != Device_annce )
   \   000012   12....       LCALL   ?Subroutine32 & 0xFFFF
   \                     ??CrossCallReturnLabel_113:
   \   000015   7045         JNZ     ??ZDApp_InMsgCB_0
   \   000017   EE           MOV     A,R6
   \   000018   240C         ADD     A,#0xc
   \   00001A   12....       LCALL   ??Subroutine58_0 & 0xFFFF
   \                     ??CrossCallReturnLabel_108:
   \   00001D   6413         XRL     A,#0x13
   \   00001F   7002         JNZ     ??ZDApp_InMsgCB_1
   \   000021   A3           INC     DPTR
   \   000022   E0           MOVX    A,@DPTR
   \                     ??ZDApp_InMsgCB_1:
   \   000023   6037         JZ      ??ZDApp_InMsgCB_0
   2797              {
   2798                ZDP_GenericRsp( inMsg->TransSeq, &(inMsg->srcAddr), ZDP_NOT_SUPPORTED, 0,
   2799                                (uint16)(inMsg->clusterID | ZDO_RESPONSE_BIT), inMsg->SecurityUse );
   \   000025                ; Setup parameters for call to function ZDP_GenericRsp
   \   000025   12....       LCALL   ?Subroutine31 & 0xFFFF
   2800              }
   2801            }
   \                     ??CrossCallReturnLabel_44:
   \   000028   4480         ORL     A,#0x80
   \   00002A   F5..         MOV     ?V0 + 1,A
   \   00002C   78..         MOV     R0,#?V0 + 0
   \   00002E   12....       LCALL   ?PUSH_XSTACK_I_TWO
   \   000031   E4           CLR     A
   \   000032   F5..         MOV     ?V0 + 0,A
   \   000034   F5..         MOV     ?V0 + 1,A
   \   000036   78..         MOV     R0,#?V0 + 0
   \   000038   12....       LCALL   ?PUSH_XSTACK_I_TWO
   \   00003B   EE           MOV     A,R6
   \   00003C   240E         ADD     A,#0xe
   \   00003E   12....       LCALL   ??Subroutine58_0 & 0xFFFF
   \                     ??CrossCallReturnLabel_109:
   \   000041   FD           MOV     R5,A
   \   000042   7C84         MOV     R4,#-0x7c
   \   000044   EE           MOV     A,R6
   \   000045   2402         ADD     A,#0x2
   \   000047   0A           INC     R2
   \   000048   0A           INC     R2
   \   000049   EF           MOV     A,R7
   \   00004A   3400         ADDC    A,#0x0
   \   00004C   FB           MOV     R3,A
   \   00004D   EE           MOV     A,R6
   \   00004E   240F         ADD     A,#0xf
   \   000050   12....       LCALL   ??Subroutine58_0 & 0xFFFF
   \                     ??CrossCallReturnLabel_110:
   \   000053   F9           MOV     R1,A
   \   000054   12....       LCALL   ??ZDP_GenericRsp?relay
   \   000057   7404         MOV     A,#0x4
   \   000059   12....       LCALL   ?DEALLOC_XSTACK8
   2802          }
   \                     ??ZDApp_InMsgCB_0:
   \   00005C   02....       LJMP    ??Subroutine51_0 & 0xFFFF
   2803          
   2804          
   2805          /*********************************************************************
   2806           * @fn      ZDApp_ChangeMatchDescRespPermission()
   2807           *
   2808           * @brief   Changes the Match Descriptor Response permission.
   2809           *
   2810           * @param   endpoint - endpoint to allow responses
   2811           * @param   action - true to allow responses, false to not
   2812           *
   2813           * @return  none
   2814           */

   \                                 In  segment BANKED_CODE, align 1, keep-with-next
   2815          void ZDApp_ChangeMatchDescRespPermission( uint8 endpoint, uint8 action )
   \                     ZDApp_ChangeMatchDescRespPermission:
   2816          {
   \   000000   74F7         MOV     A,#-0x9
   \   000002   12....       LCALL   ?BANKED_ENTER_XDATA
   \   000005                ; Saved register size: 9
   \   000005                ; Auto size: 0
   2817            // Store the action
   2818            afSetMatch( endpoint, action );
   \   000005                ; Setup parameters for call to function afSetMatch
   \   000005   12....       LCALL   ??afSetMatch?relay
   2819          }
   \   000008   02....       LJMP    ??Subroutine49_0 & 0xFFFF
   2820          
   2821          /*********************************************************************
   2822           * @fn      ZDApp_NetworkInit()
   2823           *
   2824           * @brief   Used to start the network joining process
   2825           *
   2826           * @param   delay - mSec delay to wait before starting
   2827           *
   2828           * @return  none
   2829           */

   \                                 In  segment BANKED_CODE, align 1, keep-with-next
   2830          void ZDApp_NetworkInit( uint16 delay )
   \                     ZDApp_NetworkInit:
   2831          {
   \   000000   C082         PUSH    DPL
   \   000002   C083         PUSH    DPH
   \   000004                ; Saved register size: 2
   \   000004                ; Auto size: 0
   2832            if ( delay )
   \   000004   EA           MOV     A,R2
   \   000005   4B           ORL     A,R3
   \   000006   600B         JZ      ??ZDApp_NetworkInit_0
   2833            {
   2834              // Wait awhile before starting the device
   2835              osal_start_timerEx( ZDAppTaskID, ZDO_NETWORK_INIT, delay );
   \   000008                ; Setup parameters for call to function osal_start_timerEx
   \   000008   EA           MOV     A,R2
   \   000009   FC           MOV     R4,A
   \   00000A   EB           MOV     A,R3
   \   00000B   FD           MOV     R5,A
   \   00000C   7A01         MOV     R2,#0x1
   \   00000E   12....       LCALL   ?Subroutine25 & 0xFFFF
   2836            }
   \                     ??CrossCallReturnLabel_87:
   \   000011   8005         SJMP    ??CrossCallReturnLabel_70
   2837            else
   2838            {
   2839          //****************网络初始化事件**********************************************//
   2840              osal_set_event( ZDAppTaskID, ZDO_NETWORK_INIT );
   \                     ??ZDApp_NetworkInit_0:
   \   000013                ; Setup parameters for call to function osal_set_event
   \   000013   7A01         MOV     R2,#0x1
   \   000015   12....       LCALL   ??Subroutine42_0 & 0xFFFF
   2841            }
   2842          }
   \                     ??CrossCallReturnLabel_70:
   \   000018   02....       LJMP    ?Subroutine2 & 0xFFFF
   2843          
   2844          /*********************************************************************
   2845           * @fn      ZDApp_NwkStateUpdateCB()
   2846           *
   2847           * @brief   This function notifies that this device's network
   2848           *          state info has been changed.
   2849           *
   2850           * @param   none
   2851           *
   2852           * @return  none
   2853           */

   \                                 In  segment BANKED_CODE, align 1, keep-with-next
   2854          void ZDApp_NwkStateUpdateCB( void )
   \                     ZDApp_NwkStateUpdateCB:
   2855          {
   \   000000   C082         PUSH    DPL
   \   000002   C083         PUSH    DPH
   \   000004                ; Saved register size: 2
   \   000004                ; Auto size: 0
   2856            // Notify to save info into NV
   2857            if ( !osal_get_timeoutEx( ZDAppTaskID, ZDO_NWK_UPDATE_NV ) )
   \   000004                ; Setup parameters for call to function osal_get_timeoutEx
   \   000004   7A00         MOV     R2,#0x0
   \   000006   7B02         MOV     R3,#0x2
   \   000008   90....       MOV     DPTR,#ZDAppTaskID
   \   00000B   E0           MOVX    A,@DPTR
   \   00000C   F9           MOV     R1,A
   \   00000D   12....       LCALL   ??osal_get_timeoutEx?relay
   2858            {
   2859              // Trigger to save info into NV
   2860              ZDApp_NVUpdate();
   2861            }
   2862          }
   \   000010   02....       LJMP    ?Subroutine2 & 0xFFFF
   2863          
   2864          /*********************************************************************
   2865           * @fn      ZDApp_NodeProfileSync()
   2866           *
   2867           * @brief   Sync node with stack profile.
   2868           *
   2869           * @param   stackProfile - stack profile of the network to join
   2870           *
   2871           * @return  none
   2872           */

   \                                 In  segment BANKED_CODE, align 1, keep-with-next
   2873          void ZDApp_NodeProfileSync( uint8 stackProfile )
   \                     ZDApp_NodeProfileSync:
   2874          {
   \   000000   74F7         MOV     A,#-0x9
   \   000002   12....       LCALL   ?BANKED_ENTER_XDATA
   \   000005                ; Saved register size: 9
   \   000005                ; Auto size: 0
   \   000005   E9           MOV     A,R1
   \   000006   FE           MOV     R6,A
   2875            if ( ZDO_Config_Node_Descriptor.CapabilityFlags & CAPINFO_DEVICETYPE_FFD  )
   \   000007   90....       MOV     DPTR,#ZDO_Config_Node_Descriptor + 2
   \   00000A   E0           MOVX    A,@DPTR
   \   00000B   A2E1         MOV     C,0xE0 /* A   */.1
   \   00000D   501A         JNC     ??ZDApp_NodeProfileSync_0
   2876            {
   2877              if ( stackProfile != zgStackProfile )
   \   00000F   90....       MOV     DPTR,#zgStackProfile
   \   000012   E0           MOVX    A,@DPTR
   \   000013   6E           XRL     A,R6
   \   000014   6013         JZ      ??ZDApp_NodeProfileSync_0
   2878              {
   2879                ZDO_Config_Node_Descriptor.LogicalType = NODETYPE_DEVICE;
   \   000016   90....       MOV     DPTR,#ZDO_Config_Node_Descriptor
   \   000019   E0           MOVX    A,@DPTR
   \   00001A   54F8         ANL     A,#0xf8
   \   00001C   4402         ORL     A,#0x2
   \   00001E   F0           MOVX    @DPTR,A
   2880                ZDO_Config_Node_Descriptor.CapabilityFlags = CAPINFO_DEVICETYPE_RFD | CAPINFO_POWER_AC | CAPINFO_RCVR_ON_IDLE;
   \   00001F   90....       MOV     DPTR,#ZDO_Config_Node_Descriptor + 2
   \   000022   740C         MOV     A,#0xc
   \   000024   F0           MOVX    @DPTR,A
   2881                NLME_SetBroadcastFilter( ZDO_Config_Node_Descriptor.CapabilityFlags );
   \   000025                ; Setup parameters for call to function NLME_SetBroadcastFilter
   \   000025   F9           MOV     R1,A
   \   000026   12....       LCALL   ??NLME_SetBroadcastFilter?relay
   2882              }
   2883            }
   2884          }
   \                     ??ZDApp_NodeProfileSync_0:
   \   000029   02....       LJMP    ??Subroutine49_0 & 0xFFFF
   2885          
   2886          /*********************************************************************
   2887           * @fn      ZDApp_StartJoiningCycle()
   2888           *
   2889           * @brief   Starts the joining cycle of a device.  This will only
   2890           *          continue an already started (or stopped) joining cycle.
   2891           *
   2892           * @param   none
   2893           *
   2894           * @return  TRUE if joining stopped, FALSE if joining or rejoining
   2895           */

   \                                 In  segment BANKED_CODE, align 1, keep-with-next
   2896          uint8 ZDApp_StartJoiningCycle( void )
   \                     ZDApp_StartJoiningCycle:
   2897          {
   \   000000   C082         PUSH    DPL
   \   000002   C083         PUSH    DPH
   \   000004                ; Saved register size: 2
   \   000004                ; Auto size: 0
   2898            if ( devState == DEV_INIT || devState == DEV_NWK_DISC )
   \   000004   90....       MOV     DPTR,#devState
   \   000007   E0           MOVX    A,@DPTR
   \   000008   6401         XRL     A,#0x1
   \   00000A   6005         JZ      ??ZDApp_StartJoiningCycle_0
   \   00000C   E0           MOVX    A,@DPTR
   \   00000D   6402         XRL     A,#0x2
   \   00000F   7011         JNZ     ??ZDApp_StartJoiningCycle_1
   2899            {
   2900              continueJoining = TRUE;
   \                     ??ZDApp_StartJoiningCycle_0:
   \   000011   90....       MOV     DPTR,#continueJoining
   \   000014   7401         MOV     A,#0x1
   \   000016   F0           MOVX    @DPTR,A
   2901              ZDApp_NetworkInit( 0 );
   \   000017                ; Setup parameters for call to function ZDApp_NetworkInit
   \   000017   7A00         MOV     R2,#0x0
   \   000019   7B00         MOV     R3,#0x0
   \   00001B   12....       LCALL   ??ZDApp_NetworkInit?relay
   2902          
   2903              return ( TRUE );
   \   00001E   7901         MOV     R1,#0x1
   \   000020   8002         SJMP    ??ZDApp_StartJoiningCycle_2
   2904            }
   2905            else
   2906              return ( FALSE );
   \                     ??ZDApp_StartJoiningCycle_1:
   \   000022   7900         MOV     R1,#0x0
   \                     ??ZDApp_StartJoiningCycle_2:
   \   000024   02....       LJMP    ?Subroutine2 & 0xFFFF
   2907          }
   2908          
   2909          /*********************************************************************
   2910           * @fn      ZDApp_StopJoiningCycle()
   2911           *
   2912           * @brief   Stops the joining or rejoining process of a device.
   2913           *
   2914           * @param   none
   2915           *
   2916           * @return  TRUE if joining stopped, FALSE if joining or rejoining
   2917           */

   \                                 In  segment BANKED_CODE, align 1, keep-with-next
   2918          uint8 ZDApp_StopJoiningCycle( void )
   \                     ZDApp_StopJoiningCycle:
   2919          {
   \   000000   C082         PUSH    DPL
   \   000002   C083         PUSH    DPH
   \   000004                ; Saved register size: 2
   \   000004                ; Auto size: 0
   2920            if ( devState == DEV_INIT || devState == DEV_NWK_DISC )
   \   000004   90....       MOV     DPTR,#devState
   \   000007   E0           MOVX    A,@DPTR
   \   000008   6401         XRL     A,#0x1
   \   00000A   6005         JZ      ??ZDApp_StopJoiningCycle_0
   \   00000C   E0           MOVX    A,@DPTR
   \   00000D   6402         XRL     A,#0x2
   \   00000F   7009         JNZ     ??ZDApp_StopJoiningCycle_1
   2921            {
   2922              continueJoining = FALSE;
   \                     ??ZDApp_StopJoiningCycle_0:
   \   000011   90....       MOV     DPTR,#continueJoining
   \   000014   E4           CLR     A
   \   000015   F0           MOVX    @DPTR,A
   2923              return ( TRUE );
   \   000016   7901         MOV     R1,#0x1
   \   000018   8002         SJMP    ??ZDApp_StopJoiningCycle_2
   2924            }
   2925            else
   2926              return ( FALSE );
   \                     ??ZDApp_StopJoiningCycle_1:
   \   00001A   7900         MOV     R1,#0x0
   \                     ??ZDApp_StopJoiningCycle_2:
   \   00001C   02....       LJMP    ?Subroutine2 & 0xFFFF
   2927          }
   2928          
   2929          /*********************************************************************
   2930           * @fn      ZDApp_AnnounceNewAddress()
   2931           *
   2932           * @brief   Send Device Announce and hold all transmissions for
   2933           *          new address timeout.
   2934           *
   2935           * @param   none
   2936           *
   2937           * @return  none
   2938           */

   \                                 In  segment BANKED_CODE, align 1, keep-with-next
   2939          void ZDApp_AnnounceNewAddress( void )
   \                     ZDApp_AnnounceNewAddress:
   2940          {
   \   000000   74F6         MOV     A,#-0xa
   \   000002   12....       LCALL   ?BANKED_ENTER_XDATA
   \   000005                ; Saved register size: 10
   \   000005                ; Auto size: 0
   2941          #if defined ( ZIGBEE_NWK_UNIQUE_ADDR_CHECK )
   2942            // Turn off data request hold
   2943            APSME_HoldDataRequests( 0 );
   \   000005                ; Setup parameters for call to function APSME_HoldDataRequests
   \   000005   7A00         MOV     R2,#0x0
   \   000007   7B00         MOV     R3,#0x0
   \   000009   12....       LCALL   ??APSME_HoldDataRequests?relay
   2944          #endif
   2945          
   2946            ZDP_DeviceAnnce( NLME_GetShortAddr(), NLME_GetExtAddr(),
   2947                               ZDO_Config_Node_Descriptor.CapabilityFlags, 0 );
   \   00000C                ; Setup parameters for call to function NLME_GetExtAddr
   \   00000C   12....       LCALL   ??NLME_GetExtAddr?relay
   \   00000F   8A..         MOV     ?V0 + 0,R2
   \   000011   8B..         MOV     ?V0 + 1,R3
   \   000013   AE..         MOV     R6,?V0 + 0
   \   000015                ; Setup parameters for call to function NLME_GetShortAddr
   \   000015   12....       LCALL   ??NLME_GetShortAddr?relay
   \   000018                ; Setup parameters for call to function ZDP_DeviceAnnce
   \   000018   75..00       MOV     ?V0 + 0,#0x0
   \   00001B   78..         MOV     R0,#?V0 + 0
   \   00001D   12....       LCALL   ?PUSH_XSTACK_I_ONE
   \   000020   90....       MOV     DPTR,#ZDO_Config_Node_Descriptor + 2
   \   000023   E0           MOVX    A,@DPTR
   \   000024   F9           MOV     R1,A
   \   000025   EE           MOV     A,R6
   \   000026   FC           MOV     R4,A
   \   000027   AD..         MOV     R5,?V0 + 1
   \   000029   12....       LCALL   ??ZDP_DeviceAnnce?relay
   \   00002C   7401         MOV     A,#0x1
   \   00002E   12....       LCALL   ?DEALLOC_XSTACK8
   2948          
   2949          #if defined ( ZIGBEE_NWK_UNIQUE_ADDR_CHECK )
   2950            // Setup the timeout
   2951            APSME_HoldDataRequests( ZDAPP_HOLD_DATA_REQUESTS_TIMEOUT );
   \   000031                ; Setup parameters for call to function APSME_HoldDataRequests
   \   000031   7A00         MOV     R2,#0x0
   \   000033   7B00         MOV     R3,#0x0
   \   000035   12....       LCALL   ??APSME_HoldDataRequests?relay
   2952          #endif
   2953          }
   \   000038   02....       LJMP    ??Subroutine51_0 & 0xFFFF
   2954          
   2955          /*********************************************************************
   2956           * @fn          ZDApp_NVUpdate
   2957           *
   2958           * @brief       Set the NV Update Timer.
   2959           *
   2960           * @param       none
   2961           *
   2962           * @return      none
   2963           */

   \                                 In  segment BANKED_CODE, align 1, keep-with-next
   2964          void ZDApp_NVUpdate( void )
   \                     ZDApp_NVUpdate:
   2965          {
   \   000000                ; Saved register size: 0
   \   000000                ; Auto size: 0
   2966          #if defined ( NV_RESTORE )
   2967            osal_start_timerEx( ZDAppTaskID, ZDO_NWK_UPDATE_NV, ZDAPP_UPDATE_NWK_NV_TIME );
   2968          #endif
   2969          }
   \   000000   02....       LJMP    ?BRET
   2970          
   2971          /*********************************************************************
   2972           * @fn      ZDApp_CoordStartPANIDConflictCB()
   2973           *
   2974           * @brief   Returns a PAN ID for the network layer to use during
   2975           *          a coordinator start and there is another network with
   2976           *          the intended PANID.
   2977           *
   2978           * @param   panid - the intended PAN ID
   2979           *
   2980           * @return  PANID to try
   2981           */

   \                                 In  segment BANKED_CODE, align 1, keep-with-next
   2982          uint16 ZDApp_CoordStartPANIDConflictCB( uint16 panid )
   \                     ZDApp_CoordStartPANIDConflictCB:
   2983          {
   \   000000                ; Saved register size: 0
   \   000000                ; Auto size: 0
   2984            return ( panid + 1 );
   \   000000   EA           MOV     A,R2
   \   000001   2401         ADD     A,#0x1
   \   000003   0A           INC     R2
   \   000004   EB           MOV     A,R3
   \   000005   3400         ADDC    A,#0x0
   \   000007   FB           MOV     R3,A
   \   000008   02....       LJMP    ?BRET
   2985          }
   2986          
   2987          /*********************************************************************
   2988           * @fn          ZDO_SrcRtgIndCB
   2989           *
   2990           * @brief       This function notifies the ZDO available src route record received.
   2991           *
   2992           * @param       srcAddr - source address of the source route
   2993           * @param       relayCnt - number of devices in the relay list
   2994           * @param       relayList - relay list of the source route
   2995           *
   2996           * @return      none
   2997           */

   \                                 In  segment BANKED_CODE, align 1, keep-with-next
   2998          void ZDO_SrcRtgIndCB (uint16 srcAddr, uint8 relayCnt, uint16* pRelayList )
   \                     ZDO_SrcRtgIndCB:
   2999          {
   \   000000   74F7         MOV     A,#-0x9
   \   000002   12....       LCALL   ?BANKED_ENTER_XDATA
   \   000005                ; Saved register size: 9
   \   000005                ; Auto size: 5
   \   000005   74FB         MOV     A,#-0x5
   \   000007   12....       LCALL   ?ALLOC_XSTACK8
   3000            zdoSrcRtg_t srcRtg;
   3001          
   3002            srcRtg.srcAddr = srcAddr;
   \   00000A   12....       LCALL   ?Subroutine14 & 0xFFFF
   3003            srcRtg.relayCnt = relayCnt;
   \                     ??CrossCallReturnLabel_129:
   \   00000D   7402         MOV     A,#0x2
   \   00000F   12....       LCALL   ?XSTACK_DISP0_8
   \   000012   E9           MOV     A,R1
   \   000013   F0           MOVX    @DPTR,A
   3004            srcRtg.pRelayList = pRelayList;
   \   000014   7403         MOV     A,#0x3
   \   000016   12....       LCALL   ?XSTACK_DISP0_8
   \   000019   EC           MOV     A,R4
   \   00001A   F0           MOVX    @DPTR,A
   \   00001B   A3           INC     DPTR
   \   00001C   ED           MOV     A,R5
   \   00001D   F0           MOVX    @DPTR,A
   3005          
   3006            if( zdoCBFunc[ZDO_SRC_RTG_IND_CBID] != NULL )
   \   00001E   90....       MOV     DPTR,#zdoCBFunc
   \   000021   12....       LCALL   ?Subroutine16 & 0xFFFF
   \                     ??CrossCallReturnLabel_21:
   \   000024   6013         JZ      ??ZDO_SrcRtgIndCB_0
   3007            {
   3008              zdoCBFunc[ZDO_SRC_RTG_IND_CBID]( (void*)&srcRtg );
   \   000026                ; Setup parameters for indirect call
   \   000026   85..82       MOV     DPL,?XSP + 0
   \   000029   85..83       MOV     DPH,?XSP + 1
   \   00002C   AA82         MOV     R2,DPL
   \   00002E   AB83         MOV     R3,DPH
   \   000030   90....       MOV     DPTR,#zdoCBFunc + 1
   \   000033   12....       LCALL   ??Subroutine57_0 & 0xFFFF
   3009            }
   \                     ??CrossCallReturnLabel_99:
   \   000036   12....       LCALL   ?CALL_IND
   3010          }
   \                     ??ZDO_SrcRtgIndCB_0:
   \   000039   02....       LJMP    ?Subroutine6 & 0xFFFF
   3011          
   3012          /*********************************************************************
   3013           * @fn          ZDApp_InitZdoCBFunc
   3014           *
   3015           * @brief       Call this function to initialize zdoCBFunc[]
   3016           *
   3017           * @param       none
   3018           *
   3019           * @return      none
   3020           */

   \                                 In  segment BANKED_CODE, align 1, keep-with-next
   3021          void ZDApp_InitZdoCBFunc( void )
   \                     ZDApp_InitZdoCBFunc:
   3022          {
   \   000000   C082         PUSH    DPL
   \   000002   C083         PUSH    DPH
   \   000004                ; Saved register size: 2
   \   000004                ; Auto size: 0
   3023            uint8 i;
   3024          
   3025            for ( i=0; i< MAX_ZDO_CB_FUNC; i++ )
   \   000004   7A00         MOV     R2,#0x0
   3026            {
   3027              zdoCBFunc[i] = NULL;
   \                     ??ZDApp_InitZdoCBFunc_0:
   \   000006   12....       LCALL   ?Subroutine29 & 0xFFFF
   3028            }
   \                     ??CrossCallReturnLabel_39:
   \   000009   0A           INC     R2
   \   00000A   EA           MOV     A,R2
   \   00000B   C3           CLR     C
   \   00000C   9407         SUBB    A,#0x7
   \   00000E   40F6         JC      ??ZDApp_InitZdoCBFunc_0
   3029          }
   \   000010   02....       LJMP    ?Subroutine2 & 0xFFFF

   \                                 In  segment BANKED_CODE, align 1, keep-with-next
   \                     ?Subroutine29:
   \   000000   EA           MOV     A,R2
   \   000001   12....       LCALL   ?Subroutine41 & 0xFFFF
   \                     ??CrossCallReturnLabel_62:
   \   000004   E4           CLR     A
   \   000005   F0           MOVX    @DPTR,A
   \   000006   A3           INC     DPTR
   \   000007   F0           MOVX    @DPTR,A
   \   000008   22           RET

   \                                 In  segment BANKED_CODE, align 1, keep-with-next
   \                     ?Subroutine41:
   \   000000   C3           CLR     C
   \   000001   33           RLC     A
   \   000002   F8           MOV     R0,A
   \   000003   E4           CLR     A
   \   000004   33           RLC     A
   \   000005   F9           MOV     R1,A
   \   000006   74..         MOV     A,#zdoCBFunc & 0xff
   \   000008   28           ADD     A,R0
   \   000009   F582         MOV     DPL,A
   \   00000B   74..         MOV     A,#(zdoCBFunc >> 8) & 0xff
   \   00000D   39           ADDC    A,R1
   \   00000E   F583         MOV     DPH,A
   \   000010   22           RET
   3030          
   3031          /*********************************************************************
   3032           * @fn          ZDO_RegisterForZdoCB
   3033           *
   3034           * @brief       Call this function to register the higher layer (for
   3035           *              example, the Application layer or MT layer) with ZDO
   3036           *              callbacks to get notified of some ZDO indication like
   3037           *              existence of a concentrator or receipt of a source
   3038           *              route record.
   3039           *
   3040           * @param       indID - ZDO Indication ID
   3041           * @param       pFn   - Callback function pointer
   3042           *
   3043           * @return      ZSuccess - successful, ZInvalidParameter if not
   3044           */

   \                                 In  segment BANKED_CODE, align 1, keep-with-next
   3045          ZStatus_t ZDO_RegisterForZdoCB( uint8 indID, pfnZdoCb pFn )
   \                     ZDO_RegisterForZdoCB:
   3046          {
   \   000000   C082         PUSH    DPL
   \   000002   C083         PUSH    DPH
   \   000004                ; Saved register size: 2
   \   000004                ; Auto size: 0
   \   000004   E9           MOV     A,R1
   \   000005   FC           MOV     R4,A
   3047            // Check the range of the indication ID
   3048            if ( indID < MAX_ZDO_CB_FUNC )
   \   000006   C3           CLR     C
   \   000007   9407         SUBB    A,#0x7
   \   000009   500B         JNC     ??ZDO_RegisterForZdoCB_0
   3049            {
   3050              zdoCBFunc[indID] = pFn;
   \   00000B   EC           MOV     A,R4
   \   00000C   12....       LCALL   ?Subroutine41 & 0xFFFF
   \                     ??CrossCallReturnLabel_61:
   \   00000F   12....       LCALL   ??Subroutine60_0 & 0xFFFF
   3051              return ZSuccess;
   \                     ??CrossCallReturnLabel_126:
   \   000012   7900         MOV     R1,#0x0
   \   000014   8002         SJMP    ??ZDO_RegisterForZdoCB_1
   3052            }
   3053          
   3054            return ZInvalidParameter;
   \                     ??ZDO_RegisterForZdoCB_0:
   \   000016   7902         MOV     R1,#0x2
   \                     ??ZDO_RegisterForZdoCB_1:
   \   000018   02....       LJMP    ?Subroutine2 & 0xFFFF
   3055          }
   3056          
   3057          /*********************************************************************
   3058           * @fn          ZDO_DeregisterForZdoCB
   3059           *
   3060           * @brief       Call this function to de-register the higher layer (for
   3061           *              example, the Application layer or MT layer) with ZDO
   3062           *              callbacks to get notified of some ZDO indication like
   3063           *              existence of a concentrator or receipt of a source
   3064           *              route record.
   3065           *
   3066           * @param       indID - ZDO Indication ID
   3067           *
   3068           * @return      ZSuccess - successful, ZInvalidParameter if not
   3069           */

   \                                 In  segment BANKED_CODE, align 1, keep-with-next
   3070          ZStatus_t ZDO_DeregisterForZdoCB( uint8 indID )
   \                     ZDO_DeregisterForZdoCB:
   3071          {
   \   000000   C082         PUSH    DPL
   \   000002   C083         PUSH    DPH
   \   000004                ; Saved register size: 2
   \   000004                ; Auto size: 0
   \   000004   E9           MOV     A,R1
   \   000005   FA           MOV     R2,A
   3072            // Check the range of the indication ID
   3073            if ( indID < MAX_ZDO_CB_FUNC )
   \   000006   C3           CLR     C
   \   000007   9407         SUBB    A,#0x7
   \   000009   5006         JNC     ??ZDO_DeregisterForZdoCB_0
   3074            {
   3075              zdoCBFunc[indID] = NULL;
   \   00000B   12....       LCALL   ?Subroutine29 & 0xFFFF
   3076              return ZSuccess;
   \                     ??CrossCallReturnLabel_40:
   \   00000E   F9           MOV     R1,A
   \   00000F   8002         SJMP    ??ZDO_DeregisterForZdoCB_1
   3077            }
   3078          
   3079            return ZInvalidParameter;
   \                     ??ZDO_DeregisterForZdoCB_0:
   \   000011   7902         MOV     R1,#0x2
   \                     ??ZDO_DeregisterForZdoCB_1:
   \   000013   02....       LJMP    ?Subroutine2 & 0xFFFF
   3080          }

   \                                 In  segment XDATA_ID, align 1, keep-with-next
   \                     `?<Initializer for zdoDiscCounter>`:
   \   000000   01           DB 1

   \                                 In  segment XDATA_ID, align 1, keep-with-next
   \                     `?<Initializer for continueJoining>`:
   \   000000   01           DB 1

   \                                 In  segment XDATA_ID, align 1, keep-with-next
   \                     `?<Initializer for devState>`:
   \   000000   01           DB 1

   \                                 In  segment XDATA_ID, align 1, keep-with-next
   \                     `?<Initializer for ZDApp_epDesc>`:
   \   000000   00           DB 0
   \   000001   ....         DW ZDAppTaskID
   \   000003   0000         DW 0H
   \   000005   00           DB 0

   \                                 In  segment XDATA_ID, align 1, keep-with-next
   \                     `?<Initializer for ZDApp_SavedPollRate>`:
   \   000000   E803         DW 1000

   \                                 In  segment XDATA_ROM_C, align 1
   \                     __Constant_36ee81:
   \   000000   81EE3600     DD 3600001

   \                                 In  segment XDATA_ROM_C, align 1
   \                     __Constant_36ee80:
   \   000000   80EE3600     DD 3600000

   \                                 In  segment XDATA_ROM_C, align 1
   \                     __Constant_1:
   \   000000   01000000     DD 1

   \                                 In  segment XDATA_ROM_C, align 1
   \                     __Constant_3e8:
   \   000000   E8030000     DD 1000

   \                                 In  segment BANK_RELAYS, align 1
   \                     ??ZDApp_Init?relay:
   \   000000   12....       LCALL   ?BDISPATCH
   \   000003   ......       DC24    ZDApp_Init

   \                                 In  segment BANK_RELAYS, align 1
   \                     ??ZDApp_SecInit?relay:
   \   000000   12....       LCALL   ?BDISPATCH
   \   000003   ......       DC24    ZDApp_SecInit

   \                                 In  segment BANK_RELAYS, align 1
   \                     ??ZDApp_event_loop?relay:
   \   000000   12....       LCALL   ?BDISPATCH
   \   000003   ......       DC24    ZDApp_event_loop

   \                                 In  segment BANK_RELAYS, align 1
   \                     ??ZDApp_ProcessSecEvent?relay:
   \   000000   12....       LCALL   ?BDISPATCH
   \   000003   ......       DC24    ZDApp_ProcessSecEvent

   \                                 In  segment BANK_RELAYS, align 1
   \                     ??ZDOInitDevice?relay:
   \   000000   12....       LCALL   ?BDISPATCH
   \   000003   ......       DC24    ZDOInitDevice

   \                                 In  segment BANK_RELAYS, align 1
   \                     ??ZDApp_ReadNetworkRestoreState?relay:
   \   000000   12....       LCALL   ?BDISPATCH
   \   000003   ......       DC24    ZDApp_ReadNetworkRestoreState

   \                                 In  segment BANK_RELAYS, align 1
   \                     ??ZDAppDetermineDeviceType?relay:
   \   000000   12....       LCALL   ?BDISPATCH
   \   000003   ......       DC24    ZDAppDetermineDeviceType

   \                                 In  segment BANK_RELAYS, align 1
   \                     ??ZDApp_NetworkStartEvt?relay:
   \   000000   12....       LCALL   ?BDISPATCH
   \   000003   ......       DC24    ZDApp_NetworkStartEvt

   \                                 In  segment BANK_RELAYS, align 1
   \                     ??ZDApp_DeviceAuthEvt?relay:
   \   000000   12....       LCALL   ?BDISPATCH
   \   000003   ......       DC24    ZDApp_DeviceAuthEvt

   \                                 In  segment BANK_RELAYS, align 1
   \                     ??ZDApp_SaveNetworkStateEvt?relay:
   \   000000   12....       LCALL   ?BDISPATCH
   \   000003   ......       DC24    ZDApp_SaveNetworkStateEvt

   \                                 In  segment BANK_RELAYS, align 1
   \                     ??ZDApp_RestoreNetworkState?relay:
   \   000000   12....       LCALL   ?BDISPATCH
   \   000003   ......       DC24    ZDApp_RestoreNetworkState

   \                                 In  segment BANK_RELAYS, align 1
   \                     ??ZDApp_InitUserDesc?relay:
   \   000000   12....       LCALL   ?BDISPATCH
   \   000003   ......       DC24    ZDApp_InitUserDesc

   \                                 In  segment BANK_RELAYS, align 1
   \                     ??ZDAppCheckForHoldKey?relay:
   \   000000   12....       LCALL   ?BDISPATCH
   \   000003   ......       DC24    ZDAppCheckForHoldKey

   \                                 In  segment BANK_RELAYS, align 1
   \                     ??ZDApp_ProcessOSALMsg?relay:
   \   000000   12....       LCALL   ?BDISPATCH
   \   000003   ......       DC24    ZDApp_ProcessOSALMsg

   \                                 In  segment BANK_RELAYS, align 1
   \                     ??ZDApp_ProcessMsgCBs?relay:
   \   000000   12....       LCALL   ?BDISPATCH
   \   000003   ......       DC24    ZDApp_ProcessMsgCBs

   \                                 In  segment BANK_RELAYS, align 1
   \                     ??ZDApp_RegisterCBs?relay:
   \   000000   12....       LCALL   ?BDISPATCH
   \   000003   ......       DC24    ZDApp_RegisterCBs

   \                                 In  segment BANK_RELAYS, align 1
   \                     ??ZDApp_ProcessSecMsg?relay:
   \   000000   12....       LCALL   ?BDISPATCH
   \   000003   ......       DC24    ZDApp_ProcessSecMsg

   \                                 In  segment BANK_RELAYS, align 1
   \                     ??ZDApp_ProcessNetworkJoin?relay:
   \   000000   12....       LCALL   ?BDISPATCH
   \   000003   ......       DC24    ZDApp_ProcessNetworkJoin

   \                                 In  segment BANK_RELAYS, align 1
   \                     ??ZDApp_SaveNwkKey?relay:
   \   000000   12....       LCALL   ?BDISPATCH
   \   000003   ......       DC24    ZDApp_SaveNwkKey

   \                                 In  segment BANK_RELAYS, align 1
   \                     ??ZDApp_ResetNwkKey?relay:
   \   000000   12....       LCALL   ?BDISPATCH
   \   000003   ......       DC24    ZDApp_ResetNwkKey

   \                                 In  segment BANK_RELAYS, align 1
   \                     ??ZDApp_RestoreNwkKey?relay:
   \   000000   12....       LCALL   ?BDISPATCH
   \   000003   ......       DC24    ZDApp_RestoreNwkKey

   \                                 In  segment BANK_RELAYS, align 1
   \                     ??ZDApp_ResetTimerStart?relay:
   \   000000   12....       LCALL   ?BDISPATCH
   \   000003   ......       DC24    ZDApp_ResetTimerStart

   \                                 In  segment BANK_RELAYS, align 1
   \                     ??ZDApp_ResetTimerCancel?relay:
   \   000000   12....       LCALL   ?BDISPATCH
   \   000003   ......       DC24    ZDApp_ResetTimerCancel

   \                                 In  segment BANK_RELAYS, align 1
   \                     ??ZDApp_LeaveCtrlInit?relay:
   \   000000   12....       LCALL   ?BDISPATCH
   \   000003   ......       DC24    ZDApp_LeaveCtrlInit

   \                                 In  segment BANK_RELAYS, align 1
   \                     ??ZDApp_LeaveCtrlSet?relay:
   \   000000   12....       LCALL   ?BDISPATCH
   \   000003   ......       DC24    ZDApp_LeaveCtrlSet

   \                                 In  segment BANK_RELAYS, align 1
   \                     ??ZDApp_LeaveCtrlReset?relay:
   \   000000   12....       LCALL   ?BDISPATCH
   \   000003   ......       DC24    ZDApp_LeaveCtrlReset

   \                                 In  segment BANK_RELAYS, align 1
   \                     ??ZDApp_LeaveCtrlBypass?relay:
   \   000000   12....       LCALL   ?BDISPATCH
   \   000003   ......       DC24    ZDApp_LeaveCtrlBypass

   \                                 In  segment BANK_RELAYS, align 1
   \                     ??ZDApp_LeaveCtrlStartup?relay:
   \   000000   12....       LCALL   ?BDISPATCH
   \   000003   ......       DC24    ZDApp_LeaveCtrlStartup

   \                                 In  segment BANK_RELAYS, align 1
   \                     ??ZDApp_LeaveReset?relay:
   \   000000   12....       LCALL   ?BDISPATCH
   \   000003   ......       DC24    ZDApp_LeaveReset

   \                                 In  segment BANK_RELAYS, align 1
   \                     ??ZDApp_LeaveUpdate?relay:
   \   000000   12....       LCALL   ?BDISPATCH
   \   000003   ......       DC24    ZDApp_LeaveUpdate

   \                                 In  segment BANK_RELAYS, align 1
   \                     ??ZDApp_NetworkDiscoveryReq?relay:
   \   000000   12....       LCALL   ?BDISPATCH
   \   000003   ......       DC24    ZDApp_NetworkDiscoveryReq

   \                                 In  segment BANK_RELAYS, align 1
   \                     ??ZDApp_JoinReq?relay:
   \   000000   12....       LCALL   ?BDISPATCH
   \   000003   ......       DC24    ZDApp_JoinReq

   \                                 In  segment BANK_RELAYS, align 1
   \                     ??ZDApp_DeviceConfigured?relay:
   \   000000   12....       LCALL   ?BDISPATCH
   \   000003   ......       DC24    ZDApp_DeviceConfigured

   \                                 In  segment BANK_RELAYS, align 1
   \                     ??ZDApp_SendEventMsg?relay:
   \   000000   12....       LCALL   ?BDISPATCH
   \   000003   ......       DC24    ZDApp_SendEventMsg

   \                                 In  segment BANK_RELAYS, align 1
   \                     ??ZDApp_SendMsg?relay:
   \   000000   12....       LCALL   ?BDISPATCH
   \   000003   ......       DC24    ZDApp_SendMsg

   \                                 In  segment BANK_RELAYS, align 1
   \                     ??ZDO_NetworkDiscoveryConfirmCB?relay:
   \   000000   12....       LCALL   ?BDISPATCH
   \   000003   ......       DC24    ZDO_NetworkDiscoveryConfirmCB

   \                                 In  segment BANK_RELAYS, align 1
   \                     ??ZDApp_NwkDescListProcessing?relay:
   \   000000   12....       LCALL   ?BDISPATCH
   \   000003   ......       DC24    ZDApp_NwkDescListProcessing

   \                                 In  segment BANK_RELAYS, align 1
   \                     ??ZDO_NetworkFormationConfirmCB?relay:
   \   000000   12....       LCALL   ?BDISPATCH
   \   000003   ......       DC24    ZDO_NetworkFormationConfirmCB

   \                                 In  segment BANK_RELAYS, align 1
   \                     ??ZDO_beaconNotifyIndCB?relay:
   \   000000   12....       LCALL   ?BDISPATCH
   \   000003   ......       DC24    ZDO_beaconNotifyIndCB

   \                                 In  segment BANK_RELAYS, align 1
   \                     ??ZDO_StartRouterConfirmCB?relay:
   \   000000   12....       LCALL   ?BDISPATCH
   \   000003   ......       DC24    ZDO_StartRouterConfirmCB

   \                                 In  segment BANK_RELAYS, align 1
   \                     ??ZDO_JoinConfirmCB?relay:
   \   000000   12....       LCALL   ?BDISPATCH
   \   000003   ......       DC24    ZDO_JoinConfirmCB

   \                                 In  segment BANK_RELAYS, align 1
   \                     ??ZDO_AddrChangeIndicationCB?relay:
   \   000000   12....       LCALL   ?BDISPATCH
   \   000003   ......       DC24    ZDO_AddrChangeIndicationCB

   \                                 In  segment BANK_RELAYS, align 1
   \                     ??ZDO_JoinIndicationCB?relay:
   \   000000   12....       LCALL   ?BDISPATCH
   \   000003   ......       DC24    ZDO_JoinIndicationCB

   \                                 In  segment BANK_RELAYS, align 1
   \                     ??ZDO_ConcentratorIndicationCB?relay:
   \   000000   12....       LCALL   ?BDISPATCH
   \   000003   ......       DC24    ZDO_ConcentratorIndicationCB

   \                                 In  segment BANK_RELAYS, align 1
   \                     ??ZDO_LeaveCnf?relay:
   \   000000   12....       LCALL   ?BDISPATCH
   \   000003   ......       DC24    ZDO_LeaveCnf

   \                                 In  segment BANK_RELAYS, align 1
   \                     ??ZDO_LeaveInd?relay:
   \   000000   12....       LCALL   ?BDISPATCH
   \   000003   ......       DC24    ZDO_LeaveInd

   \                                 In  segment BANK_RELAYS, align 1
   \                     ??ZDO_SyncIndicationCB?relay:
   \   000000   12....       LCALL   ?BDISPATCH
   \   000003   ......       DC24    ZDO_SyncIndicationCB

   \                                 In  segment BANK_RELAYS, align 1
   \                     ??ZDO_ManytoOneFailureIndicationCB?relay:
   \   000000   12....       LCALL   ?BDISPATCH
   \   000003   ......       DC24    ZDO_ManytoOneFailureIndicationCB

   \                                 In  segment BANK_RELAYS, align 1
   \                     ??ZDO_PollConfirmCB?relay:
   \   000000   12....       LCALL   ?BDISPATCH
   \   000003   ......       DC24    ZDO_PollConfirmCB

   \                                 In  segment BANK_RELAYS, align 1
   \                     ??AddrMgrWriteNVRequest?relay:
   \   000000   12....       LCALL   ?BDISPATCH
   \   000003   ......       DC24    AddrMgrWriteNVRequest

   \                                 In  segment BANK_RELAYS, align 1
   \                     ??ZDO_UpdateDeviceIndication?relay:
   \   000000   12....       LCALL   ?BDISPATCH
   \   000003   ......       DC24    ZDO_UpdateDeviceIndication

   \                                 In  segment BANK_RELAYS, align 1
   \                     ??ZDApp_InMsgCB?relay:
   \   000000   12....       LCALL   ?BDISPATCH
   \   000003   ......       DC24    ZDApp_InMsgCB

   \                                 In  segment BANK_RELAYS, align 1
   \                     ??ZDApp_ChangeMatchDescRespPermission?relay:
   \   000000   12....       LCALL   ?BDISPATCH
   \   000003   ......       DC24    ZDApp_ChangeMatchDescRespPermission

   \                                 In  segment BANK_RELAYS, align 1
   \                     ??ZDApp_NetworkInit?relay:
   \   000000   12....       LCALL   ?BDISPATCH
   \   000003   ......       DC24    ZDApp_NetworkInit

   \                                 In  segment BANK_RELAYS, align 1
   \                     ??ZDApp_NwkStateUpdateCB?relay:
   \   000000   12....       LCALL   ?BDISPATCH
   \   000003   ......       DC24    ZDApp_NwkStateUpdateCB

   \                                 In  segment BANK_RELAYS, align 1
   \                     ??ZDApp_NodeProfileSync?relay:
   \   000000   12....       LCALL   ?BDISPATCH
   \   000003   ......       DC24    ZDApp_NodeProfileSync

   \                                 In  segment BANK_RELAYS, align 1
   \                     ??ZDApp_StartJoiningCycle?relay:
   \   000000   12....       LCALL   ?BDISPATCH
   \   000003   ......       DC24    ZDApp_StartJoiningCycle

   \                                 In  segment BANK_RELAYS, align 1
   \                     ??ZDApp_StopJoiningCycle?relay:
   \   000000   12....       LCALL   ?BDISPATCH
   \   000003   ......       DC24    ZDApp_StopJoiningCycle

   \                                 In  segment BANK_RELAYS, align 1
   \                     ??ZDApp_AnnounceNewAddress?relay:
   \   000000   12....       LCALL   ?BDISPATCH
   \   000003   ......       DC24    ZDApp_AnnounceNewAddress

   \                                 In  segment BANK_RELAYS, align 1
   \                     ??ZDApp_NVUpdate?relay:
   \   000000   12....       LCALL   ?BDISPATCH
   \   000003   ......       DC24    ZDApp_NVUpdate

   \                                 In  segment BANK_RELAYS, align 1
   \                     ??ZDApp_CoordStartPANIDConflictCB?relay:
   \   000000   12....       LCALL   ?BDISPATCH
   \   000003   ......       DC24    ZDApp_CoordStartPANIDConflictCB

   \                                 In  segment BANK_RELAYS, align 1
   \                     ??ZDO_SrcRtgIndCB?relay:
   \   000000   12....       LCALL   ?BDISPATCH
   \   000003   ......       DC24    ZDO_SrcRtgIndCB

   \                                 In  segment BANK_RELAYS, align 1
   \                     ??ZDApp_InitZdoCBFunc?relay:
   \   000000   12....       LCALL   ?BDISPATCH
   \   000003   ......       DC24    ZDApp_InitZdoCBFunc

   \                                 In  segment BANK_RELAYS, align 1
   \                     ??ZDO_RegisterForZdoCB?relay:
   \   000000   12....       LCALL   ?BDISPATCH
   \   000003   ......       DC24    ZDO_RegisterForZdoCB

   \                                 In  segment BANK_RELAYS, align 1
   \                     ??ZDO_DeregisterForZdoCB?relay:
   \   000000   12....       LCALL   ?BDISPATCH
   \   000003   ......       DC24    ZDO_DeregisterForZdoCB
   3081          
   3082          /*********************************************************************
   3083          *********************************************************************/

   Maximum stack usage in bytes:

     Function                       ISTACK PSTACK XSTACK
     --------                       ------ ------ ------
     AddrMgrWriteNVRequest              0      0      0
     ZDAppCheckForHoldKey               2      0      9
       -> HalKeyRead                    4      0      0
     ZDAppDetermineDeviceType           2      0     12
       -> nwk_ExtPANIDValid             4      0      0
     ZDApp_AnnounceNewAddress           0      0     23
       -> APSME_HoldDataRequests        0      0     20
       -> NLME_GetExtAddr               0      0     20
       -> NLME_GetShortAddr             0      0     20
       -> ZDP_DeviceAnnce               0      0     22
       -> APSME_HoldDataRequests        0      0     20
     ZDApp_ChangeMatchDescRespPermission
                                        0      0      9
       -> afSetMatch                    0      0     18
     ZDApp_CoordStartPANIDConflictCB
                                        0      0      0
     ZDApp_DeviceAuthEvt                2      0      9
       -> ZDApp_ResetTimerCancel        4      0      0
       -> osal_set_event                4      0      0
       -> osal_pwrmgr_device            4      0      0
       -> ZDApp_SaveNwkKey              4      0      0
       -> ZDApp_AnnounceNewAddress      4      0      0
       -> NLME_SetPollRate              4      0      0
     ZDApp_DeviceConfigured             0      0     16
       -> osal_nv_read                  0      0     32
     ZDApp_InMsgCB                      0      0     14
       -> ZDP_GenericRsp                0      0     28
     ZDApp_Init                         0      0      9
       -> NLME_GetExtAddr               0      0     18
       -> ZDAppCheckForHoldKey          0      0     18
       -> ZDO_Init                      0      0     18
       -> afRegister                    0      0     18
       -> ZDOInitDevice                 0      0     18
       -> ZDOInitDevice                 0      0     18
       -> HalLedBlink                   0      0     18
       -> ZDApp_InitZdoCBFunc           0      0     18
       -> ZDApp_RegisterCBs             0      0     18
     ZDApp_InitUserDesc                 0      0     31
       -> osal_memset                   0      0     54
       -> osal_nv_item_init             0      0     58
       -> osal_nv_read                  0      0     62
     ZDApp_InitZdoCBFunc                2      0      9
     ZDApp_JoinReq                      0      0     22
       -> ZDApp_NodeProfileSync         0      0     28
       -> NLME_JoinRequest              0      0     36
     ZDApp_LeaveCtrlBypass              2      0      0
     ZDApp_LeaveCtrlInit                0      0     26
       -> osal_nv_item_init             0      0     24
       -> osal_nv_read                  0      0     28
     ZDApp_LeaveCtrlReset               0      0     14
       -> osal_nv_write                 0      0     28
     ZDApp_LeaveCtrlSet                 0      0     23
       -> osal_nv_write                 0      0     28
     ZDApp_LeaveCtrlStartup             2      0     12
       -> ZDApp_LeaveCtrlReset          4      0      0
     ZDApp_LeaveReset                   0      0     19
       -> ZDApp_LeaveCtrlSet            0      0     18
       -> ZDApp_ResetTimerStart         0      0     18
     ZDApp_LeaveUpdate                  0      0     37
       -> ZDSecMgrDeviceRemoveByExtAddr
                                        0      0     48
       -> ZDSecMgrAddrClear             0      0     48
       -> osal_memcpy                   0      0     54
       -> RTG_RemoveRtgEntry            0      0     48
       -> nwkNeighborRemove             0      0     48
     ZDApp_NVUpdate                     0      0      0
     ZDApp_NetworkDiscoveryReq          0      0     12
       -> NLME_NetworkDiscoveryRequest
                                        0      0     24
     ZDApp_NetworkInit                  2      0     13
       -> osal_start_timerEx            4      0      0
       -> osal_set_event                4      0      0
     ZDApp_NetworkStartEvt              2      0      0
       -> osal_pwrmgr_device            4      0      0
       -> osal_set_event                4      0      0
       -> NLME_GetEnergyThreshold       4      0      0
       -> NLME_GetEnergyThreshold       4      0      0
       -> NLME_SetEnergyThreshold       4      0      0
       -> osal_set_event                4      0      0
       -> osal_set_event                4      0      0
     ZDApp_NodeProfileSync              0      0     23
       -> NLME_SetBroadcastFilter       0      0     18
     ZDApp_NwkDescListProcessing        0      0     27
       -> nwk_getNwkDescList            0      0     28
       -> nwk_getNwkDescList            0      0     28
       -> nwk_ExtPANIDValid             0      0     28
       -> sAddrExtCmp                   0      0     28
     ZDApp_NwkStateUpdateCB             2      0      0
       -> osal_get_timeoutEx            4      0      0
     ZDApp_ProcessMsgCBs                0      0     44
       -> ZDO_ParseAddrRsp              0      0     62
       -> ZDO_UpdateAddrManager         0      0     62
       -> osal_mem_free                 0      0     62
       -> ZDO_ParseBindUnbindReq        0      0     62
       -> ZDO_ProcessBindUnbindReq      0      0     62
     ZDApp_ProcessNetworkJoin           0      0     25
       -> osal_set_event                0      0     24
       -> osal_pwrmgr_device            0      0     24
       -> ZDApp_AnnounceNewAddress      0      0     24
       -> NLME_GetShortAddr             0      0     24
       -> ZMacSetReq                    0      0     24
       -> nwkNeighborInitTable          0      0     24
       -> NLME_NwkDiscTerm              0      0     24
       -> osal_rand                     0      0     24
       -> ZDApp_NetworkInit             0      0     24
       -> osal_set_event                0      0     24
       -> osal_pwrmgr_device            0      0     24
       -> NLME_SetPollRate              0      0     24
       -> NLME_SetQueuedPollRate        0      0     24
       -> NLME_SetResponseRate          0      0     24
       -> ZDApp_AnnounceNewAddress      0      0     24
       -> nwkNeighborInitTable          0      0     24
       -> NLME_NwkDiscTerm              0      0     24
       -> osal_rand                     0      0     24
       -> ZDApp_NetworkInit             0      0     24
       -> ZDApp_AnnounceNewAddress      0      0     24
       -> osal_set_event                0      0     24
     ZDApp_ProcessOSALMsg               2      0     27
       -> ZDP_IncomingData              0      0     26
       -> ZDApp_ProcessMsgCBs           0      0     26
       -> ZDApp_NwkDescListProcessing
                                        0      0     26
       -> ZDApp_NodeProfileSync         0      0     26
       -> NLME_JoinRequest              0      0     34
       -> osal_rand                     0      0     26
       -> ZDApp_NetworkInit             0      0     26
       -> osal_rand                     0      0     26
       -> ZMacSetReq                    0      0     26
       -> ZMacSetReq                    0      0     26
       -> ZMacSetReq                    0      0     26
       -> NLME_ReJoinRequest            0      0     26
       -> osal_rand                     0      0     26
       -> ZDApp_NetworkInit             0      0     26
       -> NLME_SetPollRate              0      0     26
       -> NLME_SetQueuedPollRate        0      0     26
       -> NLME_SetResponseRate          0      0     26
       -> NLME_SetPollRate              0      0     26
       -> NLME_SetQueuedPollRate        0      0     26
       -> NLME_SetResponseRate          0      0     26
       -> halSleep                      0      0     26
       -> halSleep                      0      0     26
       -> NLME_SetPollRate              0      0     26
       -> NLME_SetQueuedPollRate        0      0     26
       -> NLME_SetResponseRate          0      0     26
       -> osal_rand                     0      0     26
       -> ZDApp_NetworkInit             0      0     26
       -> ZDApp_ProcessNetworkJoin      0      0     26
       -> sAddrExtCpy                   0      0     26
       -> ZDApp_NetworkInit             0      0     26
     ZDApp_ProcessSecEvent              0      0      9
       -> ZDApp_DeviceAuthEvt           0      0     18
       -> ZDApp_SaveNwkKey              0      0     18
       -> ZDSecMgrSaveTCLinkKey         0      0     18
     ZDApp_ProcessSecMsg                2      0      0
       -> ZDSecMgrTransportKeyInd       4      0      0
       -> ZDSecMgrSwitchKeyInd          4      0      0
     ZDApp_ReadNetworkRestoreState      0      0      9
       -> zgReadStartupOptions          0      0     18
     ZDApp_RegisterCBs                  2      0      9
       -> ZDO_RegisterForZDOMsg         4      0      0
       -> ZDO_RegisterForZDOMsg         4      0      0
       -> ZDO_RegisterForZDOMsg         4      0      0
       -> ZDO_RegisterForZDOMsg         4      0      0
     ZDApp_ResetNwkKey                  0      0     35
       -> osal_memset                   0      0     62
       -> osal_nv_write                 0      0     70
     ZDApp_ResetTimerCancel             2      0      0
       -> osal_stop_timerEx             4      0      0
     ZDApp_ResetTimerStart              2      0      9
       -> osal_start_timerEx            4      0      0
     ZDApp_RestoreNetworkState          0      0      9
       -> NLME_InitNV                   0      0     18
       -> NLME_RestoreFromNV            0      0     18
       -> NLME_GetShortAddr             0      0     18
       -> sAddrExtCpy                   0      0     18
     ZDApp_RestoreNwkKey                0      0     37
       -> osal_nv_read                  0      0     74
       -> osal_memset                   0      0     66
     ZDApp_SaveNetworkStateEvt          0      0      0
     ZDApp_SaveNwkKey                   0      0     46
       -> SSP_ReadNwkActiveKey          0      0     66
       -> osal_nv_write                 0      0     74
       -> osal_memset                   0      0     66
     ZDApp_SecInit                      0      0      9
       -> ZDSecMgrInit                  0      0     18
     ZDApp_SendEventMsg                 0      0      9
       -> ZDApp_SendMsg                 0      0     18
     ZDApp_SendMsg                      1      0     33
       -> osal_msg_allocate             0      0     32
       -> osal_memcpy                   0      0     38
       -> osal_msg_send                 0      0     32
     ZDApp_StartJoiningCycle            2      0      0
       -> ZDApp_NetworkInit             4      0      0
     ZDApp_StopJoiningCycle             2      0      0
     ZDApp_event_loop                   0      0     10
       -> osal_set_event                0      0     20
       -> ZDO_StartDevice               0      0     20
       -> ZDApp_ProcessOSALMsg          0      0     20
       -> osal_msg_deallocate           0      0     20
       -> osal_msg_receive              0      0     20
       -> ZDO_UpdateNwkStatus           0      0     20
       -> osal_start_timerEx            0      0     20
       -> zgWriteStartupOptions         0      0     20
       -> Onboard_soft_reset            0      0     20
     ZDOInitDevice                      0      0     21
       -> zgInitItems                   0      0     24
       -> ZDConfig_InitDescriptors      0      0     24
       -> ZDAppDetermineDeviceType      0      0     24
       -> osal_rand                     0      0     24
       -> ZDSecMgrInit                  0      0     24
       -> ZDApp_LeaveCtrlInit           0      0     24
       -> ZDApp_LeaveCtrlStartup        0      0     24
       -> zgWriteStartupOptions         0      0     24
       -> osal_set_event                0      0     24
       -> ZDApp_NetworkInit             0      0     24
       -> NLME_SetBroadcastFilter       0      0     24
     ZDO_AddrChangeIndicationCB         0      0     12
       -> osal_set_event                0      0     24
       -> osal_msg_allocate             0      0     24
       -> osal_msg_send                 0      0     24
       -> ZDApp_AnnounceNewAddress      0      0     24
     ZDO_ConcentratorIndicationCB       1      0     14
     ZDO_DeregisterForZdoCB             2      0      0
     ZDO_JoinConfirmCB                  1      0     14
       -> HalLedSet                     0      0     28
       -> HalLedSet                     0      0     28
       -> HalLedSet                     0      0     28
       -> ZDApp_SendMsg                 0      0     28
     ZDO_JoinIndicationCB               0      0      1
     ZDO_LeaveCnf                       0      0     10
       -> NLME_GetExtAddr               0      0     20
       -> sAddrExtCmp                   0      0     20
       -> ZDApp_LeaveReset              0      0     20
     ZDO_LeaveInd                       0      0     10
       -> ZDApp_LeaveReset              0      0     20
       -> NLME_GetCoordShortAddr        0      0     20
       -> ZDApp_LeaveUpdate             0      0     20
     ZDO_ManytoOneFailureIndicationCB
                                        2      0      0
       -> RTG_MTORouteReq               4      0      0
     ZDO_NetworkDiscoveryConfirmCB      3      0      3
       -> ZDApp_SendMsg                 4      0      6
     ZDO_NetworkFormationConfirmCB      0      0      9
       -> HalLedSet                     0      0     18
       -> HalLedSet                     0      0     18
       -> HalLedSet                     0      0     18
       -> osal_set_event                0      0     18
     ZDO_PollConfirmCB                  0      0      0
     ZDO_RegisterForZdoCB               2      0      0
     ZDO_SrcRtgIndCB                    1      0     14
     ZDO_StartRouterConfirmCB           0      0      9
       -> HalLedSet                     0      0     18
       -> HalLedSet                     0      0     18
       -> HalLedSet                     0      0     18
       -> osal_set_event                0      0     18
     ZDO_SyncIndicationCB               0      0      9
       -> nwkNeighborInitTable          0      0     18
       -> ZDApp_SendMsg                 0      0     18
     ZDO_UpdateDeviceIndication         0      0      0
     ZDO_beaconNotifyIndCB              1      0     14
       -> osal_mem_alloc                0      0     28
       -> osal_memset                   0      0     28
       -> sAddrExtCpy                   0      0     28
       -> osal_memset                   0      0     28


   Segment part sizes:

     Function/Label                              Bytes
     --------------                              -----
     _A_P1                                          1
     P1DIR                                          1
     zdoDiscCounter                                 1
     ZDAppNwkAddr                                   9
     zdappMgmtNwkDiscRspTransSeq                    1
     zdappMgmtNwkDiscReqInProgress                  1
     zdappMgmtNwkDiscRspAddr                        9
     zdappMgmtNwkDiscStartIndex                     1
     zdappMgmtSavedNwkState                         1
     nwkFrameCounterChanges                         2
     continueJoining                                1
     _tmpRejoinState                                1
     ZDO_UseExtendedPANID                           8
     zdoCBFunc                                     14
     ZDAppTaskID                                    1
     nwkStatus                                      1
     ZDApp_AutoFindMode_epDesc                      2
     ZDApp_LeaveCtrl                                1
     devState                                       1
     devStartMode                                   1
     retryCnt                                       1
     ZDApp_epDesc                                   6
     ZDApp_SavedPollRate                            2
     ZDApp_Init                                    85
     ??Subroutine49_0                               5
     ZDApp_SecInit                                 11
     ZDApp_event_loop                             171
     ?Subroutine18                                  2
     ??Subroutine42_0                              11
     ??Subroutine48_0                               6
     ??Subroutine51_0                               5
     ZDApp_ProcessSecEvent                        101
     ??Subroutine44_0                               6
     ??Subroutine60_0                               6
     ZDOInitDevice                                150
     ?Subroutine7                                   5
     ??Subroutine50_0                               3
     ?Subroutine14                                  6
     ZDApp_ReadNetworkRestoreState                 21
     ZDAppDetermineDeviceType                      74
     ?Subroutine2                                   7
     ZDApp_NetworkStartEvt                         79
     ZDApp_DeviceAuthEvt                           44
     ?Subroutine9                                  24
     ?Subroutine24                                  6
     ZDApp_SaveNetworkStateEvt                      3
     ZDApp_RestoreNetworkState                     65
     ?Subroutine11                                 13
     ?Subroutine16                                  8
     ZDApp_InitUserDesc                            89
     ?Subroutine33                                 32
     ?Subroutine35                                  8
     ZDAppCheckForHoldKey                          20
     ZDApp_ProcessOSALMsg                         550
     ?Subroutine34                                  1
     ??Subroutine43_0                               9
     ?Subroutine19                                  4
     ??Subroutine45_0                               3
     ??Subroutine46_0                               5
     ?Subroutine28                                 15
     ?Subroutine27                                 22
     ?Subroutine12                                 12
     ZDApp_ProcessMsgCBs                          118
     ?Subroutine8                                   5
     ?Subroutine40                                  3
     ??Subroutine53_0                               3
     ??Subroutine54_0                               5
     ?Subroutine31                                  9
     ZDApp_RegisterCBs                             31
     ?Subroutine22                                  2
     ??Subroutine47_0                               9
     ZDApp_ProcessSecMsg                           56
     ZDApp_ProcessNetworkJoin                     338
     ?Subroutine13                                 12
     ?Subroutine4                                   2
     ZDApp_SaveNwkKey                             112
     ZDApp_ResetNwkKey                             48
     ZDApp_RestoreNwkKey                          141
     ZDApp_ResetTimerStart                         16
     ?Subroutine25                                  5
     ZDApp_ResetTimerCancel                        19
     ZDApp_LeaveCtrlInit                           71
     ZDApp_LeaveCtrlSet                            22
     ?Subroutine1                                  35
     ZDApp_LeaveCtrlReset                          13
     ZDApp_LeaveCtrlBypass                         15
     ZDApp_LeaveCtrlStartup                        45
     ZDApp_LeaveReset                              17
     ZDApp_LeaveUpdate                            134
     ??Subroutine56_0                               3
     ??Subroutine57_0                               6
     ZDApp_NetworkDiscoveryReq                     11
     ZDApp_JoinReq                                 84
     ?Subroutine5                                   5
     ZDApp_DeviceConfigured                        87
     ZDApp_SendEventMsg                            17
     ?Subroutine23                                  9
     ZDApp_SendMsg                                 90
     ZDO_NetworkDiscoveryConfirmCB                 78
     ZDApp_NwkDescListProcessing                  266
     ?Subroutine21                                  6
     ??Subroutine52_0                               6
     ?Subroutine0                                   3
     ZDO_NetworkFormationConfirmCB                 34
     ?Subroutine37                                 19
     ZDO_beaconNotifyIndCB                        545
     ?Subroutine36                                  9
     ?Subroutine26                                  4
     ?Subroutine39                                  9
     ?Subroutine20                                 10
     ?Subroutine15                                  6
     ?Subroutine38                                 10
     ?Subroutine10                                  9
     ??Subroutine59_0                               5
     ZDO_StartRouterConfirmCB                      34
     ZDO_JoinConfirmCB                            105
     ?Subroutine6                                   8
     ZDO_AddrChangeIndicationCB                    81
     ?Subroutine17                                  5
     ??Subroutine55_0                               1
     ZDO_JoinIndicationCB                           0
     ?Subroutine3                                   5
     ZDO_ConcentratorIndicationCB                  60
     ZDO_LeaveCnf                                  66
     ?Subroutine30                                  9
     ZDO_LeaveInd                                 120
     ?Subroutine32                                  3
     ??Subroutine58_0                               3
     ZDO_SyncIndicationCB                          29
     ZDO_ManytoOneFailureIndicationCB
                                                   10
     ZDO_PollConfirmCB                              3
     AddrMgrWriteNVRequest                          3
     ZDO_UpdateDeviceIndication                     3
     ZDApp_InMsgCB                                 95
     ZDApp_ChangeMatchDescRespPermission
                                                   11
     ZDApp_NetworkInit                             27
     ZDApp_NwkStateUpdateCB                        19
     ZDApp_NodeProfileSync                         44
     ZDApp_StartJoiningCycle                       39
     ZDApp_StopJoiningCycle                        31
     ZDApp_AnnounceNewAddress                      59
     ZDApp_NVUpdate                                 3
     ZDApp_CoordStartPANIDConflictCB
                                                   11
     ZDO_SrcRtgIndCB                               60
     ZDApp_InitZdoCBFunc                           19
     ?Subroutine29                                  9
     ?Subroutine41                                 17
     ZDO_RegisterForZdoCB                          27
     ZDO_DeregisterForZdoCB                        22
     ?<Initializer for zdoDiscCounter>              1
     ?<Initializer for continueJoining>             1
     ?<Initializer for devState>                    1
     ?<Initializer for ZDApp_epDesc>                6
     ?<Initializer for ZDApp_SavedPollRate>         2
     __Constant_36ee81                              4
     __Constant_36ee80                              4
     __Constant_1                                   4
     __Constant_3e8                                 4
     ??ZDApp_Init?relay                             6
     ??ZDApp_SecInit?relay                          6
     ??ZDApp_event_loop?relay                       6
     ??ZDApp_ProcessSecEvent?relay                  6
     ??ZDOInitDevice?relay                          6
     ??ZDApp_ReadNetworkRestoreState?relay          6
     ??ZDAppDetermineDeviceType?relay               6
     ??ZDApp_NetworkStartEvt?relay                  6
     ??ZDApp_DeviceAuthEvt?relay                    6
     ??ZDApp_SaveNetworkStateEvt?relay              6
     ??ZDApp_RestoreNetworkState?relay              6
     ??ZDApp_InitUserDesc?relay                     6
     ??ZDAppCheckForHoldKey?relay                   6
     ??ZDApp_ProcessOSALMsg?relay                   6
     ??ZDApp_ProcessMsgCBs?relay                    6
     ??ZDApp_RegisterCBs?relay                      6
     ??ZDApp_ProcessSecMsg?relay                    6
     ??ZDApp_ProcessNetworkJoin?relay               6
     ??ZDApp_SaveNwkKey?relay                       6
     ??ZDApp_ResetNwkKey?relay                      6
     ??ZDApp_RestoreNwkKey?relay                    6
     ??ZDApp_ResetTimerStart?relay                  6
     ??ZDApp_ResetTimerCancel?relay                 6
     ??ZDApp_LeaveCtrlInit?relay                    6
     ??ZDApp_LeaveCtrlSet?relay                     6
     ??ZDApp_LeaveCtrlReset?relay                   6
     ??ZDApp_LeaveCtrlBypass?relay                  6
     ??ZDApp_LeaveCtrlStartup?relay                 6
     ??ZDApp_LeaveReset?relay                       6
     ??ZDApp_LeaveUpdate?relay                      6
     ??ZDApp_NetworkDiscoveryReq?relay              6
     ??ZDApp_JoinReq?relay                          6
     ??ZDApp_DeviceConfigured?relay                 6
     ??ZDApp_SendEventMsg?relay                     6
     ??ZDApp_SendMsg?relay                          6
     ??ZDO_NetworkDiscoveryConfirmCB?relay          6
     ??ZDApp_NwkDescListProcessing?relay            6
     ??ZDO_NetworkFormationConfirmCB?relay          6
     ??ZDO_beaconNotifyIndCB?relay                  6
     ??ZDO_StartRouterConfirmCB?relay               6
     ??ZDO_JoinConfirmCB?relay                      6
     ??ZDO_AddrChangeIndicationCB?relay             6
     ??ZDO_JoinIndicationCB?relay                   6
     ??ZDO_ConcentratorIndicationCB?relay           6
     ??ZDO_LeaveCnf?relay                           6
     ??ZDO_LeaveInd?relay                           6
     ??ZDO_SyncIndicationCB?relay                   6
     ??ZDO_ManytoOneFailureIndicationCB?relay       6
     ??ZDO_PollConfirmCB?relay                      6
     ??AddrMgrWriteNVRequest?relay                  6
     ??ZDO_UpdateDeviceIndication?relay             6
     ??ZDApp_InMsgCB?relay                          6
     ??ZDApp_ChangeMatchDescRespPermission?relay    6
     ??ZDApp_NetworkInit?relay                      6
     ??ZDApp_NwkStateUpdateCB?relay                 6
     ??ZDApp_NodeProfileSync?relay                  6
     ??ZDApp_StartJoiningCycle?relay                6
     ??ZDApp_StopJoiningCycle?relay                 6
     ??ZDApp_AnnounceNewAddress?relay               6
     ??ZDApp_NVUpdate?relay                         6
     ??ZDApp_CoordStartPANIDConflictCB?relay        6
     ??ZDO_SrcRtgIndCB?relay                        6
     ??ZDApp_InitZdoCBFunc?relay                    6
     ??ZDO_RegisterForZdoCB?relay                   6
     ??ZDO_DeregisterForZdoCB?relay                 6

 
 5 345 bytes in segment BANKED_CODE
   390 bytes in segment BANK_RELAYS
     2 bytes in segment SFR_AN
    11 bytes in segment XDATA_I
    11 bytes in segment XDATA_ID
    16 bytes in segment XDATA_ROM_C
    54 bytes in segment XDATA_Z
 
 5 746 bytes of CODE  memory
     0 bytes of CONST memory (+ 16 bytes shared)
     0 bytes of DATA  memory (+  2 bytes shared)
    65 bytes of XDATA memory

Errors: none
Warnings: 1
