###############################################################################
#                                                                             #
# IAR C/C++ Compiler V8.10.3.10338/W32 for 8051         22/Nov/2016  12:33:30 #
# Copyright 2004-2011 IAR Systems AB.                                         #
#                                                                             #
#    Core               =  plain                                              #
#    Code model         =  banked                                             #
#    Data model         =  large                                              #
#    Calling convention =  xdata reentrant                                    #
#    Constant location  =  data_rom                                           #
#    Dptr setup         =  1,16                                               #
#    Source file        =  C:\Users\icecreamco\Desktop\GAP\Coordinator\Compon #
#                          ents\mac\low_level\srf04\mac_rx.c                  #
#    Command line       =  -f C:\Users\icecreamco\Desktop\GAP\Coordinator\Pro #
#                          jects\zstack\Samples\SampleApp\CC2530DB\..\..\..\T #
#                          ools\CC2530DB\f8wCoord.cfg (-DCPU32MHZ             #
#                          -DROOT=__near_func -DMAC_CFG_APP_PENDING_QUEUE=TRU #
#                          E -DMAC_CFG_TX_DATA_MAX=5 -DMAC_CFG_TX_MAX=8       #
#                          -DMAC_CFG_RX_MAX=5 -DZDO_COORDINATOR -DRTR_NWK)    #
#                          -f C:\Users\icecreamco\Desktop\GAP\Coordinator\Pro #
#                          jects\zstack\Samples\SampleApp\CC2530DB\..\..\..\T #
#                          ools\CC2530DB\f8wConfig.cfg (-DZIGBEEPRO           #
#                          -DSECURE=0 -DZG_SECURE_DYNAMIC=0 -DREFLECTOR       #
#                          -DDEFAULT_CHANLIST=0x00000800                      #
#                          -DZDAPP_CONFIG_PAN_ID=0x2222                       #
#                          -DNWK_START_DELAY=100 -DEXTENDED_JOINING_RANDOM_MA #
#                          SK=0x007F -DBEACON_REQUEST_DELAY=100               #
#                          -DBEACON_REQ_DELAY_MASK=0x00FF                     #
#                          -DLINK_STATUS_JITTER_MASK=0x007F                   #
#                          -DROUTE_EXPIRY_TIME=30 -DAPSC_ACK_WAIT_DURATION_PO #
#                          LLED=3000 -DNWK_INDIRECT_MSG_TIMEOUT=7             #
#                          -DMAX_RREQ_ENTRIES=8 -DAPSC_MAX_FRAME_RETRIES=3    #
#                          -DNWK_MAX_DATA_RETRIES=2                           #
#                          -DMAX_POLL_FAILURE_RETRIES=2 -DMAX_BCAST=9         #
#                          -DAPS_MAX_GROUPS=16 -DMAX_RTG_ENTRIES=40           #
#                          -DNWK_MAX_BINDING_ENTRIES=4                        #
#                          -DMAX_BINDING_CLUSTER_IDS=4 "-DDEFAULT_KEY={0x01,  #
#                          0x03, 0x05, 0x07, 0x09, 0x0B, 0x0D, 0x0F, 0x00,    #
#                          0x02, 0x04, 0x06, 0x08, 0x0A, 0x0C, 0x0D}"         #
#                          -DMAC_MAX_FRAME_SIZE=116                           #
#                          -DZDNWKMGR_MIN_TRANSMISSIONS=20 "-DCONST=const     #
#                          __code" -DGENERIC=__generic                        #
#                          -DRFD_RCVC_ALWAYS_ON=FALSE -DPOLL_RATE=1000        #
#                          -DQUEUED_POLL_RATE=100 -DRESPONSE_POLL_RATE=100)   #
#                          -DREJOIN_POLL_RATE=440 C:\Users\icecreamco\Desktop #
#                          \GAP\Coordinator\Components\mac\low_level\srf04\ma #
#                          c_rx.c -D ZTOOL_P1 -D HAL_UART=TRUE -D AUTO_RESET  #
#                          -D xMT_TASK -D xMT_SYS_FUNC -D xMT_ZDO_FUNC -D     #
#                          xLCD_SUPPORTED=DEBUG -lC                           #
#                          C:\Users\icecreamco\Desktop\GAP\Coordinator\Projec #
#                          ts\zstack\Samples\SampleApp\CC2530DB\CoordinatorEB #
#                          \List\ -lA C:\Users\icecreamco\Desktop\GAP\Coordin #
#                          ator\Projects\zstack\Samples\SampleApp\CC2530DB\Co #
#                          ordinatorEB\List\ --diag_suppress Pe001,Pa010 -o   #
#                          C:\Users\icecreamco\Desktop\GAP\Coordinator\Projec #
#                          ts\zstack\Samples\SampleApp\CC2530DB\CoordinatorEB #
#                          \Obj\ -e --no_code_motion --debug --core=plain     #
#                          --dptr=16,1 --data_model=large                     #
#                          --code_model=banked --calling_convention=xdata_ree #
#                          ntrant --place_constants=data_rom                  #
#                          --nr_virtual_regs 16 -I C:\Users\icecreamco\Deskto #
#                          p\GAP\Coordinator\Projects\zstack\Samples\SampleAp #
#                          p\CC2530DB\ -I C:\Users\icecreamco\Desktop\GAP\Coo #
#                          rdinator\Projects\zstack\Samples\SampleApp\CC2530D #
#                          B\..\Source\ -I C:\Users\icecreamco\Desktop\GAP\Co #
#                          ordinator\Projects\zstack\Samples\SampleApp\CC2530 #
#                          DB\..\..\..\ZMain\TI2530DB\ -I                     #
#                          C:\Users\icecreamco\Desktop\GAP\Coordinator\Projec #
#                          ts\zstack\Samples\SampleApp\CC2530DB\..\..\..\..\. #
#                          .\Components\hal\include\ -I                       #
#                          C:\Users\icecreamco\Desktop\GAP\Coordinator\Projec #
#                          ts\zstack\Samples\SampleApp\CC2530DB\..\..\..\..\. #
#                          .\Components\hal\target\CC2530EB\ -I               #
#                          C:\Users\icecreamco\Desktop\GAP\Coordinator\Projec #
#                          ts\zstack\Samples\SampleApp\CC2530DB\..\..\..\..\. #
#                          .\Components\mac\include\ -I                       #
#                          C:\Users\icecreamco\Desktop\GAP\Coordinator\Projec #
#                          ts\zstack\Samples\SampleApp\CC2530DB\..\..\..\..\. #
#                          .\Components\mac\high_level\ -I                    #
#                          C:\Users\icecreamco\Desktop\GAP\Coordinator\Projec #
#                          ts\zstack\Samples\SampleApp\CC2530DB\..\..\..\..\. #
#                          .\Components\mac\low_level\srf04\ -I               #
#                          C:\Users\icecreamco\Desktop\GAP\Coordinator\Projec #
#                          ts\zstack\Samples\SampleApp\CC2530DB\..\..\..\..\. #
#                          .\Components\mac\low_level\srf04\single_chip\ -I   #
#                          C:\Users\icecreamco\Desktop\GAP\Coordinator\Projec #
#                          ts\zstack\Samples\SampleApp\CC2530DB\..\..\..\..\. #
#                          .\Components\mt\ -I C:\Users\icecreamco\Desktop\GA #
#                          P\Coordinator\Projects\zstack\Samples\SampleApp\CC #
#                          2530DB\..\..\..\..\..\Components\osal\include\ -I  #
#                          C:\Users\icecreamco\Desktop\GAP\Coordinator\Projec #
#                          ts\zstack\Samples\SampleApp\CC2530DB\..\..\..\..\. #
#                          .\Components\services\saddr\ -I                    #
#                          C:\Users\icecreamco\Desktop\GAP\Coordinator\Projec #
#                          ts\zstack\Samples\SampleApp\CC2530DB\..\..\..\..\. #
#                          .\Components\services\sdata\ -I                    #
#                          C:\Users\icecreamco\Desktop\GAP\Coordinator\Projec #
#                          ts\zstack\Samples\SampleApp\CC2530DB\..\..\..\..\. #
#                          .\Components\stack\af\ -I                          #
#                          C:\Users\icecreamco\Desktop\GAP\Coordinator\Projec #
#                          ts\zstack\Samples\SampleApp\CC2530DB\..\..\..\..\. #
#                          .\Components\stack\nwk\ -I                         #
#                          C:\Users\icecreamco\Desktop\GAP\Coordinator\Projec #
#                          ts\zstack\Samples\SampleApp\CC2530DB\..\..\..\..\. #
#                          .\Components\stack\sapi\ -I                        #
#                          C:\Users\icecreamco\Desktop\GAP\Coordinator\Projec #
#                          ts\zstack\Samples\SampleApp\CC2530DB\..\..\..\..\. #
#                          .\Components\stack\sec\ -I                         #
#                          C:\Users\icecreamco\Desktop\GAP\Coordinator\Projec #
#                          ts\zstack\Samples\SampleApp\CC2530DB\..\..\..\..\. #
#                          .\Components\stack\sys\ -I                         #
#                          C:\Users\icecreamco\Desktop\GAP\Coordinator\Projec #
#                          ts\zstack\Samples\SampleApp\CC2530DB\..\..\..\..\. #
#                          .\Components\stack\zdo\ -I                         #
#                          C:\Users\icecreamco\Desktop\GAP\Coordinator\Projec #
#                          ts\zstack\Samples\SampleApp\CC2530DB\..\..\..\..\. #
#                          .\Components\zmac\ -I C:\Users\icecreamco\Desktop\ #
#                          GAP\Coordinator\Projects\zstack\Samples\SampleApp\ #
#                          CC2530DB\..\..\..\..\..\Components\zmac\f8w\ -Ohz  #
#                          --require_prototypes                               #
#    List file          =  C:\Users\icecreamco\Desktop\GAP\Coordinator\Projec #
#                          ts\zstack\Samples\SampleApp\CC2530DB\CoordinatorEB #
#                          \List\mac_rx.lst                                   #
#    Object file        =  C:\Users\icecreamco\Desktop\GAP\Coordinator\Projec #
#                          ts\zstack\Samples\SampleApp\CC2530DB\CoordinatorEB #
#                          \Obj\mac_rx.r51                                    #
#                                                                             #
#                                                                             #
###############################################################################

C:\Users\icecreamco\Desktop\GAP\Coordinator\Components\mac\low_level\srf04\mac_rx.c
      1          /**************************************************************************************************
      2            Filename:       mac_rx.c
      3            Revised:        $Date: 2007-10-08 14:05:36 -0700 (Mon, 08 Oct 2007) $
      4            Revision:       $Revision: 15624 $
      5          
      6            Description:    Describe the purpose and contents of the file.
      7          
      8          
      9            Copyright 2006-2012 Texas Instruments Incorporated. All rights reserved.
     10          
     11            IMPORTANT: Your use of this Software is limited to those specific rights
     12            granted under the terms of a software license agreement between the user
     13            who downloaded the software, his/her employer (which must be your employer)
     14            and Texas Instruments Incorporated (the "License").  You may not use this
     15            Software unless you agree to abide by the terms of the License. The License
     16            limits your use, and you acknowledge, that the Software may not be modified,
     17            copied or distributed unless embedded on a Texas Instruments microcontroller
     18            or used solely and exclusively in conjunction with a Texas Instruments radio
     19            frequency transceiver, which is integrated into your product.  Other than for
     20            the foregoing purpose, you may not use, reproduce, copy, prepare derivative
     21            works of, modify, distribute, perform, display or sell this Software and/or
     22            its documentation for any purpose.
     23          
     24            YOU FURTHER ACKNOWLEDGE AND AGREE THAT THE SOFTWARE AND DOCUMENTATION ARE
     25            PROVIDED “AS IS?WITHOUT WARRANTY OF ANY KIND, EITHER EXPRESS OR IMPLIED,
     26            INCLUDING WITHOUT LIMITATION, ANY WARRANTY OF MERCHANTABILITY, TITLE,
     27            NON-INFRINGEMENT AND FITNESS FOR A PARTICULAR PURPOSE. IN NO EVENT SHALL
     28            TEXAS INSTRUMENTS OR ITS LICENSORS BE LIABLE OR OBLIGATED UNDER CONTRACT,
     29            NEGLIGENCE, STRICT LIABILITY, CONTRIBUTION, BREACH OF WARRANTY, OR OTHER
     30            LEGAL EQUITABLE THEORY ANY DIRECT OR INDIRECT DAMAGES OR EXPENSES
     31            INCLUDING BUT NOT LIMITED TO ANY INCIDENTAL, SPECIAL, INDIRECT, PUNITIVE
     32            OR CONSEQUENTIAL DAMAGES, LOST PROFITS OR LOST DATA, COST OF PROCUREMENT
     33            OF SUBSTITUTE GOODS, TECHNOLOGY, SERVICES, OR ANY CLAIMS BY THIRD PARTIES
     34            (INCLUDING BUT NOT LIMITED TO ANY DEFENSE THEREOF), OR OTHER SIMILAR COSTS.
     35          
     36            Should you have any questions regarding your right to use this Software,
     37            contact Texas Instruments Incorporated at www.TI.com.
     38          **************************************************************************************************/
     39          
     40          /* ------------------------------------------------------------------------------------------------
     41           *                                          Includes
     42           * ------------------------------------------------------------------------------------------------
     43           */
     44          
     45          /* hal */
     46          #include "hal_defs.h"
     47          #include "hal_types.h"
     48          
     49          /* OSAL */
     50          #include "OSAL.h"
     51          
     52          /* high-level */
     53          #include "mac_high_level.h"
     54          #include "mac_spec.h"
     55          
     56          /* MAC security */
     57          #include "mac_security.h"
     58          
     59          /* exported low-level */
     60          #include "mac_low_level.h"
     61          
     62          /* low-level specific */
     63          #include "mac_rx.h"
     64          #include "mac_tx.h"
     65          #include "mac_rx_onoff.h"
     66          #include "mac_radio.h"
     67          
     68          /* target specific */
     69          #include "mac_radio_defs.h"

   \                                 In  segment SFR_AN, at 0x91
   \   unsigned char volatile __sfr RFIRQF1
   \                     RFIRQF1:
   \   000000                DS 1

   \                                 In  segment SFR_AN, at 0x9b
   \   unsigned char volatile __sfr S1CON
   \                     S1CON:
   \   000000                DS 1

   \                                 In  segment SFR_AN, at 0xa8
   \   union <unnamed> volatile __sfr _A_IEN0
   \                     _A_IEN0:
   \   000000                DS 1

   \                                 In  segment SFR_AN, at 0xe1
   \   unsigned char volatile __sfr RFST
   \                     RFST:
   \   000000                DS 1

   \                                 In  segment SFR_AN, at 0xe9
   \   unsigned char volatile __sfr RFIRQF0
   \                     RFIRQF0:
   \   000000                DS 1
     70          #include "mac_autopend.h"
     71          
     72          /* debug */
     73          #include "mac_assert.h"
     74          
     75          
     76          /* ------------------------------------------------------------------------------------------------
     77           *                                            Defines
     78           * ------------------------------------------------------------------------------------------------
     79           */
     80          #define MAX_PAYLOAD_BYTES_READ_PER_INTERRUPT   16   /* adjustable to tune performance */
     81          
     82          /* receive FIFO bytes needed to start a valid receive (see function rxStartIsr for details) */
     83          #define RX_THRESHOLD_START_LEN    (MAC_PHY_PHR_LEN        +  \
     84                                             MAC_FCF_FIELD_LEN      +  \
     85                                             MAC_SEQ_NUM_FIELD_LEN  +  \
     86                                             MAC_FCS_FIELD_LEN)
     87          
     88          /* maximum size of addressing fields (note: command frame identifier processed as part of address) */
     89          #define MAX_ADDR_FIELDS_LEN  ((MAC_EXT_ADDR_FIELD_LEN + MAC_PAN_ID_FIELD_LEN) * 2)
     90          
     91          /* addressing mode reserved value */
     92          #define ADDR_MODE_RESERVERED  1
     93          
     94          /* length of command frame identifier */
     95          #define CMD_FRAME_ID_LEN      1
     96          
     97          /* packet size mask is equal to the maximum value */
     98          #define PHY_PACKET_SIZE_MASK  0x7F
     99          
    100          /* value for promiscuous off, must not conflict with other mode variants from separate include files */
    101          #define PROMISCUOUS_MODE_OFF  0x00
    102          
    103          /* bit of proprietary FCS format that indicates if the CRC is OK */
    104          #define PROPRIETARY_FCS_CRC_OK_BIT  0x80
    105          
    106          /* dummy length value for unused entry in lookup table */
    107          #define DUMMY_LEN   0xBE
    108          
    109          /* value for rxThresholdIntState */
    110          #define RX_THRESHOLD_INT_STATE_INACTIVE   0
    111          #define RX_THRESHOLD_INT_STATE_ACTIVE     1
    112          #define RX_THRESHOLD_INT_STATE_RESET      2
    113          
    114          
    115          /* ------------------------------------------------------------------------------------------------
    116           *                                             Macros
    117           * ------------------------------------------------------------------------------------------------
    118           */
    119          #define MEM_ALLOC(x)   macDataRxMemAlloc(x)
    120          #define MEM_FREE(x)    macDataRxMemFree((uint8 **)x)
    121          
    122          /*
    123           *  Macro for encoding frame control information into internal flags format.
    124           *  Parameter is pointer to the frame.  NOTE!  If either the internal frame
    125           *  format *or* the specification changes, this macro will need to be modified.
    126           */
    127          #define INTERNAL_FCF_FLAGS(p)  ((((p)[1] >> 4) & 0x03) | ((p)[0] & 0x78))
    128          
    129          /*
    130           *  The radio replaces the actual FCS with different information.  This proprietary FCS is
    131           *  the same length as the original and includes:
    132           *    1) the RSSI value
    133           *    2) the average correlation value (used for LQI)
    134           *    3) a CRC passed bit
    135           *
    136           *  These macros decode the proprietary FCS.  The macro parameter is a pointer to the two byte FCS.
    137           */
    138          #define PROPRIETARY_FCS_RSSI(p)                 ((int8)((p)[0]))
    139          #define PROPRIETARY_FCS_CRC_OK(p)               ((p)[1] & PROPRIETARY_FCS_CRC_OK_BIT)
    140          #define PROPRIETARY_FCS_CORRELATION_VALUE(p)    ((p)[1] & ~PROPRIETARY_FCS_CRC_OK_BIT)
    141          
    142          /*
    143           *  Macros for security control field.
    144           */
    145          #define SECURITY_LEVEL(s)                       (s & 0x07)
    146          #define KEY_IDENTIFIER_MODE(s)                  ((s & 0x18) >> 3)
    147          #define SECURITY_CONTROL_RESERVED(s)            ((s & 0xE0) >> 5)
    148          
    149          /* ------------------------------------------------------------------------------------------------
    150           *                                       Global Variables
    151           * ------------------------------------------------------------------------------------------------
    152           */

   \                                 In  segment XDATA_Z, align 1, keep-with-next
    153          uint8 macRxActive;
   \                     macRxActive:
   \   000000                DS 1
   \   000001                REQUIRE __INIT_XDATA_Z

   \                                 In  segment XDATA_Z, align 1, keep-with-next
    154          uint8 macRxFilter;
   \                     macRxFilter:
   \   000000                DS 1
   \   000001                REQUIRE __INIT_XDATA_Z

   \                                 In  segment XDATA_Z, align 1, keep-with-next
    155          uint8 macRxOutgoingAckFlag;
   \                     macRxOutgoingAckFlag:
   \   000000                DS 1
   \   000001                REQUIRE __INIT_XDATA_Z

   \                                 In  segment XDATA_Z, align 1, keep-with-next
    156          uint16 lastDeviceShortAddr;
   \                     lastDeviceShortAddr:
   \   000000                DS 2
   \   000002                REQUIRE __INIT_XDATA_Z
    157          
    158          /* ------------------------------------------------------------------------------------------------
    159           *                                       Local Constants
    160           * ------------------------------------------------------------------------------------------------
    161           */

   \                                 In  segment CODE_C, align 1
    162          static const uint8 CODE macRxAddrLen[] =
   \                     macRxAddrLen:
   \   000000   00           DB 0
   \   000001   BE           DB 190
   \   000002   04           DB 4
   \   000003   0A           DB 10
    163          {
    164            0,                                                /* no address */
    165            DUMMY_LEN,                                        /* reserved */
    166            MAC_PAN_ID_FIELD_LEN + MAC_SHORT_ADDR_FIELD_LEN,  /* short address + pan id */
    167            MAC_PAN_ID_FIELD_LEN + MAC_EXT_ADDR_FIELD_LEN     /* extended address + pan id */
    168          };
    169          
    170          
    171          /* ------------------------------------------------------------------------------------------------
    172           *                                       Local Prototypes
    173           * ------------------------------------------------------------------------------------------------
    174           */
    175          static void rxHaltCleanupFinalStep(void);
    176          
    177          static void rxStartIsr(void);
    178          static void rxAddrIsr(void);
    179          
    180          #ifdef MAC_SECURITY
    181            static void rxSecurityHdrIsr(void);
    182          #endif
    183            
    184          static void rxPayloadIsr(void);
    185          static void rxDiscardIsr(void);
    186          static void rxFcsIsr(void);
    187          
    188          static void rxPrepPayload(void);
    189          static void rxDiscardFrame(void);
    190          static void rxDone(void);
    191          static void rxPostRxUpdates(void);
    192          
    193          
    194          /* ------------------------------------------------------------------------------------------------
    195           *                                         Local Variables
    196           * ------------------------------------------------------------------------------------------------
    197           */

   \                                 In  segment XDATA_Z, align 1, keep-with-next
    198          static void    (* pFuncRxState)(void);
   \                     pFuncRxState:
   \   000000                DS 2
   \   000002                REQUIRE __INIT_XDATA_Z

   \                                 In  segment XDATA_Z, align 1, keep-with-next
    199          static macRx_t  * pRxBuf;
   \                     pRxBuf:
   \   000000                DS 2
   \   000002                REQUIRE __INIT_XDATA_Z
    200          

   \                                 In  segment XDATA_Z, align 1, keep-with-next
    201          static uint8  rxBuf[MAC_PHY_PHR_LEN + MAC_FCF_FIELD_LEN + MAC_SEQ_NUM_FIELD_LEN];
   \                     rxBuf:
   \   000000                DS 4
   \   000004                REQUIRE __INIT_XDATA_Z

   \                                 In  segment XDATA_Z, align 1, keep-with-next
    202          static uint8  rxUnreadLen;
   \                     rxUnreadLen:
   \   000000                DS 1
   \   000001                REQUIRE __INIT_XDATA_Z

   \                                 In  segment XDATA_Z, align 1, keep-with-next
    203          static uint8  rxNextLen;
   \                     rxNextLen:
   \   000000                DS 1
   \   000001                REQUIRE __INIT_XDATA_Z

   \                                 In  segment XDATA_Z, align 1, keep-with-next
    204          static uint8  rxPayloadLen;
   \                     rxPayloadLen:
   \   000000                DS 1
   \   000001                REQUIRE __INIT_XDATA_Z

   \                                 In  segment XDATA_Z, align 1, keep-with-next
    205          static uint8  rxFilter;
   \                     rxFilter:
   \   000000                DS 1
   \   000001                REQUIRE __INIT_XDATA_Z

   \                                 In  segment XDATA_Z, align 1, keep-with-next
    206          static uint8  rxPromiscuousMode;
   \                     rxPromiscuousMode:
   \   000000                DS 1
   \   000001                REQUIRE __INIT_XDATA_Z

   \                                 In  segment XDATA_Z, align 1, keep-with-next
    207          static uint8  rxIsrActiveFlag;
   \                     rxIsrActiveFlag:
   \   000000                DS 1
   \   000001                REQUIRE __INIT_XDATA_Z

   \                                 In  segment XDATA_Z, align 1, keep-with-next
    208          static uint8  rxResetFlag;
   \                     rxResetFlag:
   \   000000                DS 1
   \   000001                REQUIRE __INIT_XDATA_Z

   \                                 In  segment XDATA_Z, align 1, keep-with-next
    209          static uint8  rxFifoOverflowCount;
   \                     rxFifoOverflowCount:
   \   000000                DS 1
   \   000001                REQUIRE __INIT_XDATA_Z
    210          
    211          #ifdef PACKET_FILTER_STATS
    212            uint32      rxCrcFailure = 0;
    213            uint32      rxCrcSuccess = 0;
    214          #endif /* PACKET_FILTER_STATS */
    215          
    216          #ifdef CC2591_COMPRESSION_WORKAROUND
    217            void macRxResetRssi(void);
    218          #endif
    219          
    220          /**************************************************************************************************
    221           * @fn          macRxInit
    222           *
    223           * @brief       Initialize receive variable states.
    224           *
    225           * @param       none
    226           *
    227           * @return      none
    228           **************************************************************************************************
    229           */

   \                                 In  segment BANKED_CODE, align 1, keep-with-next
    230          MAC_INTERNAL_API void macRxInit(void)
   \                     macRxInit:
    231          {
   \   000000   C082         PUSH    DPL
   \   000002   C083         PUSH    DPH
   \   000004                ; Saved register size: 2
   \   000004                ; Auto size: 0
    232            macRxFilter          = RX_FILTER_OFF;
   \   000004   90....       MOV     DPTR,#macRxFilter
   \   000007   E4           CLR     A
   \   000008   F0           MOVX    @DPTR,A
    233            rxPromiscuousMode    = PROMISCUOUS_MODE_OFF;
   \   000009   90....       MOV     DPTR,#rxPromiscuousMode
   \   00000C   F0           MOVX    @DPTR,A
    234            pRxBuf               = NULL; /* required for macRxReset() to function correctly */
   \   00000D   90....       MOV     DPTR,#pRxBuf
   \   000010   F0           MOVX    @DPTR,A
   \   000011   A3           INC     DPTR
   \   000012   F0           MOVX    @DPTR,A
    235            macRxActive          = MAC_RX_ACTIVE_NO_ACTIVITY;
   \   000013   90....       MOV     DPTR,#macRxActive
   \   000016   12....       LCALL   ?Subroutine24 & 0xFFFF
    236            pFuncRxState         = &rxStartIsr;
   \                     ??CrossCallReturnLabel_38:
   \   000019   12....       LCALL   ??Subroutine32_0 & 0xFFFF
    237            macRxOutgoingAckFlag = 0;
    238            rxIsrActiveFlag      = 0;
   \                     ??CrossCallReturnLabel_52:
   \   00001C   90....       MOV     DPTR,#rxIsrActiveFlag
   \   00001F   F0           MOVX    @DPTR,A
    239            rxResetFlag          = 0;
   \   000020   90....       MOV     DPTR,#rxResetFlag
   \   000023   F0           MOVX    @DPTR,A
    240            rxFifoOverflowCount  = 0;
   \   000024   90....       MOV     DPTR,#rxFifoOverflowCount
   \   000027   02....       LJMP    ?Subroutine0 & 0xFFFF
    241          }

   \                                 In  segment BANKED_CODE, align 1, keep-with-next
   \                     ??Subroutine32_0:
   \   000000   F0           MOVX    @DPTR,A
   \   000001   90....       MOV     DPTR,#macRxOutgoingAckFlag
   \   000004   E4           CLR     A
   \   000005   F0           MOVX    @DPTR,A
   \   000006   22           RET

   \                                 In  segment BANKED_CODE, align 1, keep-with-next
   \                     ?Subroutine0:
   \   000000   F0           MOVX    @DPTR,A
   \   000001                REQUIRE ??Subroutine37_0
   \   000001                ; // Fall through to label ??Subroutine37_0

   \                                 In  segment BANKED_CODE, align 1, keep-with-next
   \                     ??Subroutine37_0:
   \   000000   D083         POP     DPH
   \   000002   D082         POP     DPL
   \   000004   02....       LJMP    ?BRET

   \                                 In  segment BANKED_CODE, align 1, keep-with-next
   \                     ?Subroutine24:
   \   000000   F0           MOVX    @DPTR,A
   \   000001   90....       MOV     DPTR,#pFuncRxState
   \   000004   74..         MOV     A,#??rxStartIsr?relay & 0xff
   \   000006   F0           MOVX    @DPTR,A
   \   000007   A3           INC     DPTR
   \   000008   74..         MOV     A,#(??rxStartIsr?relay >> 8) & 0xff
   \   00000A   22           RET
    242          
    243          
    244          /**************************************************************************************************
    245           * @fn          macRxRadioPowerUpInit
    246           *
    247           * @brief       Initialization for after radio first powers up.
    248           *
    249           * @param       none
    250           *
    251           * @return      none
    252           **************************************************************************************************
    253           */

   \                                 In  segment BANKED_CODE, align 1, keep-with-next
    254          MAC_INTERNAL_API void macRxRadioPowerUpInit(void)
   \                     macRxRadioPowerUpInit:
    255          {
   \   000000   C082         PUSH    DPL
   \   000002   C083         PUSH    DPH
   \   000004                ; Saved register size: 2
   \   000004                ; Auto size: 0
    256            /* set threshold at initial value */
    257            MAC_RADIO_SET_RX_THRESHOLD(RX_THRESHOLD_START_LEN);
   \   000004   906194       MOV     DPTR,#0x6194
   \   000007   7405         MOV     A,#0x5
   \   000009   12....       LCALL   ?Subroutine9 & 0xFFFF
    258          
    259            /* clear any accidental threshold interrupt that happened as part of power up sequence */
    260            MAC_RADIO_CLEAR_RX_THRESHOLD_INTERRUPT_FLAG();
   \                     ??CrossCallReturnLabel_9:
   \   00000C   75E9FB       MOV     0xe9,#-0x5
   \   00000F   A2E7         MOV     C,0xE0 /* A   */.7
   \   000011   92AF         MOV     0xa8.7,C
    261          
    262            /* enable threshold interrupts */
    263            MAC_RADIO_ENABLE_RX_THRESHOLD_INTERRUPT();
   \   000013   9061A3       MOV     DPTR,#0x61a3
   \   000016   E0           MOVX    A,@DPTR
   \   000017   D2E2         SETB    0xE0 /* A   */.2
   \   000019   02....       LJMP    ?Subroutine0 & 0xFFFF
   \   00001C                REQUIRE _A_IEN0
   \   00001C                REQUIRE S1CON
   \   00001C                REQUIRE RFIRQF0
    264          }

   \                                 In  segment BANKED_CODE, align 1, keep-with-next
   \                     ?Subroutine9:
   \   000000   F0           MOVX    @DPTR,A
   \   000001   E5A8         MOV     A,0xa8
   \   000003   C2AF         CLR     0xa8.7
   \   000005   759B00       MOV     0x9b,#0x0
   \   000008   22           RET
    265          
    266          
    267          /**************************************************************************************************
    268           * @fn          macRxTxReset
    269           *
    270           * @brief       Reset the receive state.
    271           *
    272           * @param       none
    273           *
    274           * @return      none
    275           **************************************************************************************************
    276           */

   \                                 In  segment BANKED_CODE, align 1, keep-with-next
    277          MAC_INTERNAL_API void macRxTxReset(void)
   \                     macRxTxReset:
    278          {
   \   000000   C082         PUSH    DPL
   \   000002   C083         PUSH    DPH
   \   000004                ; Saved register size: 2
   \   000004                ; Auto size: 0
    279            /* forces receiver off, cleans up by calling macRxHaltCleanup() and macTxHaltCleanup() */
    280            macRxHardDisable();
   \   000004                ; Setup parameters for call to function macRxHardDisable
   \   000004   12....       LCALL   ??macRxHardDisable?relay
    281          
    282            /*
    283             *   Note : transmit does not require any reset logic
    284             *          beyond what macRxHardDisable() provides.
    285             */
    286          
    287            /* restore deault filter mode to off */
    288            macRxFilter = RX_FILTER_OFF;
   \   000007   90....       MOV     DPTR,#macRxFilter
   \   00000A   E4           CLR     A
   \   00000B   F0           MOVX    @DPTR,A
    289          
    290            /* return promiscuous mode to default off state */
    291            macRxPromiscuousMode(MAC_PROMISCUOUS_MODE_OFF);
   \   00000C                ; Setup parameters for call to function macRxPromiscuousMode
   \   00000C   F9           MOV     R1,A
   \   00000D   12....       LCALL   ??macRxPromiscuousMode?relay
    292          }
   \   000010   02....       LJMP    ??Subroutine37_0 & 0xFFFF
    293          
    294          
    295          /**************************************************************************************************
    296           * @fn          macRxHaltCleanup
    297           *
    298           * @brief       Cleanup up the receive logic after receiver is forced off.
    299           *
    300           * @param       none
    301           *
    302           * @return      none
    303           **************************************************************************************************
    304           */

   \                                 In  segment BANKED_CODE, align 1, keep-with-next
    305          MAC_INTERNAL_API void macRxHaltCleanup(void)
   \                     macRxHaltCleanup:
    306          {
   \   000000   C082         PUSH    DPL
   \   000002   C083         PUSH    DPH
   \   000004                ; Saved register size: 2
   \   000004                ; Auto size: 0
    307            rxResetFlag = 1;
   \   000004   90....       MOV     DPTR,#rxResetFlag
   \   000007   7401         MOV     A,#0x1
   \   000009   F0           MOVX    @DPTR,A
    308            if (!rxIsrActiveFlag)
   \   00000A   90....       MOV     DPTR,#rxIsrActiveFlag
   \   00000D   E0           MOVX    A,@DPTR
   \   00000E   7003         JNZ     ??CrossCallReturnLabel_34
    309            {
    310              rxHaltCleanupFinalStep();
   \   000010                ; Setup parameters for call to function rxHaltCleanupFinalStep
   \   000010   12....       LCALL   ?Subroutine22 & 0xFFFF
    311              rxResetFlag = 0;
    312            }
    313          }
   \                     ??CrossCallReturnLabel_34:
   \   000013   02....       LJMP    ??Subroutine37_0 & 0xFFFF

   \                                 In  segment BANKED_CODE, align 1, keep-with-next
   \                     ?Subroutine22:
   \   000000   12....       LCALL   ??rxHaltCleanupFinalStep?relay
   \   000003   90....       MOV     DPTR,#rxResetFlag
   \   000006   E4           CLR     A
   \   000007   F0           MOVX    @DPTR,A
   \   000008   22           RET
    314          
    315          
    316          /*=================================================================================================
    317           * @fn          rxHaltCleanupFinalStep
    318           *
    319           * @brief       Required cleanup if receiver is halted in the middle of a receive.
    320           *
    321           * @param       none
    322           *
    323           * @return      none
    324           *=================================================================================================
    325           */

   \                                 In  segment BANKED_CODE, align 1, keep-with-next
    326          static void rxHaltCleanupFinalStep(void)
   \                     rxHaltCleanupFinalStep:
    327          {
   \   000000   C082         PUSH    DPL
   \   000002   C083         PUSH    DPH
   \   000004                ; Saved register size: 2
   \   000004                ; Auto size: 0
    328            /* cancel any upcoming ACK transmit complete callback */
    329            MAC_RADIO_CANCEL_ACK_TX_DONE_CALLBACK();
   \   000004   9061A4       MOV     DPTR,#0x61a4
   \   000007   E0           MOVX    A,@DPTR
   \   000008   C2E0         CLR     0xE0 /* A   */.0
   \   00000A   F0           MOVX    @DPTR,A
    330          
    331            /* set start of frame threshold */
    332            MAC_RADIO_SET_RX_THRESHOLD(RX_THRESHOLD_START_LEN);
   \   00000B   906194       MOV     DPTR,#0x6194
   \   00000E   7405         MOV     A,#0x5
   \   000010   F0           MOVX    @DPTR,A
    333          
    334            /* flush the receive FIFO */
    335            MAC_RADIO_FLUSH_RX_FIFO();
   \   000011   75E1ED       MOV     0xe1,#-0x13
   \   000014   75E1ED       MOV     0xe1,#-0x13
    336          
    337            /* clear any receive interrupt that happened to squeak through */
    338            MAC_RADIO_CLEAR_RX_THRESHOLD_INTERRUPT_FLAG();
   \   000017   E5A8         MOV     A,0xa8
   \   000019   C2AF         CLR     0xa8.7
   \   00001B   759B00       MOV     0x9b,#0x0
   \   00001E   75E9FB       MOV     0xe9,#-0x5
   \   000021   A2E7         MOV     C,0xE0 /* A   */.7
   \   000023   92AF         MOV     0xa8.7,C
    339          
    340            /* if data buffer has been allocated, free it */
    341            if (pRxBuf != NULL)
   \   000025   90....       MOV     DPTR,#pRxBuf
   \   000028   E0           MOVX    A,@DPTR
   \   000029   F8           MOV     R0,A
   \   00002A   A3           INC     DPTR
   \   00002B   E0           MOVX    A,@DPTR
   \   00002C   F9           MOV     R1,A
   \   00002D   E8           MOV     A,R0
   \   00002E   49           ORL     A,R1
   \   00002F   6007         JZ      ??rxHaltCleanupFinalStep_0
    342            {
    343              MEM_FREE((uint8 **)&pRxBuf);
   \   000031                ; Setup parameters for call to function macDataRxMemFree
   \   000031   7A..         MOV     R2,#pRxBuf & 0xff
   \   000033   7B..         MOV     R3,#(pRxBuf >> 8) & 0xff
   \   000035   12....       LCALL   ??macDataRxMemFree?relay
    344            }
    345            /* MEM_FREE() sets parameter to NULL. */
    346          
    347            pFuncRxState = &rxStartIsr;
   \                     ??rxHaltCleanupFinalStep_0:
   \   000038   90....       MOV     DPTR,#pFuncRxState
   \   00003B   74..         MOV     A,#??rxStartIsr?relay & 0xff
   \   00003D   F0           MOVX    @DPTR,A
   \   00003E   A3           INC     DPTR
   \   00003F   74..         MOV     A,#(??rxStartIsr?relay >> 8) & 0xff
   \   000041   F0           MOVX    @DPTR,A
    348          
    349            /* if receive was active, perform the post receive updates */
    350            if (macRxActive || macRxOutgoingAckFlag)
   \   000042   90....       MOV     DPTR,#macRxActive
   \   000045   E0           MOVX    A,@DPTR
   \   000046   7006         JNZ     ??rxHaltCleanupFinalStep_1
   \   000048   90....       MOV     DPTR,#macRxOutgoingAckFlag
   \   00004B   E0           MOVX    A,@DPTR
   \   00004C   600C         JZ      ??rxHaltCleanupFinalStep_2
    351            {
    352              macRxActive = MAC_RX_ACTIVE_NO_ACTIVITY;
   \                     ??rxHaltCleanupFinalStep_1:
   \   00004E   90....       MOV     DPTR,#macRxActive
   \   000051   E4           CLR     A
   \   000052   F0           MOVX    @DPTR,A
    353              macRxOutgoingAckFlag = 0;
   \   000053   90....       MOV     DPTR,#macRxOutgoingAckFlag
   \   000056   F0           MOVX    @DPTR,A
    354          
    355              rxPostRxUpdates();
   \   000057                ; Setup parameters for call to function rxPostRxUpdates
   \   000057   12....       LCALL   ??rxPostRxUpdates?relay
    356            }
    357          }
   \                     ??rxHaltCleanupFinalStep_2:
   \   00005A   02....       LJMP    ??Subroutine37_0 & 0xFFFF
   \   00005D                REQUIRE RFST
   \   00005D                REQUIRE _A_IEN0
   \   00005D                REQUIRE S1CON
   \   00005D                REQUIRE RFIRQF0
    358          
    359          
    360          /**************************************************************************************************
    361           * @fn          macRxThresholdIsr
    362           *
    363           * @brief       Interrupt service routine called when bytes in FIFO reach threshold value.
    364           *              It implements a state machine for receiving a packet.
    365           *
    366           * @param       none
    367           *
    368           * @return      none
    369           **************************************************************************************************
    370           */

   \                                 In  segment BANKED_CODE, align 1, keep-with-next
    371          MAC_INTERNAL_API void macRxThresholdIsr(void)
   \                     macRxThresholdIsr:
    372          {
   \   000000   C082         PUSH    DPL
   \   000002   C083         PUSH    DPH
   \   000004                ; Saved register size: 2
   \   000004                ; Auto size: 0
    373            /* if currently reseting, do not execute receive ISR logic */
    374            if (rxResetFlag)
   \   000004   90....       MOV     DPTR,#rxResetFlag
   \   000007   E0           MOVX    A,@DPTR
   \   000008   701D         JNZ     ??CrossCallReturnLabel_35
    375            {
    376              return;
    377            }
    378          
    379            /*
    380             *  Call the function that handles the current receive state.
    381             *  A flag is set for the duration of the call to indicate
    382             *  the ISR is executing.  This is necessary for the reset
    383             *  logic so it does not perform a reset in the middle of
    384             *  executing the ISR.
    385             */
    386            rxIsrActiveFlag = 1;
   \   00000A   90....       MOV     DPTR,#rxIsrActiveFlag
   \   00000D   7401         MOV     A,#0x1
   \   00000F   F0           MOVX    @DPTR,A
    387            (*pFuncRxState)();
   \   000010                ; Setup parameters for indirect call
   \   000010   90....       MOV     DPTR,#pFuncRxState
   \   000013   12....       LCALL   ?Subroutine28 & 0xFFFF
   \                     ??CrossCallReturnLabel_44:
   \   000016   12....       LCALL   ?CALL_IND
    388            rxIsrActiveFlag = 0;
   \   000019   90....       MOV     DPTR,#rxIsrActiveFlag
   \   00001C   E4           CLR     A
   \   00001D   F0           MOVX    @DPTR,A
    389          
    390            /* if a reset occurred during the ISR, peform cleanup here */
    391            if (rxResetFlag)
   \   00001E   90....       MOV     DPTR,#rxResetFlag
   \   000021   E0           MOVX    A,@DPTR
   \   000022   6003         JZ      ??CrossCallReturnLabel_35
    392            {
    393              rxHaltCleanupFinalStep();
   \   000024                ; Setup parameters for call to function rxHaltCleanupFinalStep
   \   000024   12....       LCALL   ?Subroutine22 & 0xFFFF
    394              rxResetFlag = 0;
    395            }
   \                     ??CrossCallReturnLabel_35:
   \   000027   02....       LJMP    ??Subroutine37_0 & 0xFFFF
    396          }

   \                                 In  segment BANKED_CODE, align 1, keep-with-next
   \                     ?Subroutine28:
   \   000000   12....       LCALL   ?Subroutine30 & 0xFFFF
   \                     ??CrossCallReturnLabel_49:
   \   000003   22           RET

   \                                 In  segment BANKED_CODE, align 1, keep-with-next
   \                     ?Subroutine30:
   \   000000   E0           MOVX    A,@DPTR
   \   000001   F8           MOV     R0,A
   \   000002   A3           INC     DPTR
   \   000003   E0           MOVX    A,@DPTR
   \   000004   F583         MOV     DPH,A
   \   000006   8882         MOV     DPL,R0
   \   000008   22           RET
    397          
    398          
    399          /*=================================================================================================
    400           * @fn          rxStartIsr
    401           *
    402           * @brief       First ISR state for receiving a packet - compute packet length, allocate
    403           *              buffer, initialize buffer.  Acknowledgements are handled immediately without
    404           *              allocating a buffer.
    405           *
    406           * @param       none
    407           *
    408           * @return      none
    409           *=================================================================================================
    410           */

   \                                 In  segment BANKED_CODE, align 1, keep-with-next
    411          static void rxStartIsr(void)
   \                     rxStartIsr:
    412          {
   \   000000   74F3         MOV     A,#-0xd
   \   000002   12....       LCALL   ?BANKED_ENTER_XDATA
   \   000005                ; Saved register size: 13
   \   000005                ; Auto size: 2
   \   000005   74FE         MOV     A,#-0x2
   \   000007   12....       LCALL   ?ALLOC_XSTACK8
    413            uint8  addrLen;
    414            uint8  ackWithPending;
    415            uint8  dstAddrMode;
    416            uint8  srcAddrMode;
    417            uint8  mhrLen = 0;
   \   00000A   7F00         MOV     R7,#0x0
    418          
    419            MAC_ASSERT(!macRxActive); /* receive on top of receive */
   \   00000C   90....       MOV     DPTR,#macRxActive
   \   00000F   E0           MOVX    A,@DPTR
   \   000010   6003         JZ      ??rxStartIsr_0
   \   000012                ; Setup parameters for call to function halAssertHandler
   \   000012   12....       LCALL   ??halAssertHandler?relay
    420          
    421            /* indicate rx is active */
    422            macRxActive = MAC_RX_ACTIVE_STARTED;
   \                     ??rxStartIsr_0:
   \   000015   90....       MOV     DPTR,#macRxActive
   \   000018   7481         MOV     A,#-0x7f
   \   00001A   F0           MOVX    @DPTR,A
    423          
    424            /*
    425             *  For bullet proof functionality, need to see if the receiver was just turned off.
    426             *  The logic to request turning off the receiver, disables interrupts and then checks
    427             *  the value of macRxActive.  If it is TRUE, the receiver will not be turned off.
    428             *
    429             *  There is a small hole though.  It's possible to attempt turning off the receiver
    430             *  in the window from when the receive interrupt fires and the point where macRxActive
    431             *  is set to TRUE.  To plug this hole, the on/off status must be tested *after*
    432             *  macRxActive has been set.  If the receiver is off at this point, there is nothing
    433             *  in the RX fifo and the receive is simply aborted.
    434             *
    435             *  Also, there are some considerations in case a hard disable just happened.  Usually,
    436             *  the receiver will just be off at this point after a hard disable.  The check described
    437             *  above will account for this case too.  However, if a hard disable were immediately
    438             *  followed by an enable, the receiver would be on.  To catch this case, the receive
    439             *  FIFO is also tested to see if it is empty.  Recovery is identical to the other cases.
    440             */
    441            if (!macRxOnFlag || MAC_RADIO_RX_FIFO_IS_EMPTY())
   \   00001B   90....       MOV     DPTR,#macRxOnFlag
   \   00001E   E0           MOVX    A,@DPTR
   \   00001F   600D         JZ      ??rxStartIsr_1
   \   000021   906193       MOV     DPTR,#0x6193
   \   000024   E0           MOVX    A,@DPTR
   \   000025   A2E7         MOV     C,0xE0 /* A   */.7
   \   000027   4010         JC      ??rxStartIsr_2
   \   000029   E0           MOVX    A,@DPTR
   \   00002A   A2E6         MOV     C,0xE0 /* A   */.6
   \   00002C   400B         JC      ??rxStartIsr_2
    442            {
    443              /* reset active flag */
    444              macRxActive = MAC_RX_ACTIVE_NO_ACTIVITY;
   \                     ??rxStartIsr_1:
   \   00002E   90....       MOV     DPTR,#macRxActive
   \   000031   E4           CLR     A
   \   000032   F0           MOVX    @DPTR,A
    445          
    446              /*
    447               *  To be absolutely bulletproof, must make sure no transmit queue'ed up during
    448               *  the tiny, tiny window when macRxActive was not zero.
    449               */
    450              rxPostRxUpdates();
   \   000033                ; Setup parameters for call to function rxPostRxUpdates
   \   000033   12....       LCALL   ??rxPostRxUpdates?relay
    451          
    452              /* return immediately from here */
    453              return;
   \   000036   02....       LJMP    ??rxStartIsr_3 & 0xFFFF
    454            }
    455          
    456            /*
    457             *  If interrupts are held off for too long it's possible the previous "transmit done"
    458             *  callback is pending.  If this is the case, it needs to be completed before
    459             *  continuing with the receive logic.
    460             */
    461            MAC_RADIO_FORCE_TX_DONE_IF_PENDING();
   \                     ??rxStartIsr_2:
   \   000039                ; Setup parameters for call to function macCspForceTxDoneIfPending
   \   000039   12....       LCALL   ??macCspForceTxDoneIfPending?relay
    462          
    463            /*
    464             *  It's possible receive logic is still waiting for confirmation of an ACK that went out
    465             *  for the previous receive.  This is OK but the callback needs to be canceled at this point.
    466             *  That callback execute receive cleanup logic that will run at the completion
    467             *  of *this* receive.  Also, it is important the flag for the outgoing ACK to be cleared.
    468             */
    469            MAC_RADIO_CANCEL_ACK_TX_DONE_CALLBACK();
   \   00003C   12....       LCALL   ?Subroutine8 & 0xFFFF
    470            macRxOutgoingAckFlag = 0;
    471          
    472            /*
    473             *  Make a module-local copy of macRxFilter.  This prevents the selected
    474             *  filter from changing in the middle of a receive.
    475             */
    476            rxFilter = macRxFilter;
   \                     ??CrossCallReturnLabel_50:
   \   00003F   90....       MOV     DPTR,#macRxFilter
   \   000042   E0           MOVX    A,@DPTR
   \   000043   90....       MOV     DPTR,#rxFilter
   \   000046   F0           MOVX    @DPTR,A
    477          
    478            /*-------------------------------------------------------------------------------
    479             *  Read initial frame information from FIFO.
    480             *
    481             *   This code is not triggered until the following are in the RX FIFO:
    482             *     frame length          - one byte containing length of MAC frame (excludes this field)
    483             *     frame control field   - two bytes defining frame type, addressing fields, control flags
    484             *     sequence number       - one byte unique sequence identifier
    485             *     additional two bytes  - these bytes are available in case the received frame is an ACK,
    486             *                             if so, the frame can be verified and responded to immediately,
    487             *                             if not an ACK, these bytes will be processed normally
    488             */
    489          
    490            /* read frame length, frame control field, and sequence number from FIFO */
    491            MAC_RADIO_READ_RX_FIFO(rxBuf, MAC_PHY_PHR_LEN + MAC_FCF_FIELD_LEN + MAC_SEQ_NUM_FIELD_LEN);
   \   000047                ; Setup parameters for call to function macMemReadRxFifo
   \   000047   7904         MOV     R1,#0x4
   \   000049   7A..         MOV     R2,#rxBuf & 0xff
   \   00004B   7B..         MOV     R3,#(rxBuf >> 8) & 0xff
   \   00004D   12....       LCALL   ??macMemReadRxFifo?relay
    492          
    493            /* bytes to read from FIFO equals frame length minus length of MHR fields just read from FIFO */
    494            rxUnreadLen = (rxBuf[0] & PHY_PACKET_SIZE_MASK) - MAC_FCF_FIELD_LEN - MAC_SEQ_NUM_FIELD_LEN;
   \   000050   90....       MOV     DPTR,#rxBuf
   \   000053   E0           MOVX    A,@DPTR
   \   000054   547F         ANL     A,#0x7f
   \   000056   24FD         ADD     A,#-0x3
   \   000058   90....       MOV     DPTR,#rxUnreadLen
   \   00005B   F0           MOVX    @DPTR,A
    495          
    496            /*
    497             *  Workaround for chip bug #1547.  The receive buffer can sometimes be corrupted by hardware.
    498             *  This usually occurs under heavy traffic.  If a corrupted receive buffer is detected
    499             *  the entire receive buffer is flushed.
    500             *
    501             *  In the case that this workaround is not needed, an assert is used to make sure the
    502             *  receive length field is not corrupted.  This is important because a corrupted receive
    503             *  length field is utterly fatal and, if not caught here, extremely hard to track down.
    504             */
    505            if (macChipVersion == REV_A)
   \   00005C   90....       MOV     DPTR,#macChipVersion
   \   00005F   E0           MOVX    A,@DPTR
   \   000060   90....       MOV     DPTR,#rxUnreadLen
   \   000063   701D         JNZ     ??rxStartIsr_4
    506            {
    507              if ((rxUnreadLen > (MAC_A_MAX_PHY_PACKET_SIZE - MAC_FCF_FIELD_LEN - MAC_SEQ_NUM_FIELD_LEN)) ||
    508                  (MAC_FRAME_TYPE(&rxBuf[1]) > MAC_FRAME_TYPE_MAX_VALID))
   \   000065   E0           MOVX    A,@DPTR
   \   000066   C3           CLR     C
   \   000067   947D         SUBB    A,#0x7d
   \   000069   500B         JNC     ??rxStartIsr_5
   \   00006B   90....       MOV     DPTR,#rxBuf + 1
   \   00006E   E0           MOVX    A,@DPTR
   \   00006F   5407         ANL     A,#0x7
   \   000071   C3           CLR     C
   \   000072   9404         SUBB    A,#0x4
   \   000074   4015         JC      ??rxStartIsr_6
    509              {
    510                MAC_RADIO_FLUSH_RX_FIFO();
   \                     ??rxStartIsr_5:
   \   000076   75E1ED       MOV     0xe1,#-0x13
   \   000079   75E1ED       MOV     0xe1,#-0x13
    511                rxDone();
   \   00007C                ; Setup parameters for call to function rxDone
   \                     ??rxStartIsr_7:
   \   00007C   12....       LCALL   ??rxDone?relay
    512                return;
   \   00007F   02....       LJMP    ??rxStartIsr_3 & 0xFFFF
    513              }
    514            }
    515            else
    516            {
    517              /* radio supplied a corrupted receive buffer length */
    518              MAC_ASSERT(rxUnreadLen <= (MAC_A_MAX_PHY_PACKET_SIZE - MAC_FCF_FIELD_LEN - MAC_SEQ_NUM_FIELD_LEN));
   \                     ??rxStartIsr_4:
   \   000082   E0           MOVX    A,@DPTR
   \   000083   C3           CLR     C
   \   000084   947D         SUBB    A,#0x7d
   \   000086   4003         JC      ??rxStartIsr_6
   \   000088                ; Setup parameters for call to function halAssertHandler
   \   000088   12....       LCALL   ??halAssertHandler?relay
    519            }
    520          
    521          
    522          
    523            /*-------------------------------------------------------------------------------
    524             *  Process ACKs.
    525             *
    526             *  If this frame is an ACK, process it immediately and exit from here.
    527             *  If this frame is not an ACK and transmit is listening for an ACK, let
    528             *  the transmit logic know an non-ACK was received so transmit can complete.
    529             *
    530             *  In promiscuous mode ACKs are treated like any other frame.
    531             */
    532            if ((MAC_FRAME_TYPE(&rxBuf[1]) == MAC_FRAME_TYPE_ACK) && (rxPromiscuousMode == PROMISCUOUS_MODE_OFF))
   \                     ??rxStartIsr_6:
   \   00008B   90....       MOV     DPTR,#rxBuf + 1
   \   00008E   E0           MOVX    A,@DPTR
   \   00008F   5407         ANL     A,#0x7
   \   000091   6402         XRL     A,#0x2
   \   000093   6003         JZ      $+5
   \   000095   02....       LJMP    ??rxStartIsr_8 & 0xFFFF
   \   000098   90....       MOV     DPTR,#rxPromiscuousMode
   \   00009B   E0           MOVX    A,@DPTR
   \   00009C   6003         JZ      $+5
   \   00009E   02....       LJMP    ??rxStartIsr_8 & 0xFFFF
    533            {
    534              halIntState_t  s;
    535              uint8 fcsBuf[MAC_FCF_FIELD_LEN];
    536              /*
    537               *  There are guaranteed to be two unread bytes in the FIFO.  By defintion, for ACK frames
    538               *  these two bytes will be the FCS.
    539               */
    540          
    541              /* read FCS from FIFO (threshold set so bytes are guaranteed to be there) */
    542              MAC_RADIO_READ_RX_FIFO(fcsBuf, MAC_FCS_FIELD_LEN);
   \   0000A1                ; Setup parameters for call to function macMemReadRxFifo
   \   0000A1   7902         MOV     R1,#0x2
   \   0000A3   85..82       MOV     DPL,?XSP + 0
   \   0000A6   85..83       MOV     DPH,?XSP + 1
   \   0000A9   AA82         MOV     R2,DPL
   \   0000AB   AB83         MOV     R3,DPH
   \   0000AD   12....       LCALL   ??macMemReadRxFifo?relay
    543          
    544              /*
    545               *  This critical section ensures that the ACK timeout won't be triggered in the
    546               *  middle of receiving the ACK frame.
    547               */
    548              HAL_ENTER_CRITICAL_SECTION(s);
   \   0000B0   A2AF         MOV     C,0xa8.7
   \   0000B2   E4           CLR     A
   \   0000B3   33           RLC     A
   \   0000B4   FF           MOV     R7,A
   \   0000B5   C2AF         CLR     0xa8.7
    549          
    550              /* see if transmit is listening for an ACK */
    551              if (macTxActive == MAC_TX_ACTIVE_LISTEN_FOR_ACK)
   \   0000B7   90....       MOV     DPTR,#macTxActive
   \   0000BA   E0           MOVX    A,@DPTR
   \   0000BB   6486         XRL     A,#0x86
   \   0000BD   7078         JNZ     ??rxStartIsr_9
    552              {
    553                MAC_ASSERT(pMacDataTx != NULL); /* transmit buffer must be present */
   \   0000BF   90....       MOV     DPTR,#pMacDataTx
   \   0000C2   E0           MOVX    A,@DPTR
   \   0000C3   F8           MOV     R0,A
   \   0000C4   A3           INC     DPTR
   \   0000C5   E0           MOVX    A,@DPTR
   \   0000C6   F9           MOV     R1,A
   \   0000C7   E8           MOV     A,R0
   \   0000C8   49           ORL     A,R1
   \   0000C9   7003         JNZ     ??rxStartIsr_10
   \   0000CB                ; Setup parameters for call to function halAssertHandler
   \   0000CB   12....       LCALL   ??halAssertHandler?relay
    554          
    555                /* record link quality metrics for the receive ACK */
    556                {
    557                  int8 rssiDbm;
    558                  uint8 corr;
    559          
    560                  rssiDbm = PROPRIETARY_FCS_RSSI(fcsBuf) + MAC_RADIO_RSSI_OFFSET;
    561                  MAC_RADIO_RSSI_LNA_OFFSET(rssiDbm);
   \                     ??rxStartIsr_10:
   \   0000CE   12....       LCALL   ?Subroutine12 & 0xFFFF
   \                     ??CrossCallReturnLabel_16:
   \   0000D1   85..82       MOV     DPL,?XSP + 0
   \   0000D4   85..83       MOV     DPH,?XSP + 1
   \   0000D7   F8           MOV     R0,A
   \   0000D8   E0           MOVX    A,@DPTR
   \   0000D9   28           ADD     A,R0
   \   0000DA   24B7         ADD     A,#-0x49
   \   0000DC   FE           MOV     R6,A
    562                  corr = PROPRIETARY_FCS_CORRELATION_VALUE(fcsBuf);
   \   0000DD   7401         MOV     A,#0x1
   \   0000DF   12....       LCALL   ?XSTACK_DISP0_8
   \   0000E2   E0           MOVX    A,@DPTR
   \   0000E3   547F         ANL     A,#0x7f
   \   0000E5   F5..         MOV     ?V0 + 0,A
    563          
    564                  pMacDataTx->internal.mpduLinkQuality = macRadioComputeLQI(rssiDbm, corr);
   \   0000E7                ; Setup parameters for call to function macRadioComputeLQI
   \   0000E7   FA           MOV     R2,A
   \   0000E8   EE           MOV     A,R6
   \   0000E9   F9           MOV     R1,A
   \   0000EA   12....       LCALL   ??macRadioComputeLQI?relay
   \   0000ED   E9           MOV     A,R1
   \   0000EE   C0E0         PUSH    A
   \   0000F0   90....       MOV     DPTR,#pMacDataTx
   \   0000F3   E0           MOVX    A,@DPTR
   \   0000F4   2414         ADD     A,#0x14
   \   0000F6   12....       LCALL   ?Subroutine17 & 0xFFFF
   \                     ??CrossCallReturnLabel_62:
   \   0000F9   D0E0         POP     A
   \   0000FB   F0           MOVX    @DPTR,A
    565                  pMacDataTx->internal.correlation = corr;
   \   0000FC   90....       MOV     DPTR,#pMacDataTx
   \   0000FF   E0           MOVX    A,@DPTR
   \   000100   2415         ADD     A,#0x15
   \   000102   12....       LCALL   ?Subroutine17 & 0xFFFF
   \                     ??CrossCallReturnLabel_63:
   \   000105   E5..         MOV     A,?V0 + 0
   \   000107   F0           MOVX    @DPTR,A
    566                  pMacDataTx->internal.rssi= rssiDbm;
   \   000108   90....       MOV     DPTR,#pMacDataTx
   \   00010B   E0           MOVX    A,@DPTR
   \   00010C   2416         ADD     A,#0x16
   \   00010E   12....       LCALL   ?Subroutine16 & 0xFFFF
    567                }
   \                     ??CrossCallReturnLabel_24:
   \   000111   F0           MOVX    @DPTR,A
    568          
    569                /*
    570                 *  It's okay if the ACK timeout is triggered here. The callbacks for ACK received
    571                 *  or ACK not received will check "macTxActive" flag before taking any actions.
    572                 */
    573                HAL_EXIT_CRITICAL_SECTION(s);
   \   000112   EF           MOV     A,R7
   \   000113   A2E0         MOV     C,0xE0 /* A   */.0
   \   000115   92AF         MOV     0xa8.7,C
    574          
    575                /*
    576                 *  An ACK was received so transmit logic needs to know.  If the FCS failed,
    577                 *  the transmit logic still needs to know.  In that case, treat the frame
    578                 *  as a non-ACK to complete the active transmit.
    579                 */
    580                if (PROPRIETARY_FCS_CRC_OK(fcsBuf))
   \   000117   7401         MOV     A,#0x1
   \   000119   12....       LCALL   ?XSTACK_DISP0_8
   \   00011C   E0           MOVX    A,@DPTR
   \   00011D   A2E7         MOV     C,0xE0 /* A   */.7
   \   00011F   5011         JNC     ??rxStartIsr_11
    581                {
    582                  /* call transmit logic to indicate ACK was received */
    583                  macTxAckReceivedCallback(MAC_SEQ_NUMBER(&rxBuf[1]), MAC_FRAME_PENDING(&rxBuf[1]));
   \   000121                ; Setup parameters for call to function macTxAckReceivedCallback
   \   000121   90....       MOV     DPTR,#rxBuf + 1
   \   000124   E0           MOVX    A,@DPTR
   \   000125   5410         ANL     A,#0x10
   \   000127   FA           MOV     R2,A
   \   000128   90....       MOV     DPTR,#rxBuf + 3
   \   00012B   E0           MOVX    A,@DPTR
   \   00012C   F9           MOV     R1,A
   \   00012D   12....       LCALL   ??macTxAckReceivedCallback?relay
   \   000130   800A         SJMP    ??rxStartIsr_12
    584                }
    585                else
    586                {
    587                  macTxAckNotReceivedCallback();
   \                     ??rxStartIsr_11:
   \   000132                ; Setup parameters for call to function macTxAckNotReceivedCallback
   \   000132   12....       LCALL   ??macTxAckNotReceivedCallback?relay
   \   000135   8005         SJMP    ??rxStartIsr_12
    588                }
    589              }
    590              else
    591              {
    592                HAL_EXIT_CRITICAL_SECTION(s);
   \                     ??rxStartIsr_9:
   \   000137   EF           MOV     A,R7
   \   000138   A2E0         MOV     C,0xE0 /* A   */.0
   \   00013A   92AF         MOV     0xa8.7,C
    593              }
    594          
    595              /* receive is done, exit from here */
    596              rxDone();
   \                     ??rxStartIsr_12:
   \   00013C                ; Setup parameters for call to function rxDone
   \   00013C   02....       LJMP    ??rxStartIsr_7 & 0xFFFF
    597              return;
    598            }
    599            else if (macTxActive == MAC_TX_ACTIVE_LISTEN_FOR_ACK)
   \                     ??rxStartIsr_8:
   \   00013F   90....       MOV     DPTR,#macTxActive
   \   000142   E0           MOVX    A,@DPTR
   \   000143   6486         XRL     A,#0x86
   \   000145   7003         JNZ     ??rxStartIsr_13
    600            {
    601              macTxAckNotReceivedCallback();
   \   000147                ; Setup parameters for call to function macTxAckNotReceivedCallback
   \   000147   12....       LCALL   ??macTxAckNotReceivedCallback?relay
    602            }
    603          
    604            /*-------------------------------------------------------------------------------
    605             *  Apply filtering.
    606             *
    607             *  For efficiency, see if filtering is even 'on' before processing.  Also test
    608             *  to make sure promiscuous mode is disabled.  If promiscuous mode is enabled,
    609             *  do not apply filtering.
    610             */
    611            if ((rxFilter != RX_FILTER_OFF) && !rxPromiscuousMode)
   \                     ??rxStartIsr_13:
   \   00014A   90....       MOV     DPTR,#rxFilter
   \   00014D   E0           MOVX    A,@DPTR
   \   00014E   6024         JZ      ??rxStartIsr_14
   \   000150   90....       MOV     DPTR,#rxPromiscuousMode
   \   000153   E0           MOVX    A,@DPTR
   \   000154   701E         JNZ     ??rxStartIsr_14
    612            {
    613              if (/* filter all frames */
    614                   (rxFilter == RX_FILTER_ALL) ||
    615          
    616                   /* filter non-beacon frames */
    617                   ((rxFilter == RX_FILTER_NON_BEACON_FRAMES) &&
    618                    (MAC_FRAME_TYPE(&rxBuf[1]) != MAC_FRAME_TYPE_BEACON)) ||
    619          
    620                   /* filter non-command frames */
    621                   ((rxFilter == RX_FILTER_NON_COMMAND_FRAMES) &&
    622                    ((MAC_FRAME_TYPE(&rxBuf[1]) != MAC_FRAME_TYPE_COMMAND))))
   \   000156   90....       MOV     DPTR,#rxFilter
   \   000159   E0           MOVX    A,@DPTR
   \   00015A   6401         XRL     A,#0x1
   \   00015C   7003         JNZ     $+5
   \   00015E   02....       LJMP    ??rxStartIsr_15 & 0xFFFF
   \   000161   E0           MOVX    A,@DPTR
   \   000162   6402         XRL     A,#0x2
   \   000164   6003         JZ      $+5
   \   000166   02....       LJMP    ??rxStartIsr_16 & 0xFFFF
   \   000169   90....       MOV     DPTR,#rxBuf + 1
   \   00016C   E0           MOVX    A,@DPTR
   \   00016D   5407         ANL     A,#0x7
   \   00016F   6003         JZ      $+5
   \   000171   02....       LJMP    ??rxStartIsr_15 & 0xFFFF
    623              {
    624                /* discard rest of frame */
    625                rxDiscardFrame();
    626                return;
    627              }
    628            }
    629          
    630            /*-------------------------------------------------------------------------------
    631             *  Compute length of addressing fields.  Compute payload length.
    632             */
    633          
    634            /* decode addressing modes */
    635            dstAddrMode = MAC_DEST_ADDR_MODE(&rxBuf[1]);
   \                     ??rxStartIsr_14:
   \   000174   90....       MOV     DPTR,#rxBuf + 2
   \   000177   E0           MOVX    A,@DPTR
   \   000178   F8           MOV     R0,A
   \   000179   13           RRC     A
   \   00017A   13           RRC     A
   \   00017B   543F         ANL     A,#0x3f
   \   00017D   5403         ANL     A,#0x3
   \   00017F   F5..         MOV     ?V0 + 3,A
    636            srcAddrMode = MAC_SRC_ADDR_MODE(&rxBuf[1]);
   \   000181   E8           MOV     A,R0
   \   000182   C4           SWAP    A
   \   000183   13           RRC     A
   \   000184   13           RRC     A
   \   000185   5403         ANL     A,#0x3
   \   000187   F5..         MOV     ?V0 + 4,A
    637          
    638            /*
    639            *  Workaround for chip bug #1547.  The receive buffer can sometimes be corrupted by hardware.
    640             *  This usually occurs under heavy traffic.  If a corrupted receive buffer is detected
    641             *  the entire receive buffer is flushed.
    642             */
    643            if (macChipVersion == REV_A)
   \   000189   90....       MOV     DPTR,#macChipVersion
   \   00018C   E0           MOVX    A,@DPTR
   \   00018D   7012         JNZ     ??rxStartIsr_17
    644            {
    645              if ((srcAddrMode == ADDR_MODE_RESERVERED) || (dstAddrMode == ADDR_MODE_RESERVERED))
   \   00018F   7401         MOV     A,#0x1
   \   000191   65..         XRL     A,?V0 + 4
   \   000193   7003         JNZ     $+5
   \   000195   02....       LJMP    ??rxStartIsr_5 & 0xFFFF
   \   000198   7401         MOV     A,#0x1
   \   00019A   65..         XRL     A,?V0 + 3
   \   00019C   7003         JNZ     $+5
   \   00019E   02....       LJMP    ??rxStartIsr_5 & 0xFFFF
    646              {
    647                MAC_RADIO_FLUSH_RX_FIFO();
    648                rxDone();
    649                return;
    650              }
    651            }
    652          
    653            /*
    654             *  Compute the addressing field length.  A lookup table based on addressing
    655             *  mode is used for efficiency.  If the source address is present and the
    656             *  frame is intra-PAN, the PAN Id is not repeated.  In this case, the address
    657             *  length is adjusted to match the smaller length.
    658             */
    659            addrLen = macRxAddrLen[dstAddrMode] + macRxAddrLen[srcAddrMode];
   \                     ??rxStartIsr_17:
   \   0001A1   85....       MOV     ?V0 + 0,?V0 + 4
   \   0001A4   12....       LCALL   ?Subroutine23 & 0xFFFF
   \                     ??CrossCallReturnLabel_36:
   \   0001A7   F8           MOV     R0,A
   \   0001A8   85....       MOV     ?V0 + 0,?V0 + 3
   \   0001AB   12....       LCALL   ?Subroutine23 & 0xFFFF
   \                     ??CrossCallReturnLabel_37:
   \   0001AE   28           ADD     A,R0
   \   0001AF   FE           MOV     R6,A
    660            if ((srcAddrMode != SADDR_MODE_NONE) && MAC_INTRA_PAN(&rxBuf[1]))
   \   0001B0   E5..         MOV     A,?V0 + 4
   \   0001B2   600A         JZ      ??rxStartIsr_18
   \   0001B4   90....       MOV     DPTR,#rxBuf + 1
   \   0001B7   E0           MOVX    A,@DPTR
   \   0001B8   A2E6         MOV     C,0xE0 /* A   */.6
   \   0001BA   5002         JNC     ??rxStartIsr_18
    661            {
    662              addrLen -= MAC_PAN_ID_FIELD_LEN;
   \   0001BC   1E           DEC     R6
   \   0001BD   1E           DEC     R6
    663            }
    664          
    665            /*
    666             *  If there are not enough unread bytes to include the computed address
    667             *  plus FCS field, the frame is corrupted and must be discarded.
    668             */
    669            if ((addrLen + MAC_FCS_FIELD_LEN) > rxUnreadLen)
   \                     ??rxStartIsr_18:
   \   0001BE   90....       MOV     DPTR,#rxUnreadLen
   \   0001C1   E0           MOVX    A,@DPTR
   \   0001C2   FA           MOV     R2,A
   \   0001C3   8E..         MOV     ?V0 + 0,R6
   \   0001C5   E5..         MOV     A,?V0 + 0
   \   0001C7   2402         ADD     A,#0x2
   \   0001C9   F8           MOV     R0,A
   \   0001CA   E4           CLR     A
   \   0001CB   3400         ADDC    A,#0x0
   \   0001CD   F9           MOV     R1,A
   \   0001CE   EA           MOV     A,R2
   \   0001CF   98           SUBB    A,R0
   \   0001D0   E4           CLR     A
   \   0001D1   99           SUBB    A,R1
   \   0001D2   C3           CLR     C
   \   0001D3   65D0         XRL     A,PSW
   \   0001D5   33           RLC     A
   \   0001D6   4051         JC      ??rxStartIsr_15
    670            {
    671              /* discard frame and exit */
    672              rxDiscardFrame();
    673              return;
    674            }
    675          
    676            /* aux security header plus payload length is equal to unread bytes minus
    677             * address length, minus the FCS
    678             */
    679            rxPayloadLen = rxUnreadLen - addrLen - MAC_FCS_FIELD_LEN;
   \   0001D8   E0           MOVX    A,@DPTR
   \   0001D9   C3           CLR     C
   \   0001DA   9E           SUBB    A,R6
   \   0001DB   24FE         ADD     A,#-0x2
   \   0001DD   90....       MOV     DPTR,#rxPayloadLen
   \   0001E0   12....       LCALL   ?Subroutine5 & 0xFFFF
    680          
    681            /*-------------------------------------------------------------------------------
    682             *  Allocate memory for the incoming frame.
    683             */
    684            if (MAC_SEC_ENABLED(&rxBuf[1]))
   \                     ??CrossCallReturnLabel_4:
   \   0001E3   5002         JNC     ??rxStartIsr_19
    685            {
    686              /* increase the allocation size of MAC header for security */
    687              mhrLen = MAC_MHR_LEN;
   \   0001E5   7F25         MOV     R7,#0x25
    688            }
    689          
    690            pRxBuf = (macRx_t *) MEM_ALLOC(sizeof(macRx_t) + mhrLen + rxPayloadLen);
   \                     ??rxStartIsr_19:
   \   0001E7                ; Setup parameters for call to function macDataRxMemAlloc
   \   0001E7   8F..         MOV     ?V0 + 0,R7
   \   0001E9   90....       MOV     DPTR,#rxPayloadLen
   \   0001EC   E0           MOVX    A,@DPTR
   \   0001ED   F8           MOV     R0,A
   \   0001EE   E5..         MOV     A,?V0 + 0
   \   0001F0   28           ADD     A,R0
   \   0001F1   F8           MOV     R0,A
   \   0001F2   E4           CLR     A
   \   0001F3   3400         ADDC    A,#0x0
   \   0001F5   F9           MOV     R1,A
   \   0001F6   E8           MOV     A,R0
   \   0001F7   2435         ADD     A,#0x35
   \   0001F9   FA           MOV     R2,A
   \   0001FA   E9           MOV     A,R1
   \   0001FB   3400         ADDC    A,#0x0
   \   0001FD   FB           MOV     R3,A
   \   0001FE   12....       LCALL   ??macDataRxMemAlloc?relay
   \   000201   90....       MOV     DPTR,#pRxBuf
   \   000204   12....       LCALL   ??Subroutine38_0 & 0xFFFF
    691            if (pRxBuf == NULL)
   \                     ??CrossCallReturnLabel_76:
   \   000207   F8           MOV     R0,A
   \   000208   A3           INC     DPTR
   \   000209   E0           MOVX    A,@DPTR
   \   00020A   F9           MOV     R1,A
   \   00020B   E8           MOV     A,R0
   \   00020C   49           ORL     A,R1
   \   00020D   7020         JNZ     ??rxStartIsr_20
    692            {
    693              /* Cancel the outgoing TX ACK */
    694              MAC_RADIO_CANCEL_TX_ACK();
   \   00020F   75E1E8       MOV     0xe1,#-0x18
   \   000212   8015         SJMP    ??rxStartIsr_15
    695          
    696              /* buffer allocation failed, discard the frame and exit*/
    697              rxDiscardFrame();
    698              return;
    699            }
   \                     ??rxStartIsr_16:
   \   000214   E0           MOVX    A,@DPTR
   \   000215   6403         XRL     A,#0x3
   \   000217   6003         JZ      $+5
   \   000219   02....       LJMP    ??rxStartIsr_14 & 0xFFFF
   \   00021C   90....       MOV     DPTR,#rxBuf + 1
   \   00021F   E0           MOVX    A,@DPTR
   \   000220   5407         ANL     A,#0x7
   \   000222   6403         XRL     A,#0x3
   \   000224   7003         JNZ     $+5
   \   000226   02....       LJMP    ??rxStartIsr_14 & 0xFFFF
   \                     ??rxStartIsr_15:
   \   000229                ; Setup parameters for call to function rxDiscardFrame
   \   000229   12....       LCALL   ??rxDiscardFrame?relay
   \   00022C   02....       LJMP    ??rxStartIsr_3 & 0xFFFF
    700          
    701            /*-------------------------------------------------------------------------------
    702             *  Set up to process ACK request.  Do not ACK if in promiscuous mode.
    703             */
    704            ackWithPending = 0;
   \                     ??rxStartIsr_20:
   \   00022F   7F00         MOV     R7,#0x0
    705            if (!rxPromiscuousMode)
   \   000231   90....       MOV     DPTR,#rxPromiscuousMode
   \   000234   E0           MOVX    A,@DPTR
   \   000235   700A         JNZ     ??rxStartIsr_21
    706            {
    707              macRxOutgoingAckFlag = MAC_ACK_REQUEST(&rxBuf[1]);
   \   000237   90....       MOV     DPTR,#rxBuf + 1
   \   00023A   E0           MOVX    A,@DPTR
   \   00023B   5420         ANL     A,#0x20
   \   00023D   90....       MOV     DPTR,#macRxOutgoingAckFlag
   \   000240   F0           MOVX    @DPTR,A
    708            }
    709          
    710            /*-------------------------------------------------------------------------------
    711             *  Process any ACK request.
    712             */
    713            if (macRxOutgoingAckFlag)
   \                     ??rxStartIsr_21:
   \   000241   90....       MOV     DPTR,#macRxOutgoingAckFlag
   \   000244   E0           MOVX    A,@DPTR
   \   000245   6055         JZ      ??rxStartIsr_22
    714            {
    715              halIntState_t  s;
    716          
    717              /*
    718               *  This critical section ensures that the callback ISR is initiated within time
    719               *  to guarantee correlation with the strobe.
    720               */
    721              HAL_ENTER_CRITICAL_SECTION(s);
   \   000247   A2AF         MOV     C,0xa8.7
   \   000249   E4           CLR     A
   \   00024A   33           RLC     A
   \   00024B   F5..         MOV     ?V0 + 0,A
   \   00024D   C2AF         CLR     0xa8.7
    722          
    723              /* Do not ack data packet with pending more data */
    724              if( MAC_FRAME_TYPE(&rxBuf[1]) == MAC_FRAME_TYPE_COMMAND )
   \   00024F   90....       MOV     DPTR,#rxBuf + 1
   \   000252   E0           MOVX    A,@DPTR
   \   000253   5407         ANL     A,#0x7
   \   000255   6403         XRL     A,#0x3
   \   000257   7026         JNZ     ??rxStartIsr_23
    725              {
    726                if( macRxCheckMACPendingCallback())
   \   000259                ; Setup parameters for call to function macRxCheckMACPendingCallback
   \   000259   12....       LCALL   ??macRxCheckMACPendingCallback?relay
   \   00025C   E9           MOV     A,R1
   \   00025D   600A         JZ      ??rxStartIsr_24
    727                {
    728                  /* Check is any mac data pending for end devices */
    729                  ackWithPending = MAC_RX_FLAG_ACK_PENDING;
   \                     ??rxStartIsr_25:
   \   00025F   7F04         MOV     R7,#0x4
    730                }
    731                else
    732                {
    733                  if( macSrcMatchIsEnabled )
    734                  {
    735                    /* When autopend is enabled, check if allpending is set to true */
    736                    if( MAC_SrcMatchCheckAllPending() == MAC_AUTOACK_PENDING_ALL_ON )
    737                    {
    738                      ackWithPending = MAC_RX_FLAG_ACK_PENDING;
    739                    }
    740                  }
    741                  else
    742                  {
    743                    /* When autopend is disabled, check the application pending callback */
    744                    if( macRxCheckPendingCallback() )
    745                    {
    746                      ackWithPending = MAC_RX_FLAG_ACK_PENDING;
    747                    }
    748                  }
    749                }
    750              }
    751          
    752              if( ackWithPending == MAC_RX_FLAG_ACK_PENDING )
    753              {
    754                MAC_RADIO_TX_ACK_PEND();
   \   000261   90618A       MOV     DPTR,#0x618a
   \   000264   E0           MOVX    A,@DPTR
   \   000265   D2E2         SETB    0xE0 /* A   */.2
   \   000267   801C         SJMP    ??rxStartIsr_26
    755              }
   \                     ??rxStartIsr_24:
   \   000269   90....       MOV     DPTR,#macSrcMatchIsEnabled
   \   00026C   E0           MOVX    A,@DPTR
   \   00026D   600A         JZ      ??rxStartIsr_27
   \   00026F                ; Setup parameters for call to function MAC_SrcMatchCheckAllPending
   \   00026F   12....       LCALL   ??MAC_SrcMatchCheckAllPending?relay
   \   000272   E9           MOV     A,R1
   \   000273   64FE         XRL     A,#0xfe
   \   000275   7008         JNZ     ??rxStartIsr_23
   \   000277   80E6         SJMP    ??rxStartIsr_25
   \                     ??rxStartIsr_27:
   \   000279                ; Setup parameters for call to function macRxCheckPendingCallback
   \   000279   12....       LCALL   ??macRxCheckPendingCallback?relay
   \   00027C   E9           MOV     A,R1
   \   00027D   70E0         JNZ     ??rxStartIsr_25
    756              else
    757              {
    758                MAC_RADIO_TX_ACK();
   \                     ??rxStartIsr_23:
   \   00027F   90618A       MOV     DPTR,#0x618a
   \   000282   E0           MOVX    A,@DPTR
   \   000283   C2E2         CLR     0xE0 /* A   */.2
    759              }
   \                     ??rxStartIsr_26:
   \   000285   12....       LCALL   ?Subroutine9 & 0xFFFF
    760          
    761          
    762              /* request a callback to macRxAckTxDoneCallback() when the ACK transmit has finished */
    763              MAC_RADIO_REQUEST_ACK_TX_DONE_CALLBACK();
   \                     ??CrossCallReturnLabel_10:
   \   000288   7591FE       MOV     0x91,#-0x2
   \   00028B   A2E7         MOV     C,0xE0 /* A   */.7
   \   00028D   92AF         MOV     0xa8.7,C
   \   00028F   9061A4       MOV     DPTR,#0x61a4
   \   000292   E0           MOVX    A,@DPTR
   \   000293   D2E0         SETB    0xE0 /* A   */.0
   \   000295   F0           MOVX    @DPTR,A
    764              HAL_EXIT_CRITICAL_SECTION(s);
   \   000296   E5..         MOV     A,?V0 + 0
   \   000298   A2E0         MOV     C,0xE0 /* A   */.0
   \   00029A   92AF         MOV     0xa8.7,C
    765            }
    766          
    767           /*-------------------------------------------------------------------------------
    768            *  Populate the receive buffer going up to high-level.
    769            */
    770          
    771            /* configure the payload buffer
    772             * save MAC header pointer regardless of security status.
    773             */
    774            pRxBuf->mhr.p   = pRxBuf->msdu.p   = (uint8 *) (pRxBuf + 1);
   \                     ??rxStartIsr_22:
   \   00029C   90....       MOV     DPTR,#pRxBuf
   \   00029F   E0           MOVX    A,@DPTR
   \   0002A0   2435         ADD     A,#0x35
   \   0002A2   12....       LCALL   ?Subroutine29 & 0xFFFF
   \                     ??CrossCallReturnLabel_46:
   \   0002A5   FA           MOV     R2,A
   \   0002A6   A3           INC     DPTR
   \   0002A7   E0           MOVX    A,@DPTR
   \   0002A8   F583         MOV     DPH,A
   \   0002AA   8A82         MOV     DPL,R2
   \   0002AC   A3           INC     DPTR
   \   0002AD   A3           INC     DPTR
   \   0002AE   E8           MOV     A,R0
   \   0002AF   F0           MOVX    @DPTR,A
   \   0002B0   A3           INC     DPTR
   \   0002B1   E9           MOV     A,R1
   \   0002B2   12....       LCALL   ?Subroutine3 & 0xFFFF
   \                     ??CrossCallReturnLabel_2:
   \   0002B5   E0           MOVX    A,@DPTR
   \   0002B6   FA           MOV     R2,A
   \   0002B7   A3           INC     DPTR
   \   0002B8   E0           MOVX    A,@DPTR
   \   0002B9   FB           MOV     R3,A
   \   0002BA   90....       MOV     DPTR,#pRxBuf
   \   0002BD   E0           MOVX    A,@DPTR
   \   0002BE   2432         ADD     A,#0x32
   \   0002C0   12....       LCALL   ??Subroutine33_0 & 0xFFFF
    775            pRxBuf->mhr.len = pRxBuf->msdu.len =  rxPayloadLen;
   \                     ??CrossCallReturnLabel_56:
   \   0002C3   90....       MOV     DPTR,#rxPayloadLen
   \   0002C6   E0           MOVX    A,@DPTR
   \   0002C7   C0E0         PUSH    A
   \   0002C9   12....       LCALL   ?Subroutine15 & 0xFFFF
   \                     ??CrossCallReturnLabel_22:
   \   0002CC   D0E0         POP     A
   \   0002CE   12....       LCALL   ?Subroutine3 & 0xFFFF
   \                     ??CrossCallReturnLabel_3:
   \   0002D1   A3           INC     DPTR
   \   0002D2   A3           INC     DPTR
   \   0002D3   E0           MOVX    A,@DPTR
   \   0002D4   C0E0         PUSH    A
   \   0002D6   12....       LCALL   ?Subroutine10 & 0xFFFF
   \                     ??CrossCallReturnLabel_11:
   \   0002D9   D0E0         POP     A
   \   0002DB   12....       LCALL   ?Subroutine5 & 0xFFFF
    776          
    777            if (MAC_SEC_ENABLED(&rxBuf[1]))
   \                     ??CrossCallReturnLabel_5:
   \   0002DE   5042         JNC     ??CrossCallReturnLabel_54
    778            {
    779              /* Copy FCF and sequence number to RX buffer */
    780              pRxBuf->mhr.len = MAC_FCF_FIELD_LEN + MAC_SEQ_NUM_FIELD_LEN;
   \   0002E0   12....       LCALL   ?Subroutine10 & 0xFFFF
   \                     ??CrossCallReturnLabel_12:
   \   0002E3   7403         MOV     A,#0x3
   \   0002E5   F0           MOVX    @DPTR,A
    781              osal_memcpy(pRxBuf->mhr.p, &rxBuf[1], pRxBuf->mhr.len);
   \   0002E6                ; Setup parameters for call to function osal_memcpy
   \   0002E6   75....       MOV     ?V0 + 0,#(rxBuf + 1) & 0xff
   \   0002E9   75....       MOV     ?V0 + 1,#((rxBuf + 1) >> 8) & 0xff
   \   0002EC   75..00       MOV     ?V0 + 2,#0x0
   \   0002EF   78..         MOV     R0,#?V0 + 0
   \   0002F1   12....       LCALL   ?PUSH_XSTACK_I_THREE
   \   0002F4   12....       LCALL   ?Subroutine10 & 0xFFFF
   \                     ??CrossCallReturnLabel_13:
   \   0002F7   E0           MOVX    A,@DPTR
   \   0002F8   FC           MOV     R4,A
   \   0002F9   7D00         MOV     R5,#0x0
   \   0002FB   90....       MOV     DPTR,#pRxBuf
   \   0002FE   E0           MOVX    A,@DPTR
   \   0002FF   2432         ADD     A,#0x32
   \   000301   18           DEC     R0
   \   000302   18           DEC     R0
   \   000303   12....       LCALL   ??Subroutine36_0 & 0xFFFF
   \                     ??CrossCallReturnLabel_61:
   \   000306   E0           MOVX    A,@DPTR
   \   000307   FA           MOV     R2,A
   \   000308   A3           INC     DPTR
   \   000309   E0           MOVX    A,@DPTR
   \   00030A   FB           MOV     R3,A
   \   00030B   12....       LCALL   ??osal_memcpy?relay
   \   00030E   7403         MOV     A,#0x3
   \   000310   12....       LCALL   ?DEALLOC_XSTACK8
    782              pRxBuf->mhr.p += pRxBuf->mhr.len;
   \   000313   90....       MOV     DPTR,#pRxBuf
   \   000316   E0           MOVX    A,@DPTR
   \   000317   2432         ADD     A,#0x32
   \   000319   12....       LCALL   ?Subroutine11 & 0xFFFF
    783            }
   \                     ??CrossCallReturnLabel_14:
   \   00031C   12....       LCALL   ?Subroutine21 & 0xFFFF
   \                     ??CrossCallReturnLabel_32:
   \   00031F   12....       LCALL   ??Subroutine34_0 & 0xFFFF
    784          
    785            /* set internal values */
    786            pRxBuf->mac.srcAddr.addrMode  = srcAddrMode;
   \                     ??CrossCallReturnLabel_54:
   \   000322   90....       MOV     DPTR,#pRxBuf
   \   000325   E0           MOVX    A,@DPTR
   \   000326   241A         ADD     A,#0x1a
   \   000328   12....       LCALL   ?Subroutine17 & 0xFFFF
   \                     ??CrossCallReturnLabel_64:
   \   00032B   E5..         MOV     A,?V0 + 4
   \   00032D   12....       LCALL   ??Subroutine39_0 & 0xFFFF
    787            pRxBuf->mac.dstAddr.addrMode  = dstAddrMode;
   \                     ??CrossCallReturnLabel_77:
   \   000330   2423         ADD     A,#0x23
   \   000332   12....       LCALL   ?Subroutine17 & 0xFFFF
   \                     ??CrossCallReturnLabel_65:
   \   000335   E5..         MOV     A,?V0 + 3
   \   000337   F0           MOVX    @DPTR,A
    788            pRxBuf->mac.timestamp         = MAC_RADIO_BACKOFF_CAPTURE();
   \   000338                ; Setup parameters for call to function macMcuOverflowCapture
   \   000338   12....       LCALL   ??macMcuOverflowCapture?relay
   \   00033B   8A..         MOV     ?V0 + 0,R2
   \   00033D   8B..         MOV     ?V0 + 1,R3
   \   00033F   8C..         MOV     ?V0 + 2,R4
   \   000341   8D..         MOV     ?V0 + 3,R5
   \   000343   90....       MOV     DPTR,#pRxBuf
   \   000346   E0           MOVX    A,@DPTR
   \   000347   2424         ADD     A,#0x24
   \   000349   12....       LCALL   ?Subroutine17 & 0xFFFF
   \                     ??CrossCallReturnLabel_66:
   \   00034C   78..         MOV     R0,#?V0 + 0
   \   00034E   12....       LCALL   ?L_MOV_TO_X
    789            pRxBuf->mac.timestamp2        = MAC_RADIO_TIMER_CAPTURE();
   \   000351                ; Setup parameters for call to function macMcuTimerCapture
   \   000351   12....       LCALL   ??macMcuTimerCapture?relay
   \   000354   90....       MOV     DPTR,#pRxBuf
   \   000357   E0           MOVX    A,@DPTR
   \   000358   2428         ADD     A,#0x28
   \   00035A   12....       LCALL   ??Subroutine33_0 & 0xFFFF
    790            pRxBuf->internal.frameType    = MAC_FRAME_TYPE(&rxBuf[1]);
   \                     ??CrossCallReturnLabel_57:
   \   00035D   90....       MOV     DPTR,#rxBuf + 1
   \   000360   E0           MOVX    A,@DPTR
   \   000361   5407         ANL     A,#0x7
   \   000363   C0E0         PUSH    A
   \   000365   12....       LCALL   ?Subroutine15 & 0xFFFF
   \                     ??CrossCallReturnLabel_23:
   \   000368   A3           INC     DPTR
   \   000369   D0E0         POP     A
   \   00036B   F0           MOVX    @DPTR,A
    791            pRxBuf->mac.dsn               = MAC_SEQ_NUMBER(&rxBuf[1]);
   \   00036C   90....       MOV     DPTR,#rxBuf + 3
   \   00036F   E0           MOVX    A,@DPTR
   \   000370   C0E0         PUSH    A
   \   000372   90....       MOV     DPTR,#pRxBuf
   \   000375   E0           MOVX    A,@DPTR
   \   000376   2431         ADD     A,#0x31
   \   000378   12....       LCALL   ?Subroutine17 & 0xFFFF
   \                     ??CrossCallReturnLabel_67:
   \   00037B   D0E0         POP     A
   \   00037D   F0           MOVX    @DPTR,A
    792            pRxBuf->internal.flags        = INTERNAL_FCF_FLAGS(&rxBuf[1]) | ackWithPending;
   \   00037E   90....       MOV     DPTR,#rxBuf + 1
   \   000381   E0           MOVX    A,@DPTR
   \   000382   5478         ANL     A,#0x78
   \   000384   F8           MOV     R0,A
   \   000385   A3           INC     DPTR
   \   000386   E0           MOVX    A,@DPTR
   \   000387   C4           SWAP    A
   \   000388   540F         ANL     A,#0xf
   \   00038A   5403         ANL     A,#0x3
   \   00038C   48           ORL     A,R0
   \   00038D   4F           ORL     A,R7
   \   00038E   C0E0         PUSH    A
   \   000390   12....       LCALL   ?Subroutine14 & 0xFFFF
   \                     ??CrossCallReturnLabel_20:
   \   000393   D0E0         POP     A
   \   000395   F0           MOVX    @DPTR,A
    793          
    794            /*-------------------------------------------------------------------------------
    795             *  If the processing the addressing fields does not require more bytes from
    796             *  the FIFO go directly address processing function.  Otherwise, configure
    797             *  interrupt to jump there once bytes are received.
    798             */
    799            if (addrLen == 0)
   \   000396   EE           MOV     A,R6
   \   000397   7005         JNZ     ??rxStartIsr_28
    800            {
    801              /* no addressing fields to read, prepare for payload interrupts */
    802              pFuncRxState = &rxPayloadIsr;
   \   000399   12....       LCALL   ?Subroutine7 & 0xFFFF
    803              rxPrepPayload();
    804            }
   \                     ??CrossCallReturnLabel_7:
   \   00039C   801B         SJMP    ??rxStartIsr_3
    805            else
    806            {
    807              /* need to read and process addressing fields, prepare for address interrupt */
    808              rxNextLen = addrLen;
   \                     ??rxStartIsr_28:
   \   00039E   90....       MOV     DPTR,#rxNextLen
   \   0003A1   12....       LCALL   ?Subroutine5 & 0xFFFF
    809              if (MAC_SEC_ENABLED(&rxBuf[1]))
   \                     ??CrossCallReturnLabel_6:
   \   0003A4   90....       MOV     DPTR,#rxNextLen
   \   0003A7   E0           MOVX    A,@DPTR
   \   0003A8   4001         JC      ??rxStartIsr_29
    810              {
    811                /* When security is enabled, read off security control field as well */
    812                MAC_RADIO_SET_RX_THRESHOLD(rxNextLen + MAC_SEC_CONTROL_FIELD_LEN);
    813              }
    814              else
    815              {
    816                MAC_RADIO_SET_RX_THRESHOLD(rxNextLen);
   \   0003AA   14           DEC     A
   \                     ??rxStartIsr_29:
   \   0003AB   906194       MOV     DPTR,#0x6194
   \   0003AE   F0           MOVX    @DPTR,A
    817              }
    818              pFuncRxState = &rxAddrIsr;
   \   0003AF   90....       MOV     DPTR,#pFuncRxState
   \   0003B2   74..         MOV     A,#??rxAddrIsr?relay & 0xff
   \   0003B4   F0           MOVX    @DPTR,A
   \   0003B5   A3           INC     DPTR
   \   0003B6   74..         MOV     A,#(??rxAddrIsr?relay >> 8) & 0xff
   \   0003B8   F0           MOVX    @DPTR,A
   \                     ??rxStartIsr_3:
   \   0003B9   7402         MOV     A,#0x2
   \   0003BB   12....       LCALL   ?DEALLOC_XSTACK8
   \   0003BE   7F05         MOV     R7,#0x5
   \   0003C0   02....       LJMP    ?BANKED_LEAVE_XDATA
   \   0003C3                REQUIRE RFST
   \   0003C3                REQUIRE _A_IEN0
   \   0003C3                REQUIRE S1CON
   \   0003C3                REQUIRE RFIRQF1
    819            }
    820          }

   \                                 In  segment BANKED_CODE, align 1, keep-with-next
   \                     ?Subroutine23:
   \   000000   74..         MOV     A,#macRxAddrLen & 0xff
   \   000002   25..         ADD     A,?V0 + 0
   \   000004   F582         MOV     DPL,A
   \   000006   74..         MOV     A,#(macRxAddrLen >> 8) & 0xff
   \   000008   3400         ADDC    A,#0x0
   \   00000A   F583         MOV     DPH,A
   \   00000C   E4           CLR     A
   \   00000D   93           MOVC    A,@A+DPTR
   \   00000E   22           RET

   \                                 In  segment BANKED_CODE, align 1, keep-with-next
   \                     ?Subroutine15:
   \   000000   12....       LCALL   ?Subroutine26 & 0xFFFF
   \                     ??CrossCallReturnLabel_41:
   \   000003   22           RET

   \                                 In  segment BANKED_CODE, align 1, keep-with-next
   \                     ?Subroutine26:
   \   000000   90....       MOV     DPTR,#pRxBuf
   \   000003   12....       LCALL   ?Subroutine30 & 0xFFFF
   \                     ??CrossCallReturnLabel_48:
   \   000006   A3           INC     DPTR
   \   000007   A3           INC     DPTR
   \   000008   A3           INC     DPTR
   \   000009   A3           INC     DPTR
   \   00000A   22           RET

   \                                 In  segment BANKED_CODE, align 1, keep-with-next
   \                     ?Subroutine10:
   \   000000   90....       MOV     DPTR,#pRxBuf
   \   000003   E0           MOVX    A,@DPTR
   \   000004   2434         ADD     A,#0x34
   \   000006   12....       LCALL   ?Subroutine25 & 0xFFFF
   \                     ??CrossCallReturnLabel_71:
   \   000009   22           RET

   \                                 In  segment BANKED_CODE, align 1, keep-with-next
   \                     ?Subroutine25:
   \   000000   F8           MOV     R0,A
   \   000001                REQUIRE ??Subroutine31_0
   \   000001                ; // Fall through to label ??Subroutine31_0

   \                                 In  segment BANKED_CODE, align 1, keep-with-next
   \                     ??Subroutine31_0:
   \   000000   A3           INC     DPTR
   \   000001   E0           MOVX    A,@DPTR
   \   000002   3400         ADDC    A,#0x0
   \   000004   F9           MOV     R1,A
   \   000005   8882         MOV     DPL,R0
   \   000007   8983         MOV     DPH,R1
   \   000009   22           RET

   \                                 In  segment BANKED_CODE, align 1, keep-with-next
   \                     ?Subroutine8:
   \   000000   9061A4       MOV     DPTR,#0x61a4
   \   000003   E0           MOVX    A,@DPTR
   \   000004   C2E0         CLR     0xE0 /* A   */.0
   \   000006                REQUIRE ??Subroutine32_0
   \   000006                ; // Fall through to label ??Subroutine32_0

   \                                 In  segment BANKED_CODE, align 1, keep-with-next
   \                     ??Subroutine33_0:
   \   000000   F8           MOV     R0,A
   \   000001   A3           INC     DPTR
   \   000002   E0           MOVX    A,@DPTR
   \   000003   3400         ADDC    A,#0x0
   \   000005   F9           MOV     R1,A
   \   000006                REQUIRE ??Subroutine34_0
   \   000006                ; // Fall through to label ??Subroutine34_0

   \                                 In  segment BANKED_CODE, align 1, keep-with-next
   \                     ??Subroutine34_0:
   \   000000   8882         MOV     DPL,R0
   \   000002   8983         MOV     DPH,R1
   \   000004   EA           MOV     A,R2
   \   000005                REQUIRE ??Subroutine35_0
   \   000005                ; // Fall through to label ??Subroutine35_0

   \                                 In  segment BANKED_CODE, align 1, keep-with-next
   \                     ??Subroutine35_0:
   \   000000   F0           MOVX    @DPTR,A
   \   000001   A3           INC     DPTR
   \   000002   EB           MOV     A,R3
   \   000003   F0           MOVX    @DPTR,A
   \   000004   22           RET

   \                                 In  segment BANKED_CODE, align 1, keep-with-next
   \                     ?Subroutine5:
   \   000000   F0           MOVX    @DPTR,A
   \   000001   90....       MOV     DPTR,#rxBuf + 1
   \   000004   E0           MOVX    A,@DPTR
   \   000005   A2E3         MOV     C,0xE0 /* A   */.3
   \   000007   22           RET

   \                                 In  segment BANKED_CODE, align 1, keep-with-next
   \                     ?Subroutine3:
   \   000000   F0           MOVX    @DPTR,A
   \   000001   90....       MOV     DPTR,#pRxBuf
   \   000004   12....       LCALL   ?Subroutine28 & 0xFFFF
   \                     ??CrossCallReturnLabel_45:
   \   000007   A3           INC     DPTR
   \   000008   A3           INC     DPTR
   \   000009   22           RET

   \                                 In  segment BANKED_CODE, align 1, keep-with-next
   \                     ?Subroutine17:
   \   000000   F8           MOV     R0,A
   \   000001                REQUIRE ??Subroutine36_0
   \   000001                ; // Fall through to label ??Subroutine36_0

   \                                 In  segment BANKED_CODE, align 1, keep-with-next
   \                     ??Subroutine36_0:
   \   000000   12....       LCALL   ??Subroutine31_0 & 0xFFFF
   \                     ??CrossCallReturnLabel_73:
   \   000003   22           RET

   \                                 In  segment BANKED_CODE, align 1, keep-with-next
   \                     ?Subroutine14:
   \   000000   12....       LCALL   ?Subroutine26 & 0xFFFF
   \                     ??CrossCallReturnLabel_40:
   \   000003   A3           INC     DPTR
   \   000004   A3           INC     DPTR
   \   000005   22           RET

   \                                 In  segment BANKED_CODE, align 1, keep-with-next
   \                     ?Subroutine7:
   \   000000   90....       MOV     DPTR,#pFuncRxState
   \   000003   74..         MOV     A,#??rxPayloadIsr?relay & 0xff
   \   000005   F0           MOVX    @DPTR,A
   \   000006   A3           INC     DPTR
   \   000007   74..         MOV     A,#(??rxPayloadIsr?relay >> 8) & 0xff
   \   000009   F0           MOVX    @DPTR,A
   \   00000A                ; Setup parameters for call to function rxPrepPayload
   \   00000A                ; Setup parameters for call to function rxPrepPayload
   \   00000A   12....       LCALL   ??rxPrepPayload?relay
   \   00000D   22           RET

   \                                 In  segment BANKED_CODE, align 1, keep-with-next
   \                     ?Subroutine21:
   \   000000   8882         MOV     DPL,R0
   \   000002   8983         MOV     DPH,R1
   \   000004   E0           MOVX    A,@DPTR
   \   000005   2A           ADD     A,R2
   \   000006   FA           MOV     R2,A
   \   000007   A3           INC     DPTR
   \   000008   E0           MOVX    A,@DPTR
   \   000009   3400         ADDC    A,#0x0
   \   00000B   FB           MOV     R3,A
   \   00000C   22           RET

   \                                 In  segment BANKED_CODE, align 1, keep-with-next
   \                     ?Subroutine16:
   \   000000   12....       LCALL   ?Subroutine25 & 0xFFFF
   \                     ??CrossCallReturnLabel_72:
   \   000003   EE           MOV     A,R6
   \   000004   22           RET

   \                                 In  segment BANKED_CODE, align 1, keep-with-next
   \                     ?Subroutine12:
   \   000000   90....       MOV     DPTR,#macRadioDefsRefTableId
   \   000003   E0           MOVX    A,@DPTR
   \   000004   540F         ANL     A,#0xf
   \   000006   F8           MOV     R0,A
   \   000007   74..         MOV     A,#macRadioDefsRssiAdj & 0xff
   \   000009   28           ADD     A,R0
   \   00000A   F582         MOV     DPL,A
   \   00000C   74..         MOV     A,#(macRadioDefsRssiAdj >> 8) & 0xff
   \   00000E   3400         ADDC    A,#0x0
   \   000010   F583         MOV     DPH,A
   \   000012   E4           CLR     A
   \   000013   93           MOVC    A,@A+DPTR
   \   000014   22           RET

   \                                 In  segment BANKED_CODE, align 1, keep-with-next
   \                     ?Subroutine11:
   \   000000   12....       LCALL   ?Subroutine29 & 0xFFFF
   \                     ??CrossCallReturnLabel_47:
   \   000003   2434         ADD     A,#0x34
   \   000005   12....       LCALL   ?Subroutine27 & 0xFFFF
   \                     ??CrossCallReturnLabel_43:
   \   000008   22           RET

   \                                 In  segment BANKED_CODE, align 1, keep-with-next
   \                     ?Subroutine29:
   \   000000   F8           MOV     R0,A
   \   000001   A3           INC     DPTR
   \   000002   E0           MOVX    A,@DPTR
   \   000003   3400         ADDC    A,#0x0
   \   000005   F9           MOV     R1,A
   \   000006   90....       MOV     DPTR,#pRxBuf
   \   000009   E0           MOVX    A,@DPTR
   \   00000A   22           RET

   \                                 In  segment BANKED_CODE, align 1, keep-with-next
   \                     ?Subroutine27:
   \   000000   FA           MOV     R2,A
   \   000001   A3           INC     DPTR
   \   000002   E0           MOVX    A,@DPTR
   \   000003   3400         ADDC    A,#0x0
   \   000005   FB           MOV     R3,A
   \   000006   8A82         MOV     DPL,R2
   \   000008   8B83         MOV     DPH,R3
   \   00000A   E0           MOVX    A,@DPTR
   \   00000B   FA           MOV     R2,A
   \   00000C   22           RET

   \                                 In  segment BANKED_CODE, align 1, keep-with-next
   \                     ??Subroutine38_0:
   \   000000   EA           MOV     A,R2
   \   000001   F0           MOVX    @DPTR,A
   \   000002   A3           INC     DPTR
   \   000003   EB           MOV     A,R3
   \   000004                REQUIRE ??Subroutine39_0
   \   000004                ; // Fall through to label ??Subroutine39_0

   \                                 In  segment BANKED_CODE, align 1, keep-with-next
   \                     ??Subroutine39_0:
   \   000000   F0           MOVX    @DPTR,A
   \   000001                ; Setup parameters for call to function macRxCompleteCallback
   \   000001   90....       MOV     DPTR,#pRxBuf
   \   000004   E0           MOVX    A,@DPTR
   \   000005   22           RET
    821          
    822          
    823          /*=================================================================================================
    824           * @fn          rxAddrIsr
    825           *
    826           * @brief       Receive ISR state for decoding address.  Reads and stores the address information
    827           *              from the incoming packet.
    828           *
    829           * @param       none
    830           *
    831           * @return      none
    832           *=================================================================================================
    833           */

   \                                 In  segment BANKED_CODE, align 1, keep-with-next
   \                     ?Subroutine6:
   \   000000   90....       MOV     DPTR,#pRxBuf
   \   000003   E0           MOVX    A,@DPTR
   \   000004   242A         ADD     A,#0x2a
   \   000006                REQUIRE ??Subroutine33_0
   \   000006                ; // Fall through to label ??Subroutine33_0

   \                                 In  segment BANKED_CODE, align 1, keep-with-next
    834          static void rxAddrIsr(void)
   \                     rxAddrIsr:
    835          {
   \   000000   74F7         MOV     A,#-0x9
   \   000002   12....       LCALL   ?BANKED_ENTER_XDATA
   \   000005                ; Saved register size: 9
   \   000005                ; Auto size: 20
   \   000005   74EC         MOV     A,#-0x14
   \   000007   12....       LCALL   ?ALLOC_XSTACK8
    836            uint8 buf[MAX_ADDR_FIELDS_LEN];
    837            uint8 dstAddrMode;
    838            uint8 srcAddrMode;
    839          #ifdef MAC_SECURITY  
    840            uint8 securityControl;
    841          #endif /* MAC_SECURITY */  
    842            uint8  * p;
    843          
    844            MAC_ASSERT(rxNextLen != 0); /* logic assumes at least one address byte in buffer */
   \   00000A   90....       MOV     DPTR,#rxNextLen
   \   00000D   E0           MOVX    A,@DPTR
   \   00000E   7003         JNZ     ??rxAddrIsr_0
   \   000010                ; Setup parameters for call to function halAssertHandler
   \   000010   12....       LCALL   ??halAssertHandler?relay
    845          
    846            /*  read out address fields into local buffer in one shot */
    847            MAC_RADIO_READ_RX_FIFO(buf, rxNextLen);
   \                     ??rxAddrIsr_0:
   \   000013                ; Setup parameters for call to function macMemReadRxFifo
   \   000013   12....       LCALL   ?Subroutine13 & 0xFFFF
    848          
    849            /* set pointer to buffer with addressing fields */
    850            p = buf;
   \                     ??CrossCallReturnLabel_18:
   \   000016   85..82       MOV     DPL,?XSP + 0
   \   000019   85..83       MOV     DPH,?XSP + 1
   \   00001C   AC82         MOV     R4,DPL
   \   00001E   AD83         MOV     R5,DPH
    851          
    852            /* destination address */
    853            dstAddrMode = MAC_DEST_ADDR_MODE(&rxBuf[1]);
   \   000020   90....       MOV     DPTR,#rxBuf + 2
   \   000023   E0           MOVX    A,@DPTR
   \   000024   13           RRC     A
   \   000025   13           RRC     A
   \   000026   543F         ANL     A,#0x3f
   \   000028   5403         ANL     A,#0x3
   \   00002A   FE           MOV     R6,A
    854            if (dstAddrMode != SADDR_MODE_NONE)
   \   00002B   606E         JZ      ??rxAddrIsr_1
    855            {
    856              pRxBuf->mac.srcPanId = pRxBuf->mac.dstPanId = BUILD_UINT16(p[0], p[1]);
   \   00002D   90....       MOV     DPTR,#pRxBuf
   \   000030   E0           MOVX    A,@DPTR
   \   000031   242C         ADD     A,#0x2c
   \   000033   F8           MOV     R0,A
   \   000034   A3           INC     DPTR
   \   000035   E0           MOVX    A,@DPTR
   \   000036   3400         ADDC    A,#0x0
   \   000038   F9           MOV     R1,A
   \   000039   85..82       MOV     DPL,?XSP + 0
   \   00003C   85..83       MOV     DPH,?XSP + 1
   \   00003F   E0           MOVX    A,@DPTR
   \   000040   FC           MOV     R4,A
   \   000041   7401         MOV     A,#0x1
   \   000043   12....       LCALL   ?XSTACK_DISP0_8
   \   000046   E0           MOVX    A,@DPTR
   \   000047   FB           MOV     R3,A
   \   000048   EC           MOV     A,R4
   \   000049   8882         MOV     DPL,R0
   \   00004B   8983         MOV     DPH,R1
   \   00004D   12....       LCALL   ??Subroutine35_0 & 0xFFFF
   \                     ??CrossCallReturnLabel_53:
   \   000050   8882         MOV     DPL,R0
   \   000052   8983         MOV     DPH,R1
   \   000054   E0           MOVX    A,@DPTR
   \   000055   FA           MOV     R2,A
   \   000056   12....       LCALL   ?Subroutine6 & 0xFFFF
    857              p += MAC_PAN_ID_FIELD_LEN;
    858              if (dstAddrMode == SADDR_MODE_EXT)
   \                     ??CrossCallReturnLabel_59:
   \   000059   7403         MOV     A,#0x3
   \   00005B   6E           XRL     A,R6
   \   00005C   701C         JNZ     ??rxAddrIsr_2
    859              {
    860                sAddrExtCpy(pRxBuf->mac.dstAddr.addr.extAddr, p);
   \   00005E                ; Setup parameters for call to function sAddrExtCpy
   \   00005E   7402         MOV     A,#0x2
   \   000060   12....       LCALL   ?XSTACK_DISP0_8
   \   000063   AC82         MOV     R4,DPL
   \   000065   AD83         MOV     R5,DPH
   \   000067   90....       MOV     DPTR,#pRxBuf
   \   00006A   E0           MOVX    A,@DPTR
   \   00006B   241B         ADD     A,#0x1b
   \   00006D   FA           MOV     R2,A
   \   00006E   A3           INC     DPTR
   \   00006F   E0           MOVX    A,@DPTR
   \   000070   3400         ADDC    A,#0x0
   \   000072   FB           MOV     R3,A
   \   000073   12....       LCALL   ??sAddrExtCpy?relay
    861                p += MAC_EXT_ADDR_FIELD_LEN;
   \   000076   740A         MOV     A,#0xa
   \   000078   801A         SJMP    ??rxAddrIsr_3
    862              }
    863              else
    864              {
    865                pRxBuf->mac.dstAddr.addr.shortAddr = BUILD_UINT16(p[0], p[1]);
   \                     ??rxAddrIsr_2:
   \   00007A   7402         MOV     A,#0x2
   \   00007C   12....       LCALL   ?XSTACK_DISP0_8
   \   00007F   E0           MOVX    A,@DPTR
   \   000080   FA           MOV     R2,A
   \   000081   7403         MOV     A,#0x3
   \   000083   12....       LCALL   ?XSTACK_DISP0_8
   \   000086   12....       LCALL   ?Subroutine20 & 0xFFFF
   \                     ??CrossCallReturnLabel_30:
   \   000089   90....       MOV     DPTR,#pRxBuf
   \   00008C   E0           MOVX    A,@DPTR
   \   00008D   241B         ADD     A,#0x1b
   \   00008F   12....       LCALL   ??Subroutine33_0 & 0xFFFF
    866                p += MAC_SHORT_ADDR_FIELD_LEN;
   \                     ??CrossCallReturnLabel_58:
   \   000092   7404         MOV     A,#0x4
   \                     ??rxAddrIsr_3:
   \   000094   12....       LCALL   ?XSTACK_DISP0_8
   \   000097   AC82         MOV     R4,DPL
   \   000099   AD83         MOV     R5,DPH
    867              }
    868            }
    869          
    870            /* sources address */
    871            srcAddrMode = MAC_SRC_ADDR_MODE(&rxBuf[1]);
   \                     ??rxAddrIsr_1:
   \   00009B   90....       MOV     DPTR,#rxBuf + 2
   \   00009E   E0           MOVX    A,@DPTR
   \   00009F   C4           SWAP    A
   \   0000A0   13           RRC     A
   \   0000A1   13           RRC     A
   \   0000A2   5403         ANL     A,#0x3
   \   0000A4   FE           MOV     R6,A
    872            if (srcAddrMode != SADDR_MODE_NONE)
   \   0000A5   6066         JZ      ??rxAddrIsr_4
    873            {
    874              if (!(pRxBuf->internal.flags & MAC_RX_FLAG_INTRA_PAN))
   \   0000A7   12....       LCALL   ?Subroutine14 & 0xFFFF
   \                     ??CrossCallReturnLabel_21:
   \   0000AA   E0           MOVX    A,@DPTR
   \   0000AB   A2E6         MOV     C,0xE0 /* A   */.6
   \   0000AD   4016         JC      ??rxAddrIsr_5
    875              {
    876                pRxBuf->mac.srcPanId = BUILD_UINT16(p[0], p[1]);
   \   0000AF   8C82         MOV     DPL,R4
   \   0000B1   8D83         MOV     DPH,R5
   \   0000B3   E0           MOVX    A,@DPTR
   \   0000B4   FA           MOV     R2,A
   \   0000B5   A3           INC     DPTR
   \   0000B6   12....       LCALL   ?Subroutine20 & 0xFFFF
   \                     ??CrossCallReturnLabel_31:
   \   0000B9   12....       LCALL   ?Subroutine6 & 0xFFFF
    877                p += MAC_PAN_ID_FIELD_LEN;
   \                     ??CrossCallReturnLabel_60:
   \   0000BC   EC           MOV     A,R4
   \   0000BD   2402         ADD     A,#0x2
   \   0000BF   0C           INC     R4
   \   0000C0   0C           INC     R4
   \   0000C1   ED           MOV     A,R5
   \   0000C2   3400         ADDC    A,#0x0
   \   0000C4   FD           MOV     R5,A
    878              }
    879              if (srcAddrMode == SADDR_MODE_EXT)
   \                     ??rxAddrIsr_5:
   \   0000C5   7403         MOV     A,#0x3
   \   0000C7   6E           XRL     A,R6
   \   0000C8   7008         JNZ     ??rxAddrIsr_6
    880              {
    881                sAddrExtCpy(pRxBuf->mac.srcAddr.addr.extAddr, p);
   \   0000CA                ; Setup parameters for call to function sAddrExtCpy
   \   0000CA   12....       LCALL   ?Subroutine19 & 0xFFFF
    882              }
   \                     ??CrossCallReturnLabel_28:
   \   0000CD   12....       LCALL   ??sAddrExtCpy?relay
   \   0000D0   803B         SJMP    ??rxAddrIsr_4
    883              else
    884              {
    885                pRxBuf->mac.srcAddr.addr.shortAddr = BUILD_UINT16(p[0], p[1]);
   \                     ??rxAddrIsr_6:
   \   0000D2   8C82         MOV     DPL,R4
   \   0000D4   8D83         MOV     DPH,R5
   \   0000D6   A3           INC     DPTR
   \   0000D7   A882         MOV     R0,DPL
   \   0000D9   A983         MOV     R1,DPH
   \   0000DB   8C82         MOV     DPL,R4
   \   0000DD   8D83         MOV     DPH,R5
   \   0000DF   E0           MOVX    A,@DPTR
   \   0000E0   FE           MOV     R6,A
   \   0000E1   8882         MOV     DPL,R0
   \   0000E3   8983         MOV     DPH,R1
   \   0000E5   E0           MOVX    A,@DPTR
   \   0000E6   FB           MOV     R3,A
   \   0000E7   EE           MOV     A,R6
   \   0000E8   2400         ADD     A,#0x0
   \   0000EA   E4           CLR     A
   \   0000EB   3B           ADDC    A,R3
   \   0000EC   FF           MOV     R7,A
   \   0000ED   12....       LCALL   ?Subroutine19 & 0xFFFF
   \                     ??CrossCallReturnLabel_29:
   \   0000F0   8A82         MOV     DPL,R2
   \   0000F2   8B83         MOV     DPH,R3
   \   0000F4   EE           MOV     A,R6
   \   0000F5   F0           MOVX    @DPTR,A
   \   0000F6   A3           INC     DPTR
   \   0000F7   EF           MOV     A,R7
   \   0000F8   F0           MOVX    @DPTR,A
    886          	  lastDeviceShortAddr = BUILD_UINT16(p[0], p[1]);
   \   0000F9   8C82         MOV     DPL,R4
   \   0000FB   8D83         MOV     DPH,R5
   \   0000FD   E0           MOVX    A,@DPTR
   \   0000FE   FA           MOV     R2,A
   \   0000FF   8882         MOV     DPL,R0
   \   000101   8983         MOV     DPH,R1
   \   000103   E0           MOVX    A,@DPTR
   \   000104   F9           MOV     R1,A
   \   000105   EA           MOV     A,R2
   \   000106   90....       MOV     DPTR,#lastDeviceShortAddr
   \   000109   F0           MOVX    @DPTR,A
   \   00010A   A3           INC     DPTR
   \   00010B   E9           MOV     A,R1
   \   00010C   F0           MOVX    @DPTR,A
    887              }
    888            }
    889          
    890          #ifdef MAC_SECURITY
    891            if (MAC_SEC_ENABLED(&rxBuf[1]))
    892            {
    893              uint8 keyIdMode;
    894          
    895              if (MAC_FRAME_VERSION(&rxBuf[1]) == 0)
    896              {
    897                /* MAC_UNSUPPORTED_LEGACY - Cancel the outgoing TX ACK.
    898                 * It may be too late but we have to try.
    899                 */
    900                MAC_RADIO_CANCEL_TX_ACK();
    901          
    902                /* clean up after unsupported security legacy */
    903                macRxHaltCleanup();
    904                return;
    905              }
    906          
    907              /* Copy addressing fields to RX buffer */
    908              osal_memcpy(pRxBuf->mhr.p, buf, rxNextLen);
    909              pRxBuf->mhr.p   += rxNextLen;
    910              pRxBuf->mhr.len += rxNextLen;
    911          
    912              /*-------------------------------------------------------------------------------
    913               *  Prepare for auxiliary security header interrupts.
    914               */
    915          
    916              /* read out security control field from FIFO (threshold set so bytes are guaranteed to be there) */
    917              MAC_RADIO_READ_RX_FIFO(&securityControl, MAC_SEC_CONTROL_FIELD_LEN);
    918          
    919              /* Copy security fields to MHR buffer */
    920              *pRxBuf->mhr.p   = securityControl;
    921              pRxBuf->mhr.p   += MAC_SEC_CONTROL_FIELD_LEN;
    922              pRxBuf->mhr.len += MAC_SEC_CONTROL_FIELD_LEN;
    923          
    924              /* store security level and key ID mode */
    925              pRxBuf->sec.securityLevel = SECURITY_LEVEL(securityControl);
    926              pRxBuf->sec.keyIdMode = keyIdMode = KEY_IDENTIFIER_MODE(securityControl);
    927          
    928              /* Corrupted RX frame, should never occur. */
    929              if ((keyIdMode > MAC_KEY_ID_MODE_8)
    930              /* Get the next RX length according to AuxLen table minus security control field.
    931               * The security control length is counted already.
    932               */
    933              || ((macKeySourceLen[keyIdMode] + MAC_FRAME_COUNTER_LEN) >= rxPayloadLen)
    934              /* Security Enabled subfield is one, but the Security Level in the header is zero:
    935               * MAC_UNSUPPORTED_SECURITY - Cancel the outgoing TX ACK.
    936               */
    937              || (pRxBuf->sec.securityLevel == MAC_SEC_LEVEL_NONE))
    938              {
    939                /* It may be too late but we have to try. */
    940                MAC_RADIO_CANCEL_TX_ACK();
    941          
    942                /* clean up after unsupported security or corrupted RX frame. */
    943                macRxHaltCleanup();
    944                return;
    945              }
    946          
    947              /* get the next RX length according to AuxLen table minus security control field.
    948               * The sceurity control length is counted already.
    949               */
    950              rxNextLen = macKeySourceLen[keyIdMode] + MAC_FRAME_COUNTER_LEN;
    951              MAC_RADIO_SET_RX_THRESHOLD(rxNextLen);
    952              pFuncRxState = &rxSecurityHdrIsr;
    953            }
    954            else
    955          #endif /* MAC_SECURITY */
    956            {
    957              /* clear security level */
    958              pRxBuf->sec.securityLevel = MAC_SEC_LEVEL_NONE;
   \                     ??rxAddrIsr_4:
   \   00010D   90....       MOV     DPTR,#pRxBuf
   \   000110   E0           MOVX    A,@DPTR
   \   000111   240F         ADD     A,#0xf
   \   000113   12....       LCALL   ?Subroutine17 & 0xFFFF
   \                     ??CrossCallReturnLabel_68:
   \   000116   E4           CLR     A
   \   000117   F0           MOVX    @DPTR,A
    959          
    960              /*-------------------------------------------------------------------------------
    961               *  Prepare for payload interrupts.
    962               */
    963              pFuncRxState = &rxPayloadIsr;
   \   000118   12....       LCALL   ?Subroutine7 & 0xFFFF
    964              rxPrepPayload();
    965            }
    966          }
   \                     ??CrossCallReturnLabel_8:
   \   00011B   7414         MOV     A,#0x14
   \   00011D   12....       LCALL   ?DEALLOC_XSTACK8
   \   000120                REQUIRE ?Subroutine1
   \   000120                ; // Fall through to label ?Subroutine1

   \                                 In  segment BANKED_CODE, align 1, keep-with-next
   \                     ?Subroutine1:
   \   000000   7F01         MOV     R7,#0x1
   \   000002   02....       LJMP    ?BANKED_LEAVE_XDATA

   \                                 In  segment BANKED_CODE, align 1, keep-with-next
   \                     ?Subroutine20:
   \   000000   E0           MOVX    A,@DPTR
   \   000001   F9           MOV     R1,A
   \   000002   EA           MOV     A,R2
   \   000003   2400         ADD     A,#0x0
   \   000005   E4           CLR     A
   \   000006   39           ADDC    A,R1
   \   000007   FB           MOV     R3,A
   \   000008   22           RET

   \                                 In  segment BANKED_CODE, align 1, keep-with-next
   \                     ?Subroutine19:
   \   000000   90....       MOV     DPTR,#pRxBuf
   \   000003   E0           MOVX    A,@DPTR
   \   000004   2412         ADD     A,#0x12
   \   000006   FA           MOV     R2,A
   \   000007   A3           INC     DPTR
   \   000008   E0           MOVX    A,@DPTR
   \   000009   3400         ADDC    A,#0x0
   \   00000B   FB           MOV     R3,A
   \   00000C   22           RET

   \                                 In  segment BANKED_CODE, align 1, keep-with-next
   \                     ?Subroutine13:
   \   000000   90....       MOV     DPTR,#rxNextLen
   \   000003   E0           MOVX    A,@DPTR
   \   000004   F9           MOV     R1,A
   \   000005   85..82       MOV     DPL,?XSP + 0
   \   000008   85..83       MOV     DPH,?XSP + 1
   \   00000B   AA82         MOV     R2,DPL
   \   00000D   AB83         MOV     R3,DPH
   \   00000F   12....       LCALL   ??macMemReadRxFifo?relay
   \   000012   22           RET
    967          
    968          
    969          #ifdef MAC_SECURITY
    970          /*=================================================================================================
    971           * @fn          rxSecurityHdrIsr
    972           *
    973           * @brief       Receive ISR state for reading out and storing the auxiliary security header.
    974           *
    975           * @param       none
    976           *
    977           * @return      none
    978           *=================================================================================================
    979           */
    980          static void rxSecurityHdrIsr(void)
    981          {
    982            uint8 buf[MAC_FRAME_COUNTER_LEN + MAC_KEY_ID_8_LEN];
    983          
    984            /* read out frame counter and key ID */
    985            MAC_RADIO_READ_RX_FIFO(buf, rxNextLen);
    986          
    987            /* Incoming frame counter */
    988            macFrameCounter = BUILD_UINT32(buf[0], buf[1], buf[2], buf[3]);
    989            if (rxNextLen - MAC_FRAME_COUNTER_LEN > 0)
    990            {
    991              /* Explicit mode */
    992              osal_memcpy(pRxBuf->sec.keySource, &buf[MAC_FRAME_COUNTER_LEN], rxNextLen - MAC_FRAME_COUNTER_LEN - 1);
    993              pRxBuf->sec.keyIndex = buf[rxNextLen - MAC_KEY_INDEX_LEN];
    994            }
    995          
    996            /* Copy security fields to RX buffer */
    997            osal_memcpy(pRxBuf->mhr.p, buf, rxNextLen);
    998            pRxBuf->mhr.p   += rxNextLen;
    999            pRxBuf->mhr.len += rxNextLen;
   1000          
   1001            /* Update payload pointer and payload length. The rxPayloadLen includes security header length
   1002             * and SCF byte. The security header and SCF length must be deducted from the rxPayloadLen.
   1003             */
   1004            rxPayloadLen    -= (rxNextLen + MAC_SEC_CONTROL_FIELD_LEN);
   1005            pRxBuf->msdu.len = rxPayloadLen;
   1006            pRxBuf->mhr.len += rxPayloadLen;
   1007          
   1008            /*-------------------------------------------------------------------------------
   1009             *  Prepare for payload interrupts.
   1010             */
   1011            pFuncRxState = &rxPayloadIsr;
   1012            rxPrepPayload();
   1013          }
   1014          #endif /* MAC_SECURITY */
   1015          
   1016          
   1017          /*=================================================================================================
   1018           * @fn          rxPrepPayload
   1019           *
   1020           * @brief       Common code to prepare for the payload ISR.
   1021           *
   1022           * @param       none
   1023           *
   1024           * @return      none
   1025           *=================================================================================================
   1026           */

   \                                 In  segment BANKED_CODE, align 1, keep-with-next
   1027          static void rxPrepPayload(void)
   \                     rxPrepPayload:
   1028          {
   \   000000   C082         PUSH    DPL
   \   000002   C083         PUSH    DPH
   \   000004                ; Saved register size: 2
   \   000004                ; Auto size: 0
   1029            if (rxPayloadLen == 0)
   \   000004   90....       MOV     DPTR,#rxPayloadLen
   \   000007   E0           MOVX    A,@DPTR
   \   000008   7011         JNZ     ??rxPrepPayload_0
   1030            {
   1031              MAC_RADIO_SET_RX_THRESHOLD(MAC_FCS_FIELD_LEN);
   \   00000A   906194       MOV     DPTR,#0x6194
   \   00000D   7401         MOV     A,#0x1
   \   00000F   F0           MOVX    @DPTR,A
   1032              pFuncRxState = &rxFcsIsr;
   \   000010   90....       MOV     DPTR,#pFuncRxState
   \   000013   74..         MOV     A,#??rxFcsIsr?relay & 0xff
   \   000015   F0           MOVX    @DPTR,A
   \   000016   A3           INC     DPTR
   \   000017   74..         MOV     A,#(??rxFcsIsr?relay >> 8) & 0xff
   \   000019   8016         SJMP    ??rxPrepPayload_1
   1033            }
   1034            else
   1035            {
   1036              rxNextLen = MIN(rxPayloadLen, MAX_PAYLOAD_BYTES_READ_PER_INTERRUPT);
   \                     ??rxPrepPayload_0:
   \   00001B   C3           CLR     C
   \   00001C   9410         SUBB    A,#0x10
   \   00001E   5006         JNC     ??rxPrepPayload_2
   \   000020   E0           MOVX    A,@DPTR
   \   000021   90....       MOV     DPTR,#rxNextLen
   \   000024   8005         SJMP    ??rxPrepPayload_3
   \                     ??rxPrepPayload_2:
   \   000026   90....       MOV     DPTR,#rxNextLen
   \   000029   7410         MOV     A,#0x10
   \                     ??rxPrepPayload_3:
   \   00002B   F0           MOVX    @DPTR,A
   1037              MAC_RADIO_SET_RX_THRESHOLD(rxNextLen);
   \   00002C   E0           MOVX    A,@DPTR
   \   00002D   14           DEC     A
   \   00002E   906194       MOV     DPTR,#0x6194
   1038            }
   \                     ??rxPrepPayload_1:
   \   000031   80..         SJMP    ?Subroutine0
   1039          }
   1040          
   1041          
   1042          /*=================================================================================================
   1043           * @fn          rxPayloadIsr
   1044           *
   1045           * @brief       Receive ISR state for reading out and storing the packet payload.
   1046           *
   1047           * @param       none
   1048           *
   1049           * @return      none
   1050           *=================================================================================================
   1051           */

   \                                 In  segment BANKED_CODE, align 1, keep-with-next
   1052          static void rxPayloadIsr(void)
   \                     rxPayloadIsr:
   1053          {
   \   000000   C082         PUSH    DPL
   \   000002   C083         PUSH    DPH
   \   000004                ; Saved register size: 2
   \   000004                ; Auto size: 0
   1054            MAC_RADIO_READ_RX_FIFO(pRxBuf->mhr.p, rxNextLen);
   \   000004                ; Setup parameters for call to function macMemReadRxFifo
   \   000004   90....       MOV     DPTR,#rxNextLen
   \   000007   E0           MOVX    A,@DPTR
   \   000008   F9           MOV     R1,A
   \   000009   90....       MOV     DPTR,#pRxBuf
   \   00000C   E0           MOVX    A,@DPTR
   \   00000D   2432         ADD     A,#0x32
   \   00000F   12....       LCALL   ?Subroutine27 & 0xFFFF
   \                     ??CrossCallReturnLabel_42:
   \   000012   A3           INC     DPTR
   \   000013   E0           MOVX    A,@DPTR
   \   000014   FB           MOV     R3,A
   \   000015   12....       LCALL   ??macMemReadRxFifo?relay
   1055            pRxBuf->mhr.p += rxNextLen;
   \   000018   12....       LCALL   ?Subroutine18 & 0xFFFF
   \                     ??CrossCallReturnLabel_26:
   \   00001B   90....       MOV     DPTR,#rxNextLen
   \   00001E   E0           MOVX    A,@DPTR
   \   00001F   FA           MOV     R2,A
   \   000020   12....       LCALL   ?Subroutine21 & 0xFFFF
   \                     ??CrossCallReturnLabel_33:
   \   000023   12....       LCALL   ??Subroutine34_0 & 0xFFFF
   1056          
   1057            rxPayloadLen -= rxNextLen;
   \                     ??CrossCallReturnLabel_55:
   \   000026   90....       MOV     DPTR,#rxNextLen
   \   000029   E0           MOVX    A,@DPTR
   \   00002A   F8           MOV     R0,A
   \   00002B   90....       MOV     DPTR,#rxPayloadLen
   \   00002E   E0           MOVX    A,@DPTR
   \   00002F   C3           CLR     C
   \   000030   98           SUBB    A,R0
   \   000031   F0           MOVX    @DPTR,A
   1058          
   1059            rxPrepPayload();
   \   000032                ; Setup parameters for call to function rxPrepPayload
   \   000032   12....       LCALL   ??rxPrepPayload?relay
   1060          }
   \   000035   80..         SJMP    ??Subroutine37_0

   \                                 In  segment BANKED_CODE, align 1, keep-with-next
   \                     ?Subroutine18:
   \   000000   90....       MOV     DPTR,#pRxBuf
   \   000003   E0           MOVX    A,@DPTR
   \   000004   2432         ADD     A,#0x32
   \   000006   F8           MOV     R0,A
   \   000007   A3           INC     DPTR
   \   000008   E0           MOVX    A,@DPTR
   \   000009   3400         ADDC    A,#0x0
   \   00000B   F9           MOV     R1,A
   \   00000C   22           RET
   1061          
   1062          
   1063          /*=================================================================================================
   1064           * @fn          rxFcsIsr
   1065           *
   1066           * @brief       Receive ISR state for handling the FCS.
   1067           *
   1068           * @param       none
   1069           *
   1070           * @return      none
   1071           *=================================================================================================
   1072           */

   \                                 In  segment BANKED_CODE, align 1, keep-with-next
   1073          static void rxFcsIsr(void)
   \                     rxFcsIsr:
   1074          {
   \   000000   74F6         MOV     A,#-0xa
   \   000002   12....       LCALL   ?BANKED_ENTER_XDATA
   \   000005                ; Saved register size: 10
   \   000005                ; Auto size: 0
   1075            uint8 crcOK;
   1076            uint8 ackWithPending = 0;
   \   000005   75..00       MOV     ?V0 + 0,#0x0
   1077          
   1078            /* read FCS, rxBuf is now available storage */
   1079            MAC_RADIO_READ_RX_FIFO(rxBuf, MAC_FCS_FIELD_LEN);
   \   000008                ; Setup parameters for call to function macMemReadRxFifo
   \   000008   7902         MOV     R1,#0x2
   \   00000A   7A..         MOV     R2,#rxBuf & 0xff
   \   00000C   7B..         MOV     R3,#(rxBuf >> 8) & 0xff
   \   00000E   12....       LCALL   ??macMemReadRxFifo?relay
   1080          
   1081            /*
   1082             *  The FCS has actually been replaced within the radio by a proprietary version of the FCS.
   1083             *  This proprietary FCS is two bytes (same length as the real FCS) and contains:
   1084             *    1) the RSSI value
   1085             *    2) the average correlation value (used for LQI)
   1086             *    3) a CRC passed bit
   1087             */
   1088          
   1089            /* save the "CRC-is-OK" status */
   1090            crcOK = PROPRIETARY_FCS_CRC_OK(rxBuf);
   \   000011   90....       MOV     DPTR,#rxBuf + 1
   \   000014   E0           MOVX    A,@DPTR
   \   000015   5480         ANL     A,#0x80
   \   000017   F5..         MOV     ?V0 + 1,A
   1091          
   1092            /*
   1093             *  See if the frame should be passed up to high-level MAC.  If the CRC is OK, the
   1094             *  the frame is always passed up.  Frames with a bad CRC are also passed up *if*
   1095             *  a special variant of promiscuous mode is active.
   1096             */
   1097            if (crcOK || (rxPromiscuousMode == MAC_PROMISCUOUS_MODE_WITH_BAD_CRC))
   \   000019   700B         JNZ     ??rxFcsIsr_0
   \   00001B   90....       MOV     DPTR,#rxPromiscuousMode
   \   00001E   E0           MOVX    A,@DPTR
   \   00001F   6402         XRL     A,#0x2
   \   000021   6003         JZ      $+5
   \   000023   02....       LJMP    ??rxFcsIsr_1 & 0xFFFF
   1098            {
   1099              int8 rssiDbm;
   1100              uint8 corr;
   1101          
   1102          #ifdef PACKET_FILTER_STATS
   1103              rxCrcSuccess++;
   1104          #endif /* PACKET_FILTER_STATS */
   1105          
   1106              /*
   1107               *  As power saving optimization, set state variable to indicate physical receive
   1108               *  has completed and then request turning of the receiver.  This means the receiver
   1109               *  can be off (if other conditions permit) during execution of the callback function.
   1110               *
   1111               *  The receiver will be requested to turn off once again at the end of the receive
   1112               *  logic.  There is no harm in doing this.
   1113               */
   1114              macRxActive = MAC_RX_ACTIVE_DONE;
   \                     ??rxFcsIsr_0:
   \   000026   90....       MOV     DPTR,#macRxActive
   \   000029   7402         MOV     A,#0x2
   \   00002B   F0           MOVX    @DPTR,A
   1115              macRxOffRequest();
   \   00002C                ; Setup parameters for call to function macRxOffRequest
   \   00002C   12....       LCALL   ??macRxOffRequest?relay
   1116          
   1117              /* decode RSSI and correlation values */
   1118              rssiDbm = PROPRIETARY_FCS_RSSI(rxBuf) + MAC_RADIO_RSSI_OFFSET;
   1119              MAC_RADIO_RSSI_LNA_OFFSET(rssiDbm);
   \   00002F   12....       LCALL   ?Subroutine12 & 0xFFFF
   \                     ??CrossCallReturnLabel_17:
   \   000032   90....       MOV     DPTR,#rxBuf
   \   000035   F8           MOV     R0,A
   \   000036   E0           MOVX    A,@DPTR
   \   000037   28           ADD     A,R0
   \   000038   24B7         ADD     A,#-0x49
   \   00003A   FF           MOV     R7,A
   1120              corr = PROPRIETARY_FCS_CORRELATION_VALUE(rxBuf);
   \   00003B   A3           INC     DPTR
   \   00003C   E0           MOVX    A,@DPTR
   \   00003D   547F         ANL     A,#0x7f
   \   00003F   FE           MOV     R6,A
   1121          
   1122              /* Read the source matching result back */
   1123              if( macSrcMatchIsEnabled && MAC_RADIO_SRC_MATCH_RESULT() )
   \   000040   90....       MOV     DPTR,#macSrcMatchIsEnabled
   \   000043   E0           MOVX    A,@DPTR
   \   000044   6009         JZ      ??rxFcsIsr_2
   \   000046                ; Setup parameters for call to function MAC_SrcMatchCheckResult
   \   000046   12....       LCALL   ??MAC_SrcMatchCheckResult?relay
   \   000049   E9           MOV     A,R1
   \   00004A   6003         JZ      ??rxFcsIsr_2
   1124              {
   1125                /* This result will not overwrite the previously determined pRxBuf->internal.flags */
   1126                ackWithPending = MAC_RX_FLAG_ACK_PENDING;
   \   00004C   75..04       MOV     ?V0 + 0,#0x4
   1127              }
   1128          
   1129              /* record parameters that get passed up to high-level */
   1130              pRxBuf->internal.flags |= ( crcOK | ackWithPending );
   \                     ??rxFcsIsr_2:
   \   00004F   E5..         MOV     A,?V0 + 1
   \   000051   45..         ORL     A,?V0 + 0
   \   000053   F8           MOV     R0,A
   \   000054   90....       MOV     DPTR,#pRxBuf
   \   000057   E0           MOVX    A,@DPTR
   \   000058   F9           MOV     R1,A
   \   000059   A3           INC     DPTR
   \   00005A   E0           MOVX    A,@DPTR
   \   00005B   F583         MOV     DPH,A
   \   00005D   8982         MOV     DPL,R1
   \   00005F   A3           INC     DPTR
   \   000060   A3           INC     DPTR
   \   000061   A3           INC     DPTR
   \   000062   A3           INC     DPTR
   \   000063   A3           INC     DPTR
   \   000064   A3           INC     DPTR
   \   000065   E0           MOVX    A,@DPTR
   \   000066   48           ORL     A,R0
   \   000067   F0           MOVX    @DPTR,A
   1131              pRxBuf->mac.mpduLinkQuality = macRadioComputeLQI(rssiDbm, corr);
   \   000068                ; Setup parameters for call to function macRadioComputeLQI
   \   000068   EE           MOV     A,R6
   \   000069   FA           MOV     R2,A
   \   00006A   EF           MOV     A,R7
   \   00006B   F9           MOV     R1,A
   \   00006C   12....       LCALL   ??macRadioComputeLQI?relay
   \   00006F   E9           MOV     A,R1
   \   000070   C0E0         PUSH    A
   \   000072   90....       MOV     DPTR,#pRxBuf
   \   000075   E0           MOVX    A,@DPTR
   \   000076   242E         ADD     A,#0x2e
   \   000078   12....       LCALL   ?Subroutine17 & 0xFFFF
   \                     ??CrossCallReturnLabel_69:
   \   00007B   D0E0         POP     A
   \   00007D   12....       LCALL   ??Subroutine39_0 & 0xFFFF
   1132              pRxBuf->mac.rssi = rssiDbm;
   \                     ??CrossCallReturnLabel_78:
   \   000080   2430         ADD     A,#0x30
   \   000082   12....       LCALL   ?Subroutine17 & 0xFFFF
   \                     ??CrossCallReturnLabel_70:
   \   000085   EF           MOV     A,R7
   \   000086   12....       LCALL   ??Subroutine39_0 & 0xFFFF
   1133              pRxBuf->mac.correlation = corr;
   \                     ??CrossCallReturnLabel_79:
   \   000089   242F         ADD     A,#0x2f
   \   00008B   12....       LCALL   ?Subroutine16 & 0xFFFF
   \                     ??CrossCallReturnLabel_25:
   \   00008E   12....       LCALL   ??Subroutine39_0 & 0xFFFF
   1134          
   1135              /* set the MSDU pointer to point at start of data */
   1136              pRxBuf->mhr.p   = (uint8 *) (pRxBuf + 1);
   \                     ??CrossCallReturnLabel_80:
   \   000091   2435         ADD     A,#0x35
   \   000093   FA           MOV     R2,A
   \   000094   A3           INC     DPTR
   \   000095   E0           MOVX    A,@DPTR
   \   000096   3400         ADDC    A,#0x0
   \   000098   FB           MOV     R3,A
   \   000099   12....       LCALL   ?Subroutine18 & 0xFFFF
   \                     ??CrossCallReturnLabel_27:
   \   00009C   12....       LCALL   ?Subroutine4 & 0xFFFF
   1137              pRxBuf->msdu.p += (pRxBuf->mhr.len - pRxBuf->msdu.len);
   \                     ??CrossCallReturnLabel_74:
   \   00009F   2402         ADD     A,#0x2
   \   0000A1   12....       LCALL   ?Subroutine11 & 0xFFFF
   \                     ??CrossCallReturnLabel_15:
   \   0000A4   90....       MOV     DPTR,#pRxBuf
   \   0000A7   E0           MOVX    A,@DPTR
   \   0000A8   FC           MOV     R4,A
   \   0000A9   A3           INC     DPTR
   \   0000AA   E0           MOVX    A,@DPTR
   \   0000AB   F583         MOV     DPH,A
   \   0000AD   8C82         MOV     DPL,R4
   \   0000AF   A3           INC     DPTR
   \   0000B0   A3           INC     DPTR
   \   0000B1   A3           INC     DPTR
   \   0000B2   A3           INC     DPTR
   \   0000B3   E0           MOVX    A,@DPTR
   \   0000B4   FC           MOV     R4,A
   \   0000B5   EA           MOV     A,R2
   \   0000B6   C3           CLR     C
   \   0000B7   9C           SUBB    A,R4
   \   0000B8   FA           MOV     R2,A
   \   0000B9   95E0         SUBB    A,0xE0 /* A   */
   \   0000BB   FB           MOV     R3,A
   \   0000BC   8882         MOV     DPL,R0
   \   0000BE   8983         MOV     DPH,R1
   \   0000C0   E0           MOVX    A,@DPTR
   \   0000C1   2A           ADD     A,R2
   \   0000C2   FA           MOV     R2,A
   \   0000C3   A3           INC     DPTR
   \   0000C4   E0           MOVX    A,@DPTR
   \   0000C5   3B           ADDC    A,R3
   \   0000C6   FB           MOV     R3,A
   \   0000C7   12....       LCALL   ?Subroutine4 & 0xFFFF
   1138          
   1139              /* finally... execute callback function */
   1140              macRxCompleteCallback(pRxBuf);
   \                     ??CrossCallReturnLabel_75:
   \   0000CA   FA           MOV     R2,A
   \   0000CB   A3           INC     DPTR
   \   0000CC   E0           MOVX    A,@DPTR
   \   0000CD   FB           MOV     R3,A
   \   0000CE   12....       LCALL   ??macRxCompleteCallback?relay
   1141              pRxBuf = NULL; /* needed to indicate buffer is no longer allocated */
   \   0000D1   800A         SJMP    ??rxFcsIsr_3
   1142            }
   1143            else
   1144            {
   1145          #ifdef PACKET_FILTER_STATS
   1146              rxCrcFailure++;
   1147          #endif /* PACKET_FILTER_STATS */
   1148          
   1149              /*
   1150               *  The CRC is bad so no ACK was sent.  Cancel any callback and clear the flag.
   1151               *  (It's OK to cancel the outgoing ACK even if an ACK was not requested.  It's
   1152               *  slightly more efficient to do so.)
   1153               */
   1154              MAC_RADIO_CANCEL_ACK_TX_DONE_CALLBACK();
   \                     ??rxFcsIsr_1:
   \   0000D3   12....       LCALL   ?Subroutine8 & 0xFFFF
   1155              macRxOutgoingAckFlag = 0;
   1156          
   1157              /* the CRC failed so the packet must be discarded */
   1158              MEM_FREE((uint8 **)&pRxBuf);
   \                     ??CrossCallReturnLabel_51:
   \   0000D6                ; Setup parameters for call to function macDataRxMemFree
   \   0000D6   7A..         MOV     R2,#pRxBuf & 0xff
   \   0000D8   7B..         MOV     R3,#(pRxBuf >> 8) & 0xff
   \   0000DA   12....       LCALL   ??macDataRxMemFree?relay
   1159              pRxBuf = NULL;  /* needed to indicate buffer is no longer allocated */
   \                     ??rxFcsIsr_3:
   \   0000DD   90....       MOV     DPTR,#pRxBuf
   \   0000E0   E4           CLR     A
   \   0000E1   F0           MOVX    @DPTR,A
   \   0000E2   A3           INC     DPTR
   \   0000E3   F0           MOVX    @DPTR,A
   1160            }
   1161          
   1162            /* reset threshold level, reset receive state, and complete receive logic */
   1163            MAC_RADIO_SET_RX_THRESHOLD(RX_THRESHOLD_START_LEN);
   \   0000E4   12....       LCALL   ?Subroutine2 & 0xFFFF
   1164            pFuncRxState = &rxStartIsr;
   1165            rxDone();
   1166          }
   \                     ??CrossCallReturnLabel_0:
   \   0000E7   7F02         MOV     R7,#0x2
   \   0000E9   02....       LJMP    ?BANKED_LEAVE_XDATA

   \                                 In  segment BANKED_CODE, align 1, keep-with-next
   \                     ?Subroutine4:
   \   000000   8882         MOV     DPL,R0
   \   000002   8983         MOV     DPH,R1
   \   000004                REQUIRE ??Subroutine38_0
   \   000004                ; // Fall through to label ??Subroutine38_0

   \                                 In  segment BANKED_CODE, align 1, keep-with-next
   \                     ?Subroutine2:
   \   000000   906194       MOV     DPTR,#0x6194
   \   000003   7405         MOV     A,#0x5
   \   000005   12....       LCALL   ?Subroutine24 & 0xFFFF
   \                     ??CrossCallReturnLabel_39:
   \   000008   F0           MOVX    @DPTR,A
   \   000009                ; Setup parameters for call to function rxDone
   \   000009                ; Setup parameters for call to function rxDone
   \   000009   12....       LCALL   ??rxDone?relay
   \   00000C   22           RET
   1167          
   1168          
   1169          /*=================================================================================================
   1170           * @fn          rxDone
   1171           *
   1172           * @brief       Common exit point for receive.
   1173           *
   1174           * @param       none
   1175           *
   1176           * @return      none
   1177           *=================================================================================================
   1178           */

   \                                 In  segment BANKED_CODE, align 1, keep-with-next
   1179          static void rxDone(void)
   \                     rxDone:
   1180          {
   \   000000   C082         PUSH    DPL
   \   000002   C083         PUSH    DPH
   \   000004                ; Saved register size: 2
   \   000004                ; Auto size: 0
   1181            /* Make sure the peak RSSI is reset */
   1182            COMPRESSION_WORKAROUND_RESET_RSSI();
   1183            
   1184            /* if the receive FIFO has overflowed, flush it here */
   1185            if (MAC_RADIO_RX_FIFO_HAS_OVERFLOWED())
   \   000004   906193       MOV     DPTR,#0x6193
   \   000007   E0           MOVX    A,@DPTR
   \   000008   A2E6         MOV     C,0xE0 /* A   */.6
   \   00000A   500B         JNC     ??rxDone_0
   \   00000C   E0           MOVX    A,@DPTR
   \   00000D   A2E7         MOV     C,0xE0 /* A   */.7
   \   00000F   4006         JC      ??rxDone_0
   1186            {
   1187              MAC_RADIO_FLUSH_RX_FIFO();
   \   000011   75E1ED       MOV     0xe1,#-0x13
   \   000014   75E1ED       MOV     0xe1,#-0x13
   1188            }
   1189          
   1190            /* mark receive as inactive */
   1191            macRxActive = MAC_RX_ACTIVE_NO_ACTIVITY;
   \                     ??rxDone_0:
   \   000017   90....       MOV     DPTR,#macRxActive
   \   00001A   E4           CLR     A
   \   00001B   F0           MOVX    @DPTR,A
   1192          
   1193            /* if there is no outgoing ACK, run the post receive updates */
   1194            if (!macRxOutgoingAckFlag)
   \   00001C   90....       MOV     DPTR,#macRxOutgoingAckFlag
   \   00001F   E0           MOVX    A,@DPTR
   \   000020   7003         JNZ     ??rxDone_1
   1195            {
   1196              rxPostRxUpdates();
   \   000022                ; Setup parameters for call to function rxPostRxUpdates
   \   000022   12....       LCALL   ??rxPostRxUpdates?relay
   1197            }
   1198          }
   \                     ??rxDone_1:
   \   000025   02....       LJMP    ??Subroutine37_0 & 0xFFFF
   \   000028                REQUIRE RFST
   1199          
   1200          
   1201          /**************************************************************************************************
   1202           * @fn          macRxAckTxDoneCallback
   1203           *
   1204           * @brief       Function called when the outoing ACK has completed transmitting.
   1205           *
   1206           * @param       none
   1207           *
   1208           * @return      none
   1209           **************************************************************************************************
   1210           */

   \                                 In  segment BANKED_CODE, align 1, keep-with-next
   1211          void macRxAckTxDoneCallback(void)
   \                     macRxAckTxDoneCallback:
   1212          {
   \   000000   C082         PUSH    DPL
   \   000002   C083         PUSH    DPH
   \   000004                ; Saved register size: 2
   \   000004                ; Auto size: 0
   1213            macRxOutgoingAckFlag = 0;
   \   000004   90....       MOV     DPTR,#macRxOutgoingAckFlag
   \   000007   E4           CLR     A
   \   000008   F0           MOVX    @DPTR,A
   1214          
   1215            /*
   1216             *  With certain interrupt priorities and timing conditions, it is possible this callback
   1217             *  could be executed before the primary receive logic completes.  To prevent this, the
   1218             *  post updates are only executed if receive logic is no longer active.  In the case the
   1219             *  post updates are not executed here, they will execute when the main receive logic
   1220             *  completes.
   1221             */
   1222            if (!macRxActive)
   \   000009   90....       MOV     DPTR,#macRxActive
   \   00000C   E0           MOVX    A,@DPTR
   \   00000D   7003         JNZ     ??macRxAckTxDoneCallback_0
   1223            {
   1224              rxPostRxUpdates();
   \   00000F                ; Setup parameters for call to function rxPostRxUpdates
   \   00000F   12....       LCALL   ??rxPostRxUpdates?relay
   1225            }
   1226          }
   \                     ??macRxAckTxDoneCallback_0:
   \   000012   02....       LJMP    ??Subroutine37_0 & 0xFFFF
   1227          
   1228          
   1229          /*=================================================================================================
   1230           * @fn          rxPostRxUpdates
   1231           *
   1232           * @brief       Updates that need to be performed once receive is complete.
   1233           *
   1234           *              It is not fatal to execute this function if somehow receive is active.  Under
   1235           *              certain timing/interrupt conditions a new receive may have started before this
   1236           *              function executes.  This should happen very rarely (if it happens at all) and
   1237           *              would cause no problems.
   1238           *
   1239           * @param       none
   1240           *
   1241           * @return      none
   1242           *=================================================================================================
   1243           */

   \                                 In  segment BANKED_CODE, align 1, keep-with-next
   1244          static void rxPostRxUpdates(void)
   \                     rxPostRxUpdates:
   1245          {
   \   000000   C082         PUSH    DPL
   \   000002   C083         PUSH    DPH
   \   000004                ; Saved register size: 2
   \   000004                ; Auto size: 0
   1246            /* turn off receiver if permitted */
   1247            macRxOffRequest();
   \   000004                ; Setup parameters for call to function macRxOffRequest
   \   000004   12....       LCALL   ??macRxOffRequest?relay
   1248          
   1249            /* update the transmit power, update may have been blocked by transmit of outgoing ACK */
   1250            macRadioUpdateTxPower();
   \   000007                ; Setup parameters for call to function macRadioUpdateTxPower
   \   000007   12....       LCALL   ??macRadioUpdateTxPower?relay
   1251          
   1252            /* initiate and transmit that was queued during receive */
   1253            macTxStartQueuedFrame();
   \   00000A                ; Setup parameters for call to function macTxStartQueuedFrame
   \   00000A   12....       LCALL   ??macTxStartQueuedFrame?relay
   1254          }
   \   00000D   02....       LJMP    ??Subroutine37_0 & 0xFFFF
   1255          
   1256          
   1257          /*=================================================================================================
   1258           * @fn          rxDiscardFrame
   1259           *
   1260           * @brief       Initializes for discarding a packet.  Must be called before ACK is strobed.
   1261           *
   1262           * @param       none
   1263           *
   1264           * @return      none
   1265           *=================================================================================================
   1266           */

   \                                 In  segment BANKED_CODE, align 1, keep-with-next
   1267          static void rxDiscardFrame(void)
   \                     rxDiscardFrame:
   1268          {
   \   000000   C082         PUSH    DPL
   \   000002   C083         PUSH    DPH
   \   000004                ; Saved register size: 2
   \   000004                ; Auto size: 0
   1269            MAC_ASSERT(pFuncRxState == &rxStartIsr); /* illegal state for calling discard frame function */
   \   000004   90....       MOV     DPTR,#pFuncRxState
   \   000007   E0           MOVX    A,@DPTR
   \   000008   64..         XRL     A,#??rxStartIsr?relay & 0xff
   \   00000A   7004         JNZ     ??rxDiscardFrame_0
   \   00000C   A3           INC     DPTR
   \   00000D   E0           MOVX    A,@DPTR
   \   00000E   64..         XRL     A,#(??rxStartIsr?relay >> 8) & 0xff
   \                     ??rxDiscardFrame_0:
   \   000010   6003         JZ      ??rxDiscardFrame_1
   \   000012                ; Setup parameters for call to function halAssertHandler
   \   000012   12....       LCALL   ??halAssertHandler?relay
   1270          
   1271            if (rxUnreadLen == 0)
   \                     ??rxDiscardFrame_1:
   \   000015   90....       MOV     DPTR,#rxUnreadLen
   \   000018   E0           MOVX    A,@DPTR
   \   000019   7005         JNZ     ??rxDiscardFrame_2
   1272            {
   1273              rxDone();
   \   00001B                ; Setup parameters for call to function rxDone
   \   00001B   12....       LCALL   ??rxDone?relay
   \   00001E   8021         SJMP    ??rxDiscardFrame_3
   1274            }
   1275            else
   1276            {
   1277              rxNextLen = MIN(rxUnreadLen, MAX_PAYLOAD_BYTES_READ_PER_INTERRUPT);
   \                     ??rxDiscardFrame_2:
   \   000020   C3           CLR     C
   \   000021   9410         SUBB    A,#0x10
   \   000023   5006         JNC     ??rxDiscardFrame_4
   \   000025   E0           MOVX    A,@DPTR
   \   000026   90....       MOV     DPTR,#rxNextLen
   \   000029   8005         SJMP    ??rxDiscardFrame_5
   \                     ??rxDiscardFrame_4:
   \   00002B   90....       MOV     DPTR,#rxNextLen
   \   00002E   7410         MOV     A,#0x10
   \                     ??rxDiscardFrame_5:
   \   000030   F0           MOVX    @DPTR,A
   1278              MAC_RADIO_SET_RX_THRESHOLD(rxNextLen);
   \   000031   E0           MOVX    A,@DPTR
   \   000032   14           DEC     A
   \   000033   906194       MOV     DPTR,#0x6194
   \   000036   F0           MOVX    @DPTR,A
   1279              pFuncRxState = &rxDiscardIsr;
   \   000037   90....       MOV     DPTR,#pFuncRxState
   \   00003A   74..         MOV     A,#??rxDiscardIsr?relay & 0xff
   \   00003C   F0           MOVX    @DPTR,A
   \   00003D   A3           INC     DPTR
   \   00003E   74..         MOV     A,#(??rxDiscardIsr?relay >> 8) & 0xff
   \   000040   F0           MOVX    @DPTR,A
   1280            }
   1281          }
   \                     ??rxDiscardFrame_3:
   \   000041   02....       LJMP    ??Subroutine37_0 & 0xFFFF
   1282          
   1283          
   1284          /*=================================================================================================
   1285           * @fn          rxDiscardIsr
   1286           *
   1287           * @brief       Receive ISR state for discarding a packet.
   1288           *
   1289           * @param       none
   1290           *
   1291           * @return      none
   1292           *=================================================================================================
   1293           */

   \                                 In  segment BANKED_CODE, align 1, keep-with-next
   1294          static void rxDiscardIsr(void)
   \                     rxDiscardIsr:
   1295          {
   \   000000   C082         PUSH    DPL
   \   000002   C083         PUSH    DPH
   \   000004                ; Saved register size: 2
   \   000004                ; Auto size: 16
   \   000004   74F0         MOV     A,#-0x10
   \   000006   12....       LCALL   ?ALLOC_XSTACK8
   1296            uint8 buf[MAX_PAYLOAD_BYTES_READ_PER_INTERRUPT];
   1297          
   1298            MAC_RADIO_READ_RX_FIFO(buf, rxNextLen);
   \   000009                ; Setup parameters for call to function macMemReadRxFifo
   \   000009   12....       LCALL   ?Subroutine13 & 0xFFFF
   1299            rxUnreadLen -= rxNextLen;
   \                     ??CrossCallReturnLabel_19:
   \   00000C   90....       MOV     DPTR,#rxNextLen
   \   00000F   E0           MOVX    A,@DPTR
   \   000010   F8           MOV     R0,A
   \   000011   90....       MOV     DPTR,#rxUnreadLen
   \   000014   E0           MOVX    A,@DPTR
   \   000015   C3           CLR     C
   \   000016   98           SUBB    A,R0
   \   000017   F0           MOVX    @DPTR,A
   1300          
   1301            /* read out and discard bytes until all bytes of packet are disposed of */
   1302            if (rxUnreadLen != 0)
   \   000018   6011         JZ      ??rxDiscardIsr_0
   1303            {
   1304              if (rxUnreadLen < MAX_PAYLOAD_BYTES_READ_PER_INTERRUPT)
   \   00001A   C3           CLR     C
   \   00001B   9410         SUBB    A,#0x10
   \   00001D   500F         JNC     ??CrossCallReturnLabel_1
   1305              {
   1306                rxNextLen = rxUnreadLen;
   \   00001F   E0           MOVX    A,@DPTR
   \   000020   90....       MOV     DPTR,#rxNextLen
   \   000023   F0           MOVX    @DPTR,A
   1307                MAC_RADIO_SET_RX_THRESHOLD(rxNextLen);
   \   000024   14           DEC     A
   \   000025   906194       MOV     DPTR,#0x6194
   \   000028   F0           MOVX    @DPTR,A
   \   000029   8003         SJMP    ??CrossCallReturnLabel_1
   1308              }
   1309            }
   1310            else
   1311            {
   1312              /* reset threshold level, reset receive state, and complete receive logic */
   1313              MAC_RADIO_SET_RX_THRESHOLD(RX_THRESHOLD_START_LEN);
   \                     ??rxDiscardIsr_0:
   \   00002B   12....       LCALL   ?Subroutine2 & 0xFFFF
   1314              pFuncRxState = &rxStartIsr;
   1315              rxDone();
   1316            }
   1317          }
   \                     ??CrossCallReturnLabel_1:
   \   00002E   7410         MOV     A,#0x10
   \   000030   12....       LCALL   ?DEALLOC_XSTACK8
   \   000033   02....       LJMP    ??Subroutine37_0 & 0xFFFF
   1318          
   1319          
   1320          /**************************************************************************************************
   1321           * @fn          macRxFifoOverflowIsr
   1322           *
   1323           * @brief       This interrupt service routine is called when RX FIFO overflow. Note that this
   1324           *              exception does not retrieve the good frames that are trapped in the RX FIFO.
   1325           *              It simply halts and cleanup the RX.
   1326           *
   1327           * @param       none
   1328           *
   1329           * @return      none
   1330           **************************************************************************************************
   1331           */

   \                                 In  segment BANKED_CODE, align 1, keep-with-next
   1332          MAC_INTERNAL_API void macRxFifoOverflowIsr(void)
   \                     macRxFifoOverflowIsr:
   1333          {
   \   000000   C082         PUSH    DPL
   \   000002   C083         PUSH    DPH
   \   000004                ; Saved register size: 2
   \   000004                ; Auto size: 0
   1334            rxFifoOverflowCount++; /* This flag is used for debug purpose only */
   \   000004   90....       MOV     DPTR,#rxFifoOverflowCount
   \   000007   E0           MOVX    A,@DPTR
   \   000008   04           INC     A
   \   000009   F0           MOVX    @DPTR,A
   1335            macRxHaltCleanup();
   \   00000A                ; Setup parameters for call to function macRxHaltCleanup
   \   00000A   12....       LCALL   ??macRxHaltCleanup?relay
   1336          }
   \   00000D   02....       LJMP    ??Subroutine37_0 & 0xFFFF
   1337          
   1338          
   1339          /**************************************************************************************************
   1340           * @fn          macRxPromiscuousMode
   1341           *
   1342           * @brief       Sets promiscuous mode - enabling or disabling it.
   1343           *
   1344           * @param       none
   1345           *
   1346           * @return      none
   1347           **************************************************************************************************
   1348           */

   \                                 In  segment BANKED_CODE, align 1, keep-with-next
   1349          MAC_INTERNAL_API void macRxPromiscuousMode(uint8 mode)
   \                     macRxPromiscuousMode:
   1350          {
   \   000000   74F7         MOV     A,#-0x9
   \   000002   12....       LCALL   ?BANKED_ENTER_XDATA
   \   000005                ; Saved register size: 9
   \   000005                ; Auto size: 0
   \   000005   E9           MOV     A,R1
   \   000006   FE           MOV     R6,A
   1351            rxPromiscuousMode = mode;
   \   000007   90....       MOV     DPTR,#rxPromiscuousMode
   \   00000A   F0           MOVX    @DPTR,A
   1352          
   1353            if (rxPromiscuousMode == MAC_PROMISCUOUS_MODE_OFF)
   \   00000B   700A         JNZ     ??macRxPromiscuousMode_0
   1354            {
   1355              MAC_RADIO_TURN_ON_RX_FRAME_FILTERING();
   \   00000D   906180       MOV     DPTR,#0x6180
   \   000010   E4           CLR     A
   \   000011   F0           MOVX    @DPTR,A
   \   000012   E0           MOVX    A,@DPTR
   \   000013   4405         ORL     A,#0x5
   \   000015   8013         SJMP    ??macRxPromiscuousMode_1
   1356            }
   1357            else
   1358            {
   1359              MAC_ASSERT((mode == MAC_PROMISCUOUS_MODE_WITH_BAD_CRC)   ||
   1360                         (mode == MAC_PROMISCUOUS_MODE_COMPLIANT));  /* invalid mode */
   \                     ??macRxPromiscuousMode_0:
   \   000017   7402         MOV     A,#0x2
   \   000019   6E           XRL     A,R6
   \   00001A   6008         JZ      ??macRxPromiscuousMode_2
   \   00001C   7401         MOV     A,#0x1
   \   00001E   6E           XRL     A,R6
   \   00001F   6003         JZ      ??macRxPromiscuousMode_2
   \   000021                ; Setup parameters for call to function halAssertHandler
   \   000021   12....       LCALL   ??halAssertHandler?relay
   1361          
   1362              MAC_RADIO_TURN_OFF_RX_FRAME_FILTERING();
   \                     ??macRxPromiscuousMode_2:
   \   000024   906180       MOV     DPTR,#0x6180
   \   000027   E0           MOVX    A,@DPTR
   \   000028   C2E0         CLR     0xE0 /* A   */.0
   \                     ??macRxPromiscuousMode_1:
   \   00002A   F0           MOVX    @DPTR,A
   1363            }
   1364          }
   \   00002B   02....       LJMP    ?Subroutine1 & 0xFFFF

   \                                 In  segment BANK_RELAYS, align 1
   \                     ??macRxInit?relay:
   \   000000   12....       LCALL   ?BDISPATCH
   \   000003   ......       DC24    macRxInit

   \                                 In  segment BANK_RELAYS, align 1
   \                     ??macRxRadioPowerUpInit?relay:
   \   000000   12....       LCALL   ?BDISPATCH
   \   000003   ......       DC24    macRxRadioPowerUpInit

   \                                 In  segment BANK_RELAYS, align 1
   \                     ??macRxTxReset?relay:
   \   000000   12....       LCALL   ?BDISPATCH
   \   000003   ......       DC24    macRxTxReset

   \                                 In  segment BANK_RELAYS, align 1
   \                     ??macRxHaltCleanup?relay:
   \   000000   12....       LCALL   ?BDISPATCH
   \   000003   ......       DC24    macRxHaltCleanup

   \                                 In  segment BANK_RELAYS, align 1
   \                     ??rxHaltCleanupFinalStep?relay:
   \   000000   12....       LCALL   ?BDISPATCH
   \   000003   ......       DC24    rxHaltCleanupFinalStep

   \                                 In  segment BANK_RELAYS, align 1
   \                     ??macRxThresholdIsr?relay:
   \   000000   12....       LCALL   ?BDISPATCH
   \   000003   ......       DC24    macRxThresholdIsr

   \                                 In  segment BANK_RELAYS, align 1
   \                     ??rxStartIsr?relay:
   \   000000   12....       LCALL   ?BDISPATCH
   \   000003   ......       DC24    rxStartIsr

   \                                 In  segment BANK_RELAYS, align 1
   \                     ??rxAddrIsr?relay:
   \   000000   12....       LCALL   ?BDISPATCH
   \   000003   ......       DC24    rxAddrIsr

   \                                 In  segment BANK_RELAYS, align 1
   \                     ??rxPrepPayload?relay:
   \   000000   12....       LCALL   ?BDISPATCH
   \   000003   ......       DC24    rxPrepPayload

   \                                 In  segment BANK_RELAYS, align 1
   \                     ??rxPayloadIsr?relay:
   \   000000   12....       LCALL   ?BDISPATCH
   \   000003   ......       DC24    rxPayloadIsr

   \                                 In  segment BANK_RELAYS, align 1
   \                     ??rxFcsIsr?relay:
   \   000000   12....       LCALL   ?BDISPATCH
   \   000003   ......       DC24    rxFcsIsr

   \                                 In  segment BANK_RELAYS, align 1
   \                     ??rxDone?relay:
   \   000000   12....       LCALL   ?BDISPATCH
   \   000003   ......       DC24    rxDone

   \                                 In  segment BANK_RELAYS, align 1
   \                     ??macRxAckTxDoneCallback?relay:
   \   000000   12....       LCALL   ?BDISPATCH
   \   000003   ......       DC24    macRxAckTxDoneCallback

   \                                 In  segment BANK_RELAYS, align 1
   \                     ??rxPostRxUpdates?relay:
   \   000000   12....       LCALL   ?BDISPATCH
   \   000003   ......       DC24    rxPostRxUpdates

   \                                 In  segment BANK_RELAYS, align 1
   \                     ??rxDiscardFrame?relay:
   \   000000   12....       LCALL   ?BDISPATCH
   \   000003   ......       DC24    rxDiscardFrame

   \                                 In  segment BANK_RELAYS, align 1
   \                     ??rxDiscardIsr?relay:
   \   000000   12....       LCALL   ?BDISPATCH
   \   000003   ......       DC24    rxDiscardIsr

   \                                 In  segment BANK_RELAYS, align 1
   \                     ??macRxFifoOverflowIsr?relay:
   \   000000   12....       LCALL   ?BDISPATCH
   \   000003   ......       DC24    macRxFifoOverflowIsr

   \                                 In  segment BANK_RELAYS, align 1
   \                     ??macRxPromiscuousMode?relay:
   \   000000   12....       LCALL   ?BDISPATCH
   \   000003   ......       DC24    macRxPromiscuousMode
   1365          
   1366          #ifdef CC2591_COMPRESSION_WORKAROUND
   1367          /**************************************************************************************************
   1368           * @fn          macRxResetRssi
   1369           *
   1370           * @brief       This function reset RSSI peak if the device is not actively in TX or RX.
   1371           *
   1372           * @param       none
   1373           *
   1374           * @return      none
   1375           **************************************************************************************************
   1376           */
   1377          void macRxResetRssi(void)
   1378          {
   1379            if ( !(macRxActive || macRxOutgoingAckFlag || macTxActive) )
   1380            {
   1381              COMPRESSION_WORKAROUND_RESET_RSSI();
   1382            }
   1383          }
   1384          #endif /* CC2591_COMPRESSION_WORKAROUND */
   1385          
   1386          /**************************************************************************************************
   1387           *                                  Compile Time Integrity Checks
   1388           **************************************************************************************************
   1389           */
   1390          
   1391          /* check for changes to the spec that would affect the source code */
   1392          #if ((MAC_A_MAX_PHY_PACKET_SIZE   !=  0x7F )   ||  \
   1393               (MAC_FCF_FIELD_LEN           !=  2    )   ||  \
   1394               (MAC_FCF_FRAME_TYPE_POS      !=  0    )   ||  \
   1395               (MAC_FCF_FRAME_PENDING_POS   !=  4    )   ||  \
   1396               (MAC_FCF_ACK_REQUEST_POS     !=  5    )   ||  \
   1397               (MAC_FCF_INTRA_PAN_POS       !=  6    )   ||  \
   1398               (MAC_FCF_DST_ADDR_MODE_POS   !=  10   )   ||  \
   1399               (MAC_FCF_FRAME_VERSION_POS   !=  12   )   ||  \
   1400               (MAC_FCF_SRC_ADDR_MODE_POS   !=  14   ))
   1401          #error "ERROR!  Change to the spec that requires modification of source code."
   1402          #endif
   1403          
   1404          /* check for changes to the internal flags format */
   1405          #if ((MAC_RX_FLAG_VERSION      !=  0x03)  ||  \
   1406               (MAC_RX_FLAG_ACK_PENDING  !=  0x04)  ||  \
   1407               (MAC_RX_FLAG_SECURITY     !=  0x08)  ||  \
   1408               (MAC_RX_FLAG_PENDING      !=  0x10)  ||  \
   1409               (MAC_RX_FLAG_ACK_REQUEST  !=  0x20)  ||  \
   1410               (MAC_RX_FLAG_INTRA_PAN    !=  0x40))
   1411          #error "ERROR!  Change to the internal RX flags format.  Requires modification of source code."
   1412          #endif
   1413          
   1414          /* validate CRC OK bit optimization */
   1415          #if (MAC_RX_FLAG_CRC_OK != PROPRIETARY_FCS_CRC_OK_BIT)
   1416          #error "ERROR!  Optimization relies on these bits having the same position."
   1417          #endif
   1418          
   1419          #if (MAC_RX_ACTIVE_NO_ACTIVITY != 0x00)
   1420          #error "ERROR! Zero is reserved value of macRxActive. Allows boolean operations, e.g !macRxActive."
   1421          #endif
   1422          
   1423          #if (MAC_PROMISCUOUS_MODE_OFF != 0x00)
   1424          #error "ERROR! Zero is reserved value of rxPromiscuousMode. Allows boolean operations, e.g !rxPromiscuousMode."
   1425          #endif
   1426          
   1427          
   1428          /**************************************************************************************************
   1429          */

   Maximum stack usage in bytes:

     Function                       ISTACK PSTACK XSTACK
     --------                       ------ ------ ------
     macRxAckTxDoneCallback             2      0      0
       -> rxPostRxUpdates               4      0      0
     macRxFifoOverflowIsr               2      0      0
       -> macRxHaltCleanup              4      0      0
     macRxHaltCleanup                   2      0      0
       -> rxHaltCleanupFinalStep        4      0      0
     macRxInit                          2      0      0
     macRxPromiscuousMode               0      0      9
       -> halAssertHandler              0      0     18
     macRxRadioPowerUpInit              2      0      0
     macRxThresholdIsr                  2      0      0
       -> rxHaltCleanupFinalStep        4      0      0
     macRxTxReset                       2      0      0
       -> macRxHardDisable              4      0      0
       -> macRxPromiscuousMode          4      0      0
     rxAddrIsr                          0      0     29
       -> halAssertHandler              0      0     58
       -> macMemReadRxFifo              0      0     58
       -> sAddrExtCpy                   0      0     58
       -> sAddrExtCpy                   0      0     58
       -> rxPrepPayload                 0      0     58
     rxDiscardFrame                     2      0     15
       -> halAssertHandler              4      0      0
       -> rxDone                        4      0      0
     rxDiscardIsr                       2      0     16
       -> macMemReadRxFifo              4      0     32
       -> rxDone                        4      0     32
     rxDone                             2      0     16
       -> rxPostRxUpdates               4      0      0
     rxFcsIsr                           1      0     10
       -> macMemReadRxFifo              0      0     20
       -> macRxOffRequest               0      0     20
       -> MAC_SrcMatchCheckResult       0      0     20
       -> macRadioComputeLQI            0      0     20
       -> macRxCompleteCallback         0      0     20
       -> macDataRxMemFree              0      0     20
       -> rxDone                        0      0     20
     rxHaltCleanupFinalStep             2      0      0
       -> macDataRxMemFree              4      0      0
       -> rxPostRxUpdates               4      0      0
     rxPayloadIsr                       2      0      0
       -> macMemReadRxFifo              4      0      0
       -> rxPrepPayload                 4      0      0
     rxPostRxUpdates                    2      0     15
       -> macRxOffRequest               4      0      0
       -> macRadioUpdateTxPower         4      0      0
       -> macTxStartQueuedFrame         4      0      0
     rxPrepPayload                      2      0     29
     rxStartIsr                         1      0     18
       -> halAssertHandler              0      0     30
       -> rxPostRxUpdates               0      0     30
       -> macCspForceTxDoneIfPending
                                        0      0     30
       -> macMemReadRxFifo              0      0     30
       -> rxDone                        0      0     30
       -> halAssertHandler              0      0     30
       -> macMemReadRxFifo              0      0     30
       -> halAssertHandler              0      0     30
       -> macRadioComputeLQI            0      0     30
       -> macTxAckReceivedCallback      0      0     30
       -> macTxAckNotReceivedCallback
                                        0      0     30
       -> rxDone                        0      0     30
       -> macTxAckNotReceivedCallback
                                        0      0     30
       -> macDataRxMemAlloc             0      0     30
       -> rxDiscardFrame                0      0     30
       -> macRxCheckMACPendingCallback
                                        0      0     30
       -> MAC_SrcMatchCheckAllPending
                                        0      0     30
       -> macRxCheckPendingCallback     0      0     30
       -> osal_memcpy                   0      0     36
       -> macMcuOverflowCapture         0      0     30
       -> macMcuTimerCapture            0      0     30
       -> rxPrepPayload                 0      0     30


   Segment part sizes:

     Function/Label                 Bytes
     --------------                 -----
     RFIRQF1                           1
     S1CON                             1
     _A_IEN0                           1
     RFST                              1
     RFIRQF0                           1
     macRxActive                       1
     macRxFilter                       1
     macRxOutgoingAckFlag              1
     lastDeviceShortAddr               2
     macRxAddrLen                      4
     pFuncRxState                      2
     pRxBuf                            2
     rxBuf                             4
     rxUnreadLen                       1
     rxNextLen                         1
     rxPayloadLen                      1
     rxFilter                          1
     rxPromiscuousMode                 1
     rxIsrActiveFlag                   1
     rxResetFlag                       1
     rxFifoOverflowCount               1
     macRxInit                        42
     ??Subroutine32_0                  7
     ?Subroutine0                      1
     ??Subroutine37_0                  7
     ?Subroutine24                    11
     macRxRadioPowerUpInit            28
     ?Subroutine9                      9
     macRxTxReset                     19
     macRxHaltCleanup                 22
     ?Subroutine22                     9
     rxHaltCleanupFinalStep           93
     macRxThresholdIsr                42
     ?Subroutine28                     4
     ?Subroutine30                     9
     rxStartIsr                      963
     ?Subroutine23                    15
     ?Subroutine15                     4
     ?Subroutine26                    11
     ?Subroutine10                    10
     ?Subroutine25                     1
     ??Subroutine31_0                 10
     ?Subroutine8                      6
     ??Subroutine33_0                  6
     ??Subroutine34_0                  5
     ??Subroutine35_0                  5
     ?Subroutine5                      8
     ?Subroutine3                     10
     ?Subroutine17                     1
     ??Subroutine36_0                  4
     ?Subroutine14                     6
     ?Subroutine7                     14
     ?Subroutine21                    13
     ?Subroutine16                     5
     ?Subroutine12                    21
     ?Subroutine11                     9
     ?Subroutine29                    11
     ?Subroutine27                    13
     ??Subroutine38_0                  4
     ??Subroutine39_0                  6
     ?Subroutine6                      6
     rxAddrIsr                       288
     ?Subroutine1                      5
     ?Subroutine20                     9
     ?Subroutine19                    13
     ?Subroutine13                    19
     rxPrepPayload                    51
     rxPayloadIsr                     55
     ?Subroutine18                    13
     rxFcsIsr                        236
     ?Subroutine4                      4
     ?Subroutine2                     13
     rxDone                           40
     macRxAckTxDoneCallback           21
     rxPostRxUpdates                  16
     rxDiscardFrame                   68
     rxDiscardIsr                     54
     macRxFifoOverflowIsr             16
     macRxPromiscuousMode             46
     ??macRxInit?relay                 6
     ??macRxRadioPowerUpInit?relay     6
     ??macRxTxReset?relay              6
     ??macRxHaltCleanup?relay          6
     ??rxHaltCleanupFinalStep?relay    6
     ??macRxThresholdIsr?relay         6
     ??rxStartIsr?relay                6
     ??rxAddrIsr?relay                 6
     ??rxPrepPayload?relay             6
     ??rxPayloadIsr?relay              6
     ??rxFcsIsr?relay                  6
     ??rxDone?relay                    6
     ??macRxAckTxDoneCallback?relay    6
     ??rxPostRxUpdates?relay           6
     ??rxDiscardFrame?relay            6
     ??rxDiscardIsr?relay              6
     ??macRxFifoOverflowIsr?relay      6
     ??macRxPromiscuousMode?relay      6

 
 2 437 bytes in segment BANKED_CODE
   108 bytes in segment BANK_RELAYS
     4 bytes in segment CODE_C
     5 bytes in segment SFR_AN
    21 bytes in segment XDATA_Z
 
 2 549 bytes of CODE  memory
     0 bytes of DATA  memory (+ 5 bytes shared)
    21 bytes of XDATA memory

Errors: none
Warnings: none
