###############################################################################
#                                                                             #
# IAR C/C++ Compiler V8.10.3.10338/W32 for 8051         22/Nov/2016  12:33:30 #
# Copyright 2004-2011 IAR Systems AB.                                         #
#                                                                             #
#    Core               =  plain                                              #
#    Code model         =  banked                                             #
#    Data model         =  large                                              #
#    Calling convention =  xdata reentrant                                    #
#    Constant location  =  data_rom                                           #
#    Dptr setup         =  1,16                                               #
#    Source file        =  C:\Users\icecreamco\Desktop\GAP\Coordinator\Compon #
#                          ents\mt\MT_UART.c                                  #
#    Command line       =  -f C:\Users\icecreamco\Desktop\GAP\Coordinator\Pro #
#                          jects\zstack\Samples\SampleApp\CC2530DB\..\..\..\T #
#                          ools\CC2530DB\f8wCoord.cfg (-DCPU32MHZ             #
#                          -DROOT=__near_func -DMAC_CFG_APP_PENDING_QUEUE=TRU #
#                          E -DMAC_CFG_TX_DATA_MAX=5 -DMAC_CFG_TX_MAX=8       #
#                          -DMAC_CFG_RX_MAX=5 -DZDO_COORDINATOR -DRTR_NWK)    #
#                          -f C:\Users\icecreamco\Desktop\GAP\Coordinator\Pro #
#                          jects\zstack\Samples\SampleApp\CC2530DB\..\..\..\T #
#                          ools\CC2530DB\f8wConfig.cfg (-DZIGBEEPRO           #
#                          -DSECURE=0 -DZG_SECURE_DYNAMIC=0 -DREFLECTOR       #
#                          -DDEFAULT_CHANLIST=0x00000800                      #
#                          -DZDAPP_CONFIG_PAN_ID=0x2222                       #
#                          -DNWK_START_DELAY=100 -DEXTENDED_JOINING_RANDOM_MA #
#                          SK=0x007F -DBEACON_REQUEST_DELAY=100               #
#                          -DBEACON_REQ_DELAY_MASK=0x00FF                     #
#                          -DLINK_STATUS_JITTER_MASK=0x007F                   #
#                          -DROUTE_EXPIRY_TIME=30 -DAPSC_ACK_WAIT_DURATION_PO #
#                          LLED=3000 -DNWK_INDIRECT_MSG_TIMEOUT=7             #
#                          -DMAX_RREQ_ENTRIES=8 -DAPSC_MAX_FRAME_RETRIES=3    #
#                          -DNWK_MAX_DATA_RETRIES=2                           #
#                          -DMAX_POLL_FAILURE_RETRIES=2 -DMAX_BCAST=9         #
#                          -DAPS_MAX_GROUPS=16 -DMAX_RTG_ENTRIES=40           #
#                          -DNWK_MAX_BINDING_ENTRIES=4                        #
#                          -DMAX_BINDING_CLUSTER_IDS=4 "-DDEFAULT_KEY={0x01,  #
#                          0x03, 0x05, 0x07, 0x09, 0x0B, 0x0D, 0x0F, 0x00,    #
#                          0x02, 0x04, 0x06, 0x08, 0x0A, 0x0C, 0x0D}"         #
#                          -DMAC_MAX_FRAME_SIZE=116                           #
#                          -DZDNWKMGR_MIN_TRANSMISSIONS=20 "-DCONST=const     #
#                          __code" -DGENERIC=__generic                        #
#                          -DRFD_RCVC_ALWAYS_ON=FALSE -DPOLL_RATE=1000        #
#                          -DQUEUED_POLL_RATE=100 -DRESPONSE_POLL_RATE=100)   #
#                          -DREJOIN_POLL_RATE=440 C:\Users\icecreamco\Desktop #
#                          \GAP\Coordinator\Components\mt\MT_UART.c -D        #
#                          ZTOOL_P1 -D HAL_UART=TRUE -D AUTO_RESET -D         #
#                          xMT_TASK -D xMT_SYS_FUNC -D xMT_ZDO_FUNC -D        #
#                          xLCD_SUPPORTED=DEBUG -lC                           #
#                          C:\Users\icecreamco\Desktop\GAP\Coordinator\Projec #
#                          ts\zstack\Samples\SampleApp\CC2530DB\CoordinatorEB #
#                          \List\ -lA C:\Users\icecreamco\Desktop\GAP\Coordin #
#                          ator\Projects\zstack\Samples\SampleApp\CC2530DB\Co #
#                          ordinatorEB\List\ --diag_suppress Pe001,Pa010 -o   #
#                          C:\Users\icecreamco\Desktop\GAP\Coordinator\Projec #
#                          ts\zstack\Samples\SampleApp\CC2530DB\CoordinatorEB #
#                          \Obj\ -e --no_code_motion --debug --core=plain     #
#                          --dptr=16,1 --data_model=large                     #
#                          --code_model=banked --calling_convention=xdata_ree #
#                          ntrant --place_constants=data_rom                  #
#                          --nr_virtual_regs 16 -I C:\Users\icecreamco\Deskto #
#                          p\GAP\Coordinator\Projects\zstack\Samples\SampleAp #
#                          p\CC2530DB\ -I C:\Users\icecreamco\Desktop\GAP\Coo #
#                          rdinator\Projects\zstack\Samples\SampleApp\CC2530D #
#                          B\..\Source\ -I C:\Users\icecreamco\Desktop\GAP\Co #
#                          ordinator\Projects\zstack\Samples\SampleApp\CC2530 #
#                          DB\..\..\..\ZMain\TI2530DB\ -I                     #
#                          C:\Users\icecreamco\Desktop\GAP\Coordinator\Projec #
#                          ts\zstack\Samples\SampleApp\CC2530DB\..\..\..\..\. #
#                          .\Components\hal\include\ -I                       #
#                          C:\Users\icecreamco\Desktop\GAP\Coordinator\Projec #
#                          ts\zstack\Samples\SampleApp\CC2530DB\..\..\..\..\. #
#                          .\Components\hal\target\CC2530EB\ -I               #
#                          C:\Users\icecreamco\Desktop\GAP\Coordinator\Projec #
#                          ts\zstack\Samples\SampleApp\CC2530DB\..\..\..\..\. #
#                          .\Components\mac\include\ -I                       #
#                          C:\Users\icecreamco\Desktop\GAP\Coordinator\Projec #
#                          ts\zstack\Samples\SampleApp\CC2530DB\..\..\..\..\. #
#                          .\Components\mac\high_level\ -I                    #
#                          C:\Users\icecreamco\Desktop\GAP\Coordinator\Projec #
#                          ts\zstack\Samples\SampleApp\CC2530DB\..\..\..\..\. #
#                          .\Components\mac\low_level\srf04\ -I               #
#                          C:\Users\icecreamco\Desktop\GAP\Coordinator\Projec #
#                          ts\zstack\Samples\SampleApp\CC2530DB\..\..\..\..\. #
#                          .\Components\mac\low_level\srf04\single_chip\ -I   #
#                          C:\Users\icecreamco\Desktop\GAP\Coordinator\Projec #
#                          ts\zstack\Samples\SampleApp\CC2530DB\..\..\..\..\. #
#                          .\Components\mt\ -I C:\Users\icecreamco\Desktop\GA #
#                          P\Coordinator\Projects\zstack\Samples\SampleApp\CC #
#                          2530DB\..\..\..\..\..\Components\osal\include\ -I  #
#                          C:\Users\icecreamco\Desktop\GAP\Coordinator\Projec #
#                          ts\zstack\Samples\SampleApp\CC2530DB\..\..\..\..\. #
#                          .\Components\services\saddr\ -I                    #
#                          C:\Users\icecreamco\Desktop\GAP\Coordinator\Projec #
#                          ts\zstack\Samples\SampleApp\CC2530DB\..\..\..\..\. #
#                          .\Components\services\sdata\ -I                    #
#                          C:\Users\icecreamco\Desktop\GAP\Coordinator\Projec #
#                          ts\zstack\Samples\SampleApp\CC2530DB\..\..\..\..\. #
#                          .\Components\stack\af\ -I                          #
#                          C:\Users\icecreamco\Desktop\GAP\Coordinator\Projec #
#                          ts\zstack\Samples\SampleApp\CC2530DB\..\..\..\..\. #
#                          .\Components\stack\nwk\ -I                         #
#                          C:\Users\icecreamco\Desktop\GAP\Coordinator\Projec #
#                          ts\zstack\Samples\SampleApp\CC2530DB\..\..\..\..\. #
#                          .\Components\stack\sapi\ -I                        #
#                          C:\Users\icecreamco\Desktop\GAP\Coordinator\Projec #
#                          ts\zstack\Samples\SampleApp\CC2530DB\..\..\..\..\. #
#                          .\Components\stack\sec\ -I                         #
#                          C:\Users\icecreamco\Desktop\GAP\Coordinator\Projec #
#                          ts\zstack\Samples\SampleApp\CC2530DB\..\..\..\..\. #
#                          .\Components\stack\sys\ -I                         #
#                          C:\Users\icecreamco\Desktop\GAP\Coordinator\Projec #
#                          ts\zstack\Samples\SampleApp\CC2530DB\..\..\..\..\. #
#                          .\Components\stack\zdo\ -I                         #
#                          C:\Users\icecreamco\Desktop\GAP\Coordinator\Projec #
#                          ts\zstack\Samples\SampleApp\CC2530DB\..\..\..\..\. #
#                          .\Components\zmac\ -I C:\Users\icecreamco\Desktop\ #
#                          GAP\Coordinator\Projects\zstack\Samples\SampleApp\ #
#                          CC2530DB\..\..\..\..\..\Components\zmac\f8w\ -Ohz  #
#                          --require_prototypes                               #
#    List file          =  C:\Users\icecreamco\Desktop\GAP\Coordinator\Projec #
#                          ts\zstack\Samples\SampleApp\CC2530DB\CoordinatorEB #
#                          \List\MT_UART.lst                                  #
#    Object file        =  C:\Users\icecreamco\Desktop\GAP\Coordinator\Projec #
#                          ts\zstack\Samples\SampleApp\CC2530DB\CoordinatorEB #
#                          \Obj\MT_UART.r51                                   #
#                                                                             #
#                                                                             #
###############################################################################

C:\Users\icecreamco\Desktop\GAP\Coordinator\Components\mt\MT_UART.c
      1          /***************************************************************************************************
      2            Filename:       MT_UART.c
      3            Revised:        $Date: 2009-03-12 16:25:22 -0700 (Thu, 12 Mar 2009) $
      4            Revision:       $Revision: 19404 $
      5          
      6            Description:  This module handles anything dealing with the serial port.
      7          
      8            Copyright 2007 Texas Instruments Incorporated. All rights reserved.
      9          
     10            IMPORTANT: Your use of this Software is limited to those specific rights
     11            granted under the terms of a software license agreement between the user
     12            who downloaded the software, his/her employer (which must be your employer)
     13            and Texas Instruments Incorporated (the "License").  You may not use this
     14            Software unless you agree to abide by the terms of the License. The License
     15            limits your use, and you acknowledge, that the Software may not be modified,
     16            copied or distributed unless embedded on a Texas Instruments microcontroller
     17            or used solely and exclusively in conjunction with a Texas Instruments radio
     18            frequency transceiver, which is integrated into your product.  Other than for
     19            the foregoing purpose, you may not use, reproduce, copy, prepare derivative
     20            works of, modify, distribute, perform, display or sell this Software and/or
     21            its documentation for any purpose.
     22          
     23            YOU FURTHER ACKNOWLEDGE AND AGREE THAT THE SOFTWARE AND DOCUMENTATION ARE
     24            PROVIDED AS IS?WITHOUT WARRANTY OF ANY KIND, EITHER EXPRESS OR IMPLIED,
     25            INCLUDING WITHOUT LIMITATION, ANY WARRANTY OF MERCHANTABILITY, TITLE,
     26            NON-INFRINGEMENT AND FITNESS FOR A PARTICULAR PURPOSE. IN NO EVENT SHALL
     27            TEXAS INSTRUMENTS OR ITS LICENSORS BE LIABLE OR OBLIGATED UNDER CONTRACT,
     28            NEGLIGENCE, STRICT LIABILITY, CONTRIBUTION, BREACH OF WARRANTY, OR OTHER
     29            LEGAL EQUITABLE THEORY ANY DIRECT OR INDIRECT DAMAGES OR EXPENSES
     30            INCLUDING BUT NOT LIMITED TO ANY INCIDENTAL, SPECIAL, INDIRECT, PUNITIVE
     31            OR CONSEQUENTIAL DAMAGES, LOST PROFITS OR LOST DATA, COST OF PROCUREMENT
     32            OF SUBSTITUTE GOODS, TECHNOLOGY, SERVICES, OR ANY CLAIMS BY THIRD PARTIES
     33            (INCLUDING BUT NOT LIMITED TO ANY DEFENSE THEREOF), OR OTHER SIMILAR COSTS.
     34          
     35            Should you have any questions regarding your right to use this Software,
     36            contact Texas Instruments Incorporated at www.TI.com.
     37          
     38          ***************************************************************************************************/
     39          
     40          /***************************************************************************************************
     41           * INCLUDES
     42           ***************************************************************************************************/
     43          #include "ZComDef.h"
     44          #include "OSAL.h"
     45          #include "hal_uart.h"

   \                                 In  segment SFR_AN, at 0xa8
   \   union <unnamed> volatile __sfr _A_IEN0
   \                     _A_IEN0:
   \   000000                DS 1

   \                                 In  segment SFR_AN, at 0xc9
   \   unsigned char volatile __sfr WDCTL
   \                     WDCTL:
   \   000000                DS 1
     46          #include "MT.h"
     47          #include "MT_UART.h"
     48          #include "OSAL_Memory.h"
     49          #include "SampleApp.h"
     50          
     51          /***************************************************************************************************
     52           * MACROS
     53           ***************************************************************************************************/
     54          
     55          /***************************************************************************************************
     56           * CONSTANTS
     57           ***************************************************************************************************/
     58          /* State values for ZTool protocal */
     59          #define SOP_STATE      0x00
     60          #define CMD_STATE1     0x01
     61          #define CMD_STATE2     0x02
     62          #define LEN_STATE      0x03
     63          #define DATA_STATE     0x04
     64          #define FCS_STATE      0x05
     65          
     66          /***************************************************************************************************
     67           *                                         GLOBAL VARIABLES
     68           ***************************************************************************************************/
     69          /* Used to indentify the application ID for osal task */

   \                                 In  segment XDATA_Z, align 1, keep-with-next
     70          byte App_TaskID;
   \                     App_TaskID:
   \   000000                DS 1
   \   000001                REQUIRE __INIT_XDATA_Z
     71          
     72          /* ZTool protocal parameters */

   \                                 In  segment XDATA_Z, align 1, keep-with-next
     73          uint8 state;
   \                     state:
   \   000000                DS 1
   \   000001                REQUIRE __INIT_XDATA_Z

   \                                 In  segment XDATA_Z, align 1, keep-with-next
     74          uint8  CMD_Token[2];
   \                     CMD_Token:
   \   000000                DS 2
   \   000002                REQUIRE __INIT_XDATA_Z

   \                                 In  segment XDATA_Z, align 1, keep-with-next
     75          uint8  LEN_Token;
   \                     LEN_Token:
   \   000000                DS 1
   \   000001                REQUIRE __INIT_XDATA_Z

   \                                 In  segment XDATA_Z, align 1, keep-with-next
     76          uint8  FSC_Token;
   \                     FSC_Token:
   \   000000                DS 1
   \   000001                REQUIRE __INIT_XDATA_Z

   \                                 In  segment XDATA_Z, align 1, keep-with-next
     77          mtOSALSerialData_t  *pMsg;
   \                     pMsg:
   \   000000                DS 2
   \   000002                REQUIRE __INIT_XDATA_Z

   \                                 In  segment XDATA_Z, align 1, keep-with-next
     78          uint8  tempDataLen;
   \                     tempDataLen:
   \   000000                DS 1
   \   000001                REQUIRE __INIT_XDATA_Z

   \                                 In  segment XDATA_Z, align 1, keep-with-next
     79          uint8 CommitiFlag=0;                      //通信标志位 保证部分数据只接受一次
   \                     CommitiFlag:
   \   000000                DS 1
   \   000001                REQUIRE __INIT_XDATA_Z
     80          
     81          #if defined (ZAPP_P1) || defined (ZAPP_P2)
     82          uint16  MT_UartMaxZAppBufLen;
     83          bool    MT_UartZAppRxStatus;
     84          #endif
     85          
     86          
     87          /***************************************************************************************************
     88           *                                          LOCAL FUNCTIONS
     89           ***************************************************************************************************/
     90          
     91          /***************************************************************************************************
     92           * @fn      MT_UartInit
     93           *
     94           * @brief   Initialize MT with UART support
     95           *
     96           * @param   None
     97           *
     98           * @return  None
     99          ***************************************************************************************************/

   \                                 In  segment BANKED_CODE, align 1, keep-with-next
    100          void MT_UartInit ()
   \                     MT_UartInit:
    101          {
   \   000000   C082         PUSH    DPL
   \   000002   C083         PUSH    DPH
   \   000004                ; Saved register size: 2
   \   000004                ; Auto size: 29
   \   000004   74E3         MOV     A,#-0x1d
   \   000006   12....       LCALL   ?ALLOC_XSTACK8
    102            halUARTCfg_t uartConfig;
    103          
    104            /* Initialize APP ID */
    105            App_TaskID = 0;
   \   000009   90....       MOV     DPTR,#App_TaskID
   \   00000C   E4           CLR     A
   \   00000D   12....       LCALL   ?Subroutine1 & 0xFFFF
    106          
    107            /* UART Configuration */
    108            uartConfig.configured           = TRUE;
   \                     ??CrossCallReturnLabel_0:
   \   000010   04           INC     A
   \   000011   F0           MOVX    @DPTR,A
    109            uartConfig.baudRate             = MT_UART_DEFAULT_BAUDRATE;
   \   000012   12....       LCALL   ?XSTACK_DISP0_8
   \   000015   7404         MOV     A,#0x4
   \   000017   F0           MOVX    @DPTR,A
    110            uartConfig.flowControl          = MT_UART_DEFAULT_OVERFLOW;
   \   000018   7402         MOV     A,#0x2
   \   00001A   12....       LCALL   ?XSTACK_DISP0_8
   \   00001D   E4           CLR     A
   \   00001E   F0           MOVX    @DPTR,A
    111            uartConfig.flowControlThreshold = MT_UART_DEFAULT_THRESHOLD;
   \   00001F   7403         MOV     A,#0x3
   \   000021   12....       LCALL   ?XSTACK_DISP0_8
   \   000024   7440         MOV     A,#0x40
   \   000026   F0           MOVX    @DPTR,A
   \   000027   A3           INC     DPTR
   \   000028   E4           CLR     A
   \   000029   F0           MOVX    @DPTR,A
    112            uartConfig.rx.maxBufSize        = MT_UART_DEFAULT_MAX_RX_BUFF;
   \   00002A   740A         MOV     A,#0xa
   \   00002C   12....       LCALL   ?XSTACK_DISP0_8
   \   00002F   7480         MOV     A,#-0x80
   \   000031   F0           MOVX    @DPTR,A
   \   000032   A3           INC     DPTR
   \   000033   E4           CLR     A
   \   000034   F0           MOVX    @DPTR,A
    113            uartConfig.tx.maxBufSize        = MT_UART_DEFAULT_MAX_TX_BUFF;
   \   000035   7412         MOV     A,#0x12
   \   000037   12....       LCALL   ?XSTACK_DISP0_8
   \   00003A   7480         MOV     A,#-0x80
   \   00003C   F0           MOVX    @DPTR,A
   \   00003D   A3           INC     DPTR
   \   00003E   E4           CLR     A
   \   00003F   F0           MOVX    @DPTR,A
    114            uartConfig.idleTimeout          = MT_UART_DEFAULT_IDLE_TIMEOUT;
   \   000040   7405         MOV     A,#0x5
   \   000042   12....       LCALL   ?XSTACK_DISP0_8
   \   000045   7406         MOV     A,#0x6
   \   000047   F0           MOVX    @DPTR,A
    115            uartConfig.intEnable            = TRUE;
   \   000048   7416         MOV     A,#0x16
   \   00004A   12....       LCALL   ?XSTACK_DISP0_8
   \   00004D   7401         MOV     A,#0x1
   \   00004F   F0           MOVX    @DPTR,A
    116          #if defined (ZTOOL_P1) || defined (ZTOOL_P2)
    117            uartConfig.callBackFunc         = MT_UartProcessZToolData;
   \   000050   741B         MOV     A,#0x1b
   \   000052   12....       LCALL   ?XSTACK_DISP0_8
   \   000055   74..         MOV     A,#??MT_UartProcessZToolData?relay & 0xff
   \   000057   F0           MOVX    @DPTR,A
   \   000058   A3           INC     DPTR
   \   000059   74..         MOV     A,#(??MT_UartProcessZToolData?relay >> 8) & 0xff
   \   00005B   12....       LCALL   ?Subroutine1 & 0xFFFF
    118          #elif defined (ZAPP_P1) || defined (ZAPP_P2)
    119            uartConfig.callBackFunc         = MT_UartProcessZAppData;
    120          #else
    121            uartConfig.callBackFunc         = NULL;
    122          #endif
    123          
    124            /* Start UART */
    125          #if defined (MT_UART_DEFAULT_PORT)
    126            HalUARTOpen (MT_UART_DEFAULT_PORT, &uartConfig);
   \                     ??CrossCallReturnLabel_1:
   \   00005E   AA82         MOV     R2,DPL
   \   000060   AB83         MOV     R3,DPH
   \   000062   7900         MOV     R1,#0x0
   \   000064   12....       LCALL   ??HalUARTOpen?relay
    127          #else
    128            /* Silence IAR compiler warning */
    129            (void)uartConfig;
    130          #endif
    131          
    132            /* Initialize for ZApp */
    133          #if defined (ZAPP_P1) || defined (ZAPP_P2)
    134            /* Default max bytes that ZAPP can take */
    135            MT_UartMaxZAppBufLen  = 1;
    136            MT_UartZAppRxStatus   = MT_UART_ZAPP_RX_READY;
    137          #endif
    138          
    139          }
   \   000067   741D         MOV     A,#0x1d
   \   000069   12....       LCALL   ?DEALLOC_XSTACK8
   \   00006C                REQUIRE ?Subroutine0
   \   00006C                ; // Fall through to label ?Subroutine0

   \                                 In  segment BANKED_CODE, align 1, keep-with-next
   \                     ?Subroutine0:
   \   000000   D083         POP     DPH
   \   000002   D082         POP     DPL
   \   000004   02....       LJMP    ?BRET

   \                                 In  segment BANKED_CODE, align 1, keep-with-next
   \                     ?Subroutine1:
   \   000000   F0           MOVX    @DPTR,A
   \   000001                ; Setup parameters for call to function HalUARTOpen
   \   000001   85..82       MOV     DPL,?XSP + 0
   \   000004   85..83       MOV     DPH,?XSP + 1
   \   000007   22           RET
    140          
    141          /***************************************************************************************************
    142           * @fn      MT_SerialRegisterTaskID
    143           *
    144           * @brief   This function registers the taskID of the application so it knows
    145           *          where to send the messages whent they come in.
    146           *
    147           * @param   void
    148           *
    149           * @return  void
    150           ***************************************************************************************************/

   \                                 In  segment BANKED_CODE, align 1, keep-with-next
    151          void MT_UartRegisterTaskID( byte taskID )
   \                     MT_UartRegisterTaskID:
    152          {
   \   000000   C082         PUSH    DPL
   \   000002   C083         PUSH    DPH
   \   000004                ; Saved register size: 2
   \   000004                ; Auto size: 0
    153            App_TaskID = taskID;
   \   000004   E9           MOV     A,R1
   \   000005   90....       MOV     DPTR,#App_TaskID
   \   000008   F0           MOVX    @DPTR,A
    154          }
   \   000009   80..         SJMP    ?Subroutine0
    155          
    156          /***************************************************************************************************
    157           * @fn      SPIMgr_CalcFCS
    158           *
    159           * @brief   Calculate the FCS of a message buffer by XOR'ing each byte.
    160           *          Remember to NOT include SOP and FCS fields, so start at the CMD field.
    161           *
    162           * @param   byte *msg_ptr - message pointer
    163           * @param   byte len - length (in bytes) of message
    164           *
    165           * @return  result byte
    166           ***************************************************************************************************/

   \                                 In  segment BANKED_CODE, align 1, keep-with-next
    167          byte MT_UartCalcFCS( uint8 *msg_ptr, uint8 len )
   \                     MT_UartCalcFCS:
    168          {
   \   000000   C082         PUSH    DPL
   \   000002   C083         PUSH    DPH
   \   000004                ; Saved register size: 2
   \   000004                ; Auto size: 0
   \   000004   E9           MOV     A,R1
   \   000005   FC           MOV     R4,A
    169            byte x;
    170            byte xorResult;
    171          
    172            xorResult = 0;
   \   000006   7900         MOV     R1,#0x0
    173          
    174            for ( x = 0; x < len; x++, msg_ptr++ )
   \   000008   7800         MOV     R0,#0x0
   \   00000A   800E         SJMP    ??MT_UartCalcFCS_0
    175              xorResult = xorResult ^ *msg_ptr;
   \                     ??MT_UartCalcFCS_1:
   \   00000C   8A82         MOV     DPL,R2
   \   00000E   8B83         MOV     DPH,R3
   \   000010   E0           MOVX    A,@DPTR
   \   000011   C9           XCH     A,R1
   \   000012   69           XRL     A,R1
   \   000013   F9           MOV     R1,A
   \   000014   08           INC     R0
   \   000015   A3           INC     DPTR
   \   000016   AA82         MOV     R2,DPL
   \   000018   AB83         MOV     R3,DPH
   \                     ??MT_UartCalcFCS_0:
   \   00001A   E8           MOV     A,R0
   \   00001B   C3           CLR     C
   \   00001C   9C           SUBB    A,R4
   \   00001D   40ED         JC      ??MT_UartCalcFCS_1
    176          
    177            return ( xorResult );
   \   00001F   80..         SJMP    ?Subroutine0
    178          }
    179          
    180          
    181          /***************************************************************************************************
    182           * @fn      MT_UartProcessZToolData
    183           *
    184           * @brief   | SOP | Data Length  |   CMD   |   Data   |  FCS  |
    185           *          |  1  |     1        |    2    |  0-Len   |   1   |
    186           *
    187           *          Parses the data and determine either is SPI or just simply serial data
    188           *          then send the data to correct place (MT or APP)
    189           *
    190           * @param   port     - UART port
    191           *          event    - Event that causes the callback
    192           *
    193           *
    194           * @return  None
    195           ***************************************************************************************************/

   \                                 In  segment BANKED_CODE, align 1, keep-with-next
    196          void MT_UartProcessZToolData ( uint8 port, uint8 event )
   \                     MT_UartProcessZToolData:
    197          {
   \   000000   74F6         MOV     A,#-0xa
   \   000002   12....       LCALL   ?BANKED_ENTER_XDATA
   \   000005                ; Saved register size: 10
   \   000005                ; Auto size: 4
   \   000005   74FC         MOV     A,#-0x4
   \   000007   12....       LCALL   ?ALLOC_XSTACK8
   \   00000A   E9           MOV     A,R1
   \   00000B   FE           MOV     R6,A
    198            uint8  ch;
    199            uint8  bytesInRxBuffer;
    200            uint8 ans[3]="OKC";
   \   00000C   90....       MOV     DPTR,#`?<Constant "OKC">`
   \   00000F   C082         PUSH    DPL
   \   000011   7401         MOV     A,#0x1
   \   000013   12....       LCALL   ?XSTACK_DISP0_8
   \   000016   AC82         MOV     R4,DPL
   \   000018   AD83         MOV     R5,DPH
   \   00001A   7583..       MOV     DPH,#(`?<Constant "OKC">` >> 8) & 0xff
   \   00001D   D082         POP     DPL
   \   00001F   7403         MOV     A,#0x3
   \   000021   12....       LCALL   ?MOVE_LONG8_XDATA_XDATA
    201            
    202            (void)event;  // Intentionally unreferenced parameter
   \   000024   802D         SJMP    ??MT_UartProcessZToolData_0
    203          
    204            while (Hal_UART_RxBufLen(port))
    205            {
    206              HalUARTRead (port, &ch, 1);                        //收到的数据为ch
    207              
    208          //***********************串口数据处理部分*************************************//
    209              if((ch=='W') && (CommitiFlag==0))                 //接收确认数据为'W' 通信标识位为0
    210              {
    211                CommitiFlag=1;                                  //通信标志位置1
    212                HalUARTWrite(0,"W@",2);                         //回复网关'W@'
    213              }
    214              if(((ch=='M') || (ch=='C')) && (CommitiFlag==1))  //接收工作模式数据'M'或'C' 通信标志位为1
    215              {
    216                 CommitiFlag=2;                                 //通信标志位置2 不再接收确认和模式数据
    217                 Mode=ch;                                       //模式数据赋值
    218                 Timer_Flag=1;                                  //计算总定时时间标志位置1 开启
    219                 WaitFlag=0;                                    //串口等待标志位清零 关闭
    220                 LinkWait=1;                                    //建网等待标志位置1 开启建网延时
    221                 ans[2]=Mode;                                   
    222                 HalUARTWrite(0,ans,3);                         //应答网关 'OKC'
    223              }
    224              if(ch=='R')                                       //若接收数据为'R'
    225              {
    226                SystemReset();                                  //重启
    227              }
    228              switch (state)
    229              {
    230                case SOP_STATE:
    231                  if (ch == MT_UART_SOF)
    232                    state = LEN_STATE;
    233                  break;
    234          
    235                case LEN_STATE:
    236                  LEN_Token = ch;
    237          
    238                  tempDataLen = 0;
    239          
    240                  /* Allocate memory for the data */
    241                  pMsg = (mtOSALSerialData_t *)osal_msg_allocate( sizeof ( mtOSALSerialData_t ) +
    242                                                                  MT_RPC_FRAME_HDR_SZ + LEN_Token );
    243          
    244                  if (pMsg)
    245                  {
    246                    /* Fill up what we can */
    247                    pMsg->hdr.event = CMD_SERIAL_MSG;
   \                     ??MT_UartProcessZToolData_1:
   \   000026   12....       LCALL   ??Subroutine11_0 & 0xFFFF
   \                     ??CrossCallReturnLabel_21:
   \   000029   7401         MOV     A,#0x1
   \   00002B   F0           MOVX    @DPTR,A
    248                    pMsg->msg = (uint8*)(pMsg+1);
   \   00002C   90....       MOV     DPTR,#pMsg
   \   00002F   E0           MOVX    A,@DPTR
   \   000030   2404         ADD     A,#0x4
   \   000032   F8           MOV     R0,A
   \   000033   A3           INC     DPTR
   \   000034   E0           MOVX    A,@DPTR
   \   000035   3400         ADDC    A,#0x0
   \   000037   F9           MOV     R1,A
   \   000038   12....       LCALL   ?Subroutine6 & 0xFFFF
   \                     ??CrossCallReturnLabel_13:
   \   00003B   E8           MOV     A,R0
   \   00003C   F0           MOVX    @DPTR,A
   \   00003D   A3           INC     DPTR
   \   00003E   E9           MOV     A,R1
   \   00003F   12....       LCALL   ?Subroutine2 & 0xFFFF
    249                    pMsg->msg[MT_RPC_POS_LEN] = LEN_Token;
   \                     ??CrossCallReturnLabel_3:
   \   000042   C0E0         PUSH    A
   \   000044   12....       LCALL   ?Subroutine5 & 0xFFFF
   \                     ??CrossCallReturnLabel_11:
   \   000047   12....       LCALL   ?Subroutine10 & 0xFFFF
   \                     ??CrossCallReturnLabel_22:
   \   00004A   D0E0         POP     A
   \   00004C   F0           MOVX    @DPTR,A
    250                    state = CMD_STATE1;
   \   00004D   90....       MOV     DPTR,#state
   \   000050   7401         MOV     A,#0x1
   \                     ??MT_UartProcessZToolData_2:
   \   000052   F0           MOVX    @DPTR,A
    251                  }
    252                  else
    253                  {
    254                    state = SOP_STATE;
    255                    return;
    256                  }
    257                  break;
   \                     ??MT_UartProcessZToolData_0:
   \   000053                ; Setup parameters for call to function Hal_UART_RxBufLen
   \   000053   EE           MOV     A,R6
   \   000054   F9           MOV     R1,A
   \   000055   12....       LCALL   ??Hal_UART_RxBufLen?relay
   \   000058   8B..         MOV     ?V0 + 1,R3
   \   00005A   EA           MOV     A,R2
   \   00005B   45..         ORL     A,?V0 + 1
   \   00005D   7003         JNZ     $+5
   \   00005F   02....       LJMP    ??MT_UartProcessZToolData_3 & 0xFFFF
   \   000062                ; Setup parameters for call to function HalUARTRead
   \   000062   7C01         MOV     R4,#0x1
   \   000064   7D00         MOV     R5,#0x0
   \   000066   85..82       MOV     DPL,?XSP + 0
   \   000069   85..83       MOV     DPH,?XSP + 1
   \   00006C   AA82         MOV     R2,DPL
   \   00006E   AB83         MOV     R3,DPH
   \   000070   EE           MOV     A,R6
   \   000071   F9           MOV     R1,A
   \   000072   12....       LCALL   ??HalUARTRead?relay
   \   000075   85..82       MOV     DPL,?XSP + 0
   \   000078   85..83       MOV     DPH,?XSP + 1
   \   00007B   E0           MOVX    A,@DPTR
   \   00007C   6457         XRL     A,#0x57
   \   00007E   7016         JNZ     ??MT_UartProcessZToolData_4
   \   000080   90....       MOV     DPTR,#CommitiFlag
   \   000083   E0           MOVX    A,@DPTR
   \   000084   7079         JNZ     ??MT_UartProcessZToolData_5
   \   000086   7401         MOV     A,#0x1
   \   000088   F0           MOVX    @DPTR,A
   \   000089                ; Setup parameters for call to function HalUARTWrite
   \   000089   7C02         MOV     R4,#0x2
   \   00008B   7D00         MOV     R5,#0x0
   \   00008D   7A..         MOV     R2,#`?<Constant "W@">` & 0xff
   \   00008F   7B..         MOV     R3,#(`?<Constant "W@">` >> 8) & 0xff
   \   000091   7900         MOV     R1,#0x0
   \   000093   12....       LCALL   ??HalUARTWrite?relay
   \                     ??MT_UartProcessZToolData_4:
   \   000096   85..82       MOV     DPL,?XSP + 0
   \   000099   85..83       MOV     DPH,?XSP + 1
   \   00009C   E0           MOVX    A,@DPTR
   \   00009D   644D         XRL     A,#0x4d
   \   00009F   6005         JZ      ??MT_UartProcessZToolData_6
   \   0000A1   E0           MOVX    A,@DPTR
   \   0000A2   6443         XRL     A,#0x43
   \   0000A4   7042         JNZ     ??MT_UartProcessZToolData_7
   \                     ??MT_UartProcessZToolData_6:
   \   0000A6   90....       MOV     DPTR,#CommitiFlag
   \   0000A9   E0           MOVX    A,@DPTR
   \   0000AA   6401         XRL     A,#0x1
   \   0000AC   703A         JNZ     ??MT_UartProcessZToolData_7
   \   0000AE   7402         MOV     A,#0x2
   \   0000B0   12....       LCALL   ?Subroutine1 & 0xFFFF
   \                     ??CrossCallReturnLabel_2:
   \   0000B3   E0           MOVX    A,@DPTR
   \   0000B4   90....       MOV     DPTR,#Mode
   \   0000B7   F0           MOVX    @DPTR,A
   \   0000B8   90....       MOV     DPTR,#Timer_Flag
   \   0000BB   7401         MOV     A,#0x1
   \   0000BD   F0           MOVX    @DPTR,A
   \   0000BE   90....       MOV     DPTR,#WaitFlag
   \   0000C1   E4           CLR     A
   \   0000C2   F0           MOVX    @DPTR,A
   \   0000C3   90....       MOV     DPTR,#LinkWait
   \   0000C6   04           INC     A
   \   0000C7   F0           MOVX    @DPTR,A
   \   0000C8   90....       MOV     DPTR,#Mode
   \   0000CB   E0           MOVX    A,@DPTR
   \   0000CC   C0E0         PUSH    A
   \   0000CE   7403         MOV     A,#0x3
   \   0000D0   12....       LCALL   ?XSTACK_DISP0_8
   \   0000D3   D0E0         POP     A
   \   0000D5   F0           MOVX    @DPTR,A
   \   0000D6                ; Setup parameters for call to function HalUARTWrite
   \   0000D6   7C03         MOV     R4,#0x3
   \   0000D8   7D00         MOV     R5,#0x0
   \   0000DA   7401         MOV     A,#0x1
   \   0000DC   12....       LCALL   ?XSTACK_DISP0_8
   \   0000DF   AA82         MOV     R2,DPL
   \   0000E1   AB83         MOV     R3,DPH
   \   0000E3   7900         MOV     R1,#0x0
   \   0000E5   12....       LCALL   ??HalUARTWrite?relay
   \                     ??MT_UartProcessZToolData_7:
   \   0000E8   85..82       MOV     DPL,?XSP + 0
   \   0000EB   85..83       MOV     DPH,?XSP + 1
   \   0000EE   E0           MOVX    A,@DPTR
   \   0000EF   6452         XRL     A,#0x52
   \   0000F1   700C         JNZ     ??MT_UartProcessZToolData_5
   \   0000F3   C2AF         CLR     0xa8.7
   \   0000F5   C2AF         CLR     0xa8.7
   \   0000F7   75C9AB       MOV     0xc9,#-0x55
   \   0000FA   75C95B       MOV     0xc9,#0x5b
   \                     ??MT_UartProcessZToolData_8:
   \   0000FD   80FE         SJMP    ??MT_UartProcessZToolData_8
   \                     ??MT_UartProcessZToolData_5:
   \   0000FF   90....       MOV     DPTR,#state
   \   000102   E0           MOVX    A,@DPTR
   \   000103   601B         JZ      ??MT_UartProcessZToolData_9
   \   000105   14           DEC     A
   \   000106   6070         JZ      ??MT_UartProcessZToolData_10
   \   000108   14           DEC     A
   \   000109   7003         JNZ     $+5
   \   00010B   02....       LJMP    ??MT_UartProcessZToolData_11 & 0xFFFF
   \   00010E   14           DEC     A
   \   00010F   6025         JZ      ??MT_UartProcessZToolData_12
   \   000111   14           DEC     A
   \   000112   7003         JNZ     $+5
   \   000114   02....       LJMP    ??MT_UartProcessZToolData_13 & 0xFFFF
   \   000117   14           DEC     A
   \   000118   7003         JNZ     $+5
   \   00011A   02....       LJMP    ??MT_UartProcessZToolData_14 & 0xFFFF
   \   00011D   02....       LJMP    ??MT_UartProcessZToolData_0 & 0xFFFF
   \                     ??MT_UartProcessZToolData_9:
   \   000120   85..82       MOV     DPL,?XSP + 0
   \   000123   85..83       MOV     DPH,?XSP + 1
   \   000126   E0           MOVX    A,@DPTR
   \   000127   64FE         XRL     A,#0xfe
   \   000129   6003         JZ      $+5
   \   00012B   02....       LJMP    ??MT_UartProcessZToolData_0 & 0xFFFF
   \   00012E   90....       MOV     DPTR,#state
   \   000131   7403         MOV     A,#0x3
   \   000133   02....       LJMP    ??MT_UartProcessZToolData_2 & 0xFFFF
   \                     ??MT_UartProcessZToolData_12:
   \   000136   85..82       MOV     DPL,?XSP + 0
   \   000139   85..83       MOV     DPH,?XSP + 1
   \   00013C   E0           MOVX    A,@DPTR
   \   00013D   90....       MOV     DPTR,#LEN_Token
   \   000140   F0           MOVX    @DPTR,A
   \   000141   90....       MOV     DPTR,#tempDataLen
   \   000144   E4           CLR     A
   \   000145   12....       LCALL   ?Subroutine2 & 0xFFFF
   \                     ??CrossCallReturnLabel_4:
   \   000148   2407         ADD     A,#0x7
   \   00014A   FA           MOV     R2,A
   \   00014B   E4           CLR     A
   \   00014C   3400         ADDC    A,#0x0
   \   00014E   FB           MOV     R3,A
   \   00014F   12....       LCALL   ??osal_msg_allocate?relay
   \   000152   90....       MOV     DPTR,#pMsg
   \   000155   EA           MOV     A,R2
   \   000156   F0           MOVX    @DPTR,A
   \   000157   A3           INC     DPTR
   \   000158   EB           MOV     A,R3
   \   000159   F0           MOVX    @DPTR,A
   \   00015A   90....       MOV     DPTR,#pMsg
   \   00015D   E0           MOVX    A,@DPTR
   \   00015E   F8           MOV     R0,A
   \   00015F   A3           INC     DPTR
   \   000160   E0           MOVX    A,@DPTR
   \   000161   F9           MOV     R1,A
   \   000162   E8           MOV     A,R0
   \   000163   49           ORL     A,R1
   \   000164   6003         JZ      $+5
   \   000166   02....       LJMP    ??MT_UartProcessZToolData_1 & 0xFFFF
   \   000169   90....       MOV     DPTR,#state
   \   00016C   E4           CLR     A
   \   00016D   F0           MOVX    @DPTR,A
   \                     ??MT_UartProcessZToolData_3:
   \   00016E   7404         MOV     A,#0x4
   \   000170   12....       LCALL   ?DEALLOC_XSTACK8
   \   000173   7F02         MOV     R7,#0x2
   \   000175   02....       LJMP    ?BANKED_LEAVE_XDATA
    258          
    259                case CMD_STATE1:
    260                  pMsg->msg[MT_RPC_POS_CMD0] = ch;
   \                     ??MT_UartProcessZToolData_10:
   \   000178   85..82       MOV     DPL,?XSP + 0
   \   00017B   85..83       MOV     DPH,?XSP + 1
   \   00017E   E0           MOVX    A,@DPTR
   \   00017F   C0E0         PUSH    A
   \   000181   12....       LCALL   ?Subroutine4 & 0xFFFF
   \                     ??CrossCallReturnLabel_9:
   \   000184   D0E0         POP     A
   \   000186   F0           MOVX    @DPTR,A
    261                  state = CMD_STATE2;
   \   000187   90....       MOV     DPTR,#state
   \   00018A   7402         MOV     A,#0x2
   \   00018C   02....       LJMP    ??MT_UartProcessZToolData_2 & 0xFFFF
    262                  break;
    263          
    264                case CMD_STATE2:
    265                  pMsg->msg[MT_RPC_POS_CMD1] = ch;
   \                     ??MT_UartProcessZToolData_11:
   \   00018F   85..82       MOV     DPL,?XSP + 0
   \   000192   85..83       MOV     DPH,?XSP + 1
   \   000195   E0           MOVX    A,@DPTR
   \   000196   C0E0         PUSH    A
   \   000198   12....       LCALL   ?Subroutine4 & 0xFFFF
   \                     ??CrossCallReturnLabel_10:
   \   00019B   A3           INC     DPTR
   \   00019C   D0E0         POP     A
   \   00019E   12....       LCALL   ?Subroutine2 & 0xFFFF
    266                  /* If there is no data, skip to FCS state */
    267                  if (LEN_Token)
   \                     ??CrossCallReturnLabel_5:
   \   0001A1   7003         JNZ     $+5
   \   0001A3   02....       LJMP    ??MT_UartProcessZToolData_15 & 0xFFFF
    268                  {
    269                    state = DATA_STATE;
   \   0001A6   90....       MOV     DPTR,#state
   \   0001A9   7404         MOV     A,#0x4
   \   0001AB   02....       LJMP    ??MT_UartProcessZToolData_2 & 0xFFFF
    270                  }
    271                  else
    272                  {
    273                    state = FCS_STATE;
    274                  }
    275                  break;
    276          
    277                case DATA_STATE:
    278          
    279                  /* Fill in the buffer the first byte of the data */
    280                  pMsg->msg[MT_RPC_FRAME_HDR_SZ + tempDataLen++] = ch;
   \                     ??MT_UartProcessZToolData_13:
   \   0001AE   85..82       MOV     DPL,?XSP + 0
   \   0001B1   85..83       MOV     DPH,?XSP + 1
   \   0001B4   E0           MOVX    A,@DPTR
   \   0001B5   C0E0         PUSH    A
   \   0001B7   90....       MOV     DPTR,#tempDataLen
   \   0001BA   E0           MOVX    A,@DPTR
   \   0001BB   F8           MOV     R0,A
   \   0001BC   12....       LCALL   ?Subroutine6 & 0xFFFF
   \                     ??CrossCallReturnLabel_14:
   \   0001BF   12....       LCALL   ?Subroutine7 & 0xFFFF
   \                     ??CrossCallReturnLabel_15:
   \   0001C2   D0E0         POP     A
   \   0001C4   F0           MOVX    @DPTR,A
   \   0001C5   90....       MOV     DPTR,#tempDataLen
   \   0001C8   E0           MOVX    A,@DPTR
   \   0001C9   04           INC     A
   \   0001CA   F0           MOVX    @DPTR,A
    281          
    282                  /* Check number of bytes left in the Rx buffer */
    283                  bytesInRxBuffer = Hal_UART_RxBufLen(port);
   \   0001CB                ; Setup parameters for call to function Hal_UART_RxBufLen
   \   0001CB   EE           MOV     A,R6
   \   0001CC   F9           MOV     R1,A
   \   0001CD   12....       LCALL   ??Hal_UART_RxBufLen?relay
   \   0001D0   EA           MOV     A,R2
   \   0001D1   FF           MOV     R7,A
    284          
    285                  /* If the remain of the data is there, read them all, otherwise, just read enough */
    286                  if (bytesInRxBuffer <= LEN_Token - tempDataLen)
   \   0001D2   90....       MOV     DPTR,#LEN_Token
   \   0001D5   E0           MOVX    A,@DPTR
   \   0001D6   F8           MOV     R0,A
   \   0001D7   90....       MOV     DPTR,#tempDataLen
   \   0001DA   E0           MOVX    A,@DPTR
   \   0001DB   FA           MOV     R2,A
   \   0001DC   E8           MOV     A,R0
   \   0001DD   C3           CLR     C
   \   0001DE   9A           SUBB    A,R2
   \   0001DF   F8           MOV     R0,A
   \   0001E0   95E0         SUBB    A,0xE0 /* A   */
   \   0001E2   F9           MOV     R1,A
   \   0001E3   8F..         MOV     ?V0 + 0,R7
   \   0001E5   C3           CLR     C
   \   0001E6   E8           MOV     A,R0
   \   0001E7   95..         SUBB    A,?V0 + 0
   \   0001E9   E9           MOV     A,R1
   \   0001EA   9400         SUBB    A,#0x0
   \   0001EC   A2D2         MOV     C,0xD0 /* PSW */.2
   \   0001EE   65D0         XRL     A,PSW
   \   0001F0   33           RLC     A
   \   0001F1   4010         JC      ??MT_UartProcessZToolData_16
    287                  {
    288                    HalUARTRead (port, &pMsg->msg[MT_RPC_FRAME_HDR_SZ + tempDataLen], bytesInRxBuffer);
   \   0001F3                ; Setup parameters for call to function HalUARTRead
   \   0001F3   AC..         MOV     R4,?V0 + 0
   \   0001F5   7D00         MOV     R5,#0x0
   \   0001F7   E0           MOVX    A,@DPTR
   \   0001F8   F8           MOV     R0,A
   \   0001F9   12....       LCALL   ?Subroutine3 & 0xFFFF
    289                    tempDataLen += bytesInRxBuffer;
   \                     ??CrossCallReturnLabel_7:
   \   0001FC   90....       MOV     DPTR,#tempDataLen
   \   0001FF   E0           MOVX    A,@DPTR
   \   000200   2F           ADD     A,R7
   \   000201   8016         SJMP    ??MT_UartProcessZToolData_17
    290                  }
    291                  else
    292                  {
    293                    HalUARTRead (port, &pMsg->msg[MT_RPC_FRAME_HDR_SZ + tempDataLen], LEN_Token - tempDataLen);
   \                     ??MT_UartProcessZToolData_16:
   \   000203   E0           MOVX    A,@DPTR
   \   000204   F8           MOV     R0,A
   \   000205                ; Setup parameters for call to function HalUARTRead
   \   000205   90....       MOV     DPTR,#LEN_Token
   \   000208   E0           MOVX    A,@DPTR
   \   000209   C3           CLR     C
   \   00020A   98           SUBB    A,R0
   \   00020B   FC           MOV     R4,A
   \   00020C   95E0         SUBB    A,0xE0 /* A   */
   \   00020E   FD           MOV     R5,A
   \   00020F   12....       LCALL   ?Subroutine3 & 0xFFFF
    294                    tempDataLen += (LEN_Token - tempDataLen);
   \                     ??CrossCallReturnLabel_8:
   \   000212   90....       MOV     DPTR,#LEN_Token
   \   000215   E0           MOVX    A,@DPTR
   \   000216   90....       MOV     DPTR,#tempDataLen
   \                     ??MT_UartProcessZToolData_17:
   \   000219   F0           MOVX    @DPTR,A
    295                  }
    296          
    297                  /* If number of bytes read is equal to data length, time to move on to FCS */
    298                  if ( tempDataLen == LEN_Token )
   \   00021A   E0           MOVX    A,@DPTR
   \   00021B   F8           MOV     R0,A
   \   00021C   90....       MOV     DPTR,#LEN_Token
   \   00021F   E0           MOVX    A,@DPTR
   \   000220   68           XRL     A,R0
   \   000221   6003         JZ      $+5
   \   000223   02....       LJMP    ??MT_UartProcessZToolData_0 & 0xFFFF
   \                     ??MT_UartProcessZToolData_15:
   \   000226   90....       MOV     DPTR,#state
   \   000229   7405         MOV     A,#0x5
   \   00022B   02....       LJMP    ??MT_UartProcessZToolData_2 & 0xFFFF
    299                      state = FCS_STATE;
    300          
    301                  break;
    302          
    303                case FCS_STATE:
    304          
    305                  FSC_Token = ch;
   \                     ??MT_UartProcessZToolData_14:
   \   00022E   85..82       MOV     DPL,?XSP + 0
   \   000231   85..83       MOV     DPH,?XSP + 1
   \   000234   E0           MOVX    A,@DPTR
   \   000235   90....       MOV     DPTR,#FSC_Token
   \   000238   12....       LCALL   ?Subroutine2 & 0xFFFF
    306          
    307                  /* Make sure it's correct */
    308                  if ((MT_UartCalcFCS ((uint8*)&pMsg->msg[0], MT_RPC_FRAME_HDR_SZ + LEN_Token) == FSC_Token))
   \                     ??CrossCallReturnLabel_6:
   \   00023B   2403         ADD     A,#0x3
   \   00023D   F9           MOV     R1,A
   \   00023E   12....       LCALL   ?Subroutine5 & 0xFFFF
   \                     ??CrossCallReturnLabel_12:
   \   000241   FA           MOV     R2,A
   \   000242   A3           INC     DPTR
   \   000243   E0           MOVX    A,@DPTR
   \   000244   FB           MOV     R3,A
   \   000245   12....       LCALL   ??MT_UartCalcFCS?relay
   \   000248   E9           MOV     A,R1
   \   000249   F8           MOV     R0,A
   \   00024A   90....       MOV     DPTR,#FSC_Token
   \   00024D   E0           MOVX    A,@DPTR
   \   00024E   68           XRL     A,R0
   \   00024F   90....       MOV     DPTR,#pMsg
   \   000252   700F         JNZ     ??MT_UartProcessZToolData_18
    309                  {
    310                    osal_msg_send( App_TaskID, (byte *)pMsg );
   \   000254                ; Setup parameters for call to function osal_msg_send
   \   000254   E0           MOVX    A,@DPTR
   \   000255   FA           MOV     R2,A
   \   000256   A3           INC     DPTR
   \   000257   E0           MOVX    A,@DPTR
   \   000258   FB           MOV     R3,A
   \   000259   90....       MOV     DPTR,#App_TaskID
   \   00025C   E0           MOVX    A,@DPTR
   \   00025D   F9           MOV     R1,A
   \   00025E   12....       LCALL   ??osal_msg_send?relay
   \   000261   8008         SJMP    ??MT_UartProcessZToolData_19
    311                  }
    312                  else
    313                  {
    314                    /* deallocate the msg */
    315                    osal_msg_deallocate ( (uint8 *)pMsg );
   \                     ??MT_UartProcessZToolData_18:
   \   000263                ; Setup parameters for call to function osal_msg_deallocate
   \   000263   E0           MOVX    A,@DPTR
   \   000264   FA           MOV     R2,A
   \   000265   A3           INC     DPTR
   \   000266   E0           MOVX    A,@DPTR
   \   000267   FB           MOV     R3,A
   \   000268   12....       LCALL   ??osal_msg_deallocate?relay
    316                  }
    317          
    318                  /* Reset the state, send or discard the buffers at this point */
    319                  state = SOP_STATE;
   \                     ??MT_UartProcessZToolData_19:
   \   00026B   90....       MOV     DPTR,#state
   \   00026E   E4           CLR     A
   \   00026F   02....       LJMP    ??MT_UartProcessZToolData_2 & 0xFFFF
   \   000272                REQUIRE _A_IEN0
   \   000272                REQUIRE WDCTL
    320          
    321                  break;
    322          
    323                default:
    324                 break;
    325              }
    326            }
    327          }

   \                                 In  segment BANKED_CODE, align 1, keep-with-next
   \                     ?Subroutine6:
   \   000000   12....       LCALL   ?Subroutine9 & 0xFFFF
   \                     ??CrossCallReturnLabel_20:
   \   000003   22           RET

   \                                 In  segment BANKED_CODE, align 1, keep-with-next
   \                     ?Subroutine9:
   \   000000   90....       MOV     DPTR,#pMsg
   \   000003   E0           MOVX    A,@DPTR
   \   000004   FA           MOV     R2,A
   \   000005   A3           INC     DPTR
   \   000006   E0           MOVX    A,@DPTR
   \   000007   F583         MOV     DPH,A
   \   000009   8A82         MOV     DPL,R2
   \   00000B   A3           INC     DPTR
   \   00000C   A3           INC     DPTR
   \   00000D   22           RET

   \                                 In  segment BANKED_CODE, align 1, keep-with-next
   \                     ?Subroutine5:
   \   000000   12....       LCALL   ?Subroutine8 & 0xFFFF
   \                     ??CrossCallReturnLabel_18:
   \   000003   22           RET

   \                                 In  segment BANKED_CODE, align 1, keep-with-next
   \                     ?Subroutine8:
   \   000000   90....       MOV     DPTR,#pMsg
   \   000003   E0           MOVX    A,@DPTR
   \   000004   12....       LCALL   ?Subroutine10 & 0xFFFF
   \                     ??CrossCallReturnLabel_24:
   \   000007   A3           INC     DPTR
   \   000008   A3           INC     DPTR
   \   000009   E0           MOVX    A,@DPTR
   \   00000A   22           RET

   \                                 In  segment BANKED_CODE, align 1, keep-with-next
   \                     ?Subroutine10:
   \   000000   F8           MOV     R0,A
   \   000001   A3           INC     DPTR
   \   000002                REQUIRE ??Subroutine11_0
   \   000002                ; // Fall through to label ??Subroutine11_0

   \                                 In  segment BANKED_CODE, align 1, keep-with-next
   \                     ??Subroutine11_0:
   \   000000   E0           MOVX    A,@DPTR
   \   000001   F583         MOV     DPH,A
   \   000003   8882         MOV     DPL,R0
   \   000005   22           RET

   \                                 In  segment BANKED_CODE, align 1, keep-with-next
   \                     ?Subroutine4:
   \   000000   12....       LCALL   ?Subroutine8 & 0xFFFF
   \                     ??CrossCallReturnLabel_17:
   \   000003   12....       LCALL   ?Subroutine10 & 0xFFFF
   \                     ??CrossCallReturnLabel_23:
   \   000006   A3           INC     DPTR
   \   000007   22           RET

   \                                 In  segment BANKED_CODE, align 1, keep-with-next
   \                     ?Subroutine3:
   \   000000   12....       LCALL   ?Subroutine9 & 0xFFFF
   \                     ??CrossCallReturnLabel_19:
   \   000003   12....       LCALL   ?Subroutine7 & 0xFFFF
   \                     ??CrossCallReturnLabel_16:
   \   000006   AA82         MOV     R2,DPL
   \   000008   AB83         MOV     R3,DPH
   \   00000A   EE           MOV     A,R6
   \   00000B   F9           MOV     R1,A
   \   00000C   12....       LCALL   ??HalUARTRead?relay
   \   00000F   22           RET

   \                                 In  segment BANKED_CODE, align 1, keep-with-next
   \                     ?Subroutine7:
   \   000000   E0           MOVX    A,@DPTR
   \   000001   28           ADD     A,R0
   \   000002   FA           MOV     R2,A
   \   000003   A3           INC     DPTR
   \   000004   E0           MOVX    A,@DPTR
   \   000005   3400         ADDC    A,#0x0
   \   000007   8A82         MOV     DPL,R2
   \   000009   F583         MOV     DPH,A
   \   00000B   A3           INC     DPTR
   \   00000C   A3           INC     DPTR
   \   00000D   A3           INC     DPTR
   \   00000E   22           RET

   \                                 In  segment BANKED_CODE, align 1, keep-with-next
   \                     ?Subroutine2:
   \   000000   F0           MOVX    @DPTR,A
   \   000001                ; Setup parameters for call to function osal_msg_allocate
   \   000001                ; Setup parameters for call to function MT_UartCalcFCS
   \   000001   90....       MOV     DPTR,#LEN_Token
   \   000004   E0           MOVX    A,@DPTR
   \   000005   22           RET

   \                                 In  segment BANK_RELAYS, align 1
   \                     ??MT_UartInit?relay:
   \   000000   12....       LCALL   ?BDISPATCH
   \   000003   ......       DC24    MT_UartInit

   \                                 In  segment BANK_RELAYS, align 1
   \                     ??MT_UartRegisterTaskID?relay:
   \   000000   12....       LCALL   ?BDISPATCH
   \   000003   ......       DC24    MT_UartRegisterTaskID

   \                                 In  segment BANK_RELAYS, align 1
   \                     ??MT_UartCalcFCS?relay:
   \   000000   12....       LCALL   ?BDISPATCH
   \   000003   ......       DC24    MT_UartCalcFCS

   \                                 In  segment BANK_RELAYS, align 1
   \                     ??MT_UartProcessZToolData?relay:
   \   000000   12....       LCALL   ?BDISPATCH
   \   000003   ......       DC24    MT_UartProcessZToolData

   \                                 In  segment XDATA_ROM_C, align 1
   \                     `?<Constant "OKC">`:
   \   000000   4F4B43       DB 4FH, 4BH, 43H

   \                                 In  segment XDATA_ROM_C, align 1
   \                     `?<Constant "W@">`:
   \   000000   574000       DB "W@"
    328          
    329          #if defined (ZAPP_P1) || defined (ZAPP_P2)
    330          /***************************************************************************************************
    331           * @fn      MT_UartProcessZAppData
    332           *
    333           * @brief   | SOP | CMD  |   Data Length   | FSC  |
    334           *          |  1  |  2   |       1         |  1   |
    335           *
    336           *          Parses the data and determine either is SPI or just simply serial data
    337           *          then send the data to correct place (MT or APP)
    338           *
    339           * @param   port    - UART port
    340           *          event   - Event that causes the callback
    341           *
    342           *
    343           * @return  None
    344           ***************************************************************************************************/
    345          void MT_UartProcessZAppData ( uint8 port, uint8 event )
    346          {
    347          
    348            osal_event_hdr_t  *msg_ptr;
    349            uint16 length = 0;
    350            uint16 rxBufLen  = Hal_UART_RxBufLen(MT_UART_DEFAULT_PORT);
    351          
    352            /*
    353               If maxZAppBufferLength is 0 or larger than current length
    354               the entire length of the current buffer is returned.
    355            */
    356            if ((MT_UartMaxZAppBufLen != 0) && (MT_UartMaxZAppBufLen <= rxBufLen))
    357            {
    358              length = MT_UartMaxZAppBufLen;
    359            }
    360            else
    361            {
    362              length = rxBufLen;
    363            }
    364          
    365            /* Verify events */
    366            if (event == HAL_UART_TX_FULL)
    367            {
    368              // Do something when TX if full
    369              return;
    370            }
    371          
    372            if (event & ( HAL_UART_RX_FULL | HAL_UART_RX_ABOUT_FULL | HAL_UART_RX_TIMEOUT))
    373            {
    374              if ( App_TaskID )
    375              {
    376                /*
    377                   If Application is ready to receive and there is something
    378                   in the Rx buffer then send it up
    379                */
    380                if ((MT_UartZAppRxStatus == MT_UART_ZAPP_RX_READY ) && (length != 0))
    381                {
    382                  /* Disable App flow control until it processes the current data */
    383                   MT_UartAppFlowControl (MT_UART_ZAPP_RX_NOT_READY);
    384          
    385                  /* 2 more bytes are added, 1 for CMD type, other for length */
    386                  msg_ptr = (osal_event_hdr_t *)osal_msg_allocate( length + sizeof(osal_event_hdr_t) );
    387                  if ( msg_ptr )
    388                  {
    389                    msg_ptr->event = SPI_INCOMING_ZAPP_DATA;
    390                    msg_ptr->status = length;
    391          
    392                    /* Read the data of Rx buffer */
    393                    HalUARTRead( MT_UART_DEFAULT_PORT, (uint8 *)(msg_ptr + 1), length );
    394          
    395                    /* Send the raw data to application...or where ever */
    396                    osal_msg_send( App_TaskID, (uint8 *)msg_ptr );
    397                  }
    398                }
    399              }
    400            }
    401          }
    402          
    403          /***************************************************************************************************
    404           * @fn      SPIMgr_ZAppBufferLengthRegister
    405           *
    406           * @brief
    407           *
    408           * @param   maxLen - Max Length that the application wants at a time
    409           *
    410           * @return  None
    411           *
    412           ***************************************************************************************************/
    413          void MT_UartZAppBufferLengthRegister ( uint16 maxLen )
    414          {
    415            /* If the maxLen is larger than the RX buff, something is not right */
    416            if (maxLen <= MT_UART_DEFAULT_MAX_RX_BUFF)
    417              MT_UartMaxZAppBufLen = maxLen;
    418            else
    419              MT_UartMaxZAppBufLen = 1; /* default is 1 byte */
    420          }
    421          
    422          /***************************************************************************************************
    423           * @fn      SPIMgr_AppFlowControl
    424           *
    425           * @brief
    426           *
    427           * @param   status - ready to send or not
    428           *
    429           * @return  None
    430           *
    431           ***************************************************************************************************/
    432          void MT_UartAppFlowControl ( bool status )
    433          {
    434          
    435            /* Make sure only update if needed */
    436            if (status != MT_UartZAppRxStatus )
    437            {
    438              MT_UartZAppRxStatus = status;
    439            }
    440          
    441            /* App is ready to read again, ProcessZAppData have to be triggered too */
    442            if (status == MT_UART_ZAPP_RX_READY)
    443            {
    444              MT_UartProcessZAppData (MT_UART_DEFAULT_PORT, HAL_UART_RX_TIMEOUT );
    445            }
    446          
    447          }
    448          
    449          #endif //ZAPP
    450          
    451          /***************************************************************************************************
    452          ***************************************************************************************************/

   Maximum stack usage in bytes:

     Function                 ISTACK PSTACK XSTACK
     --------                 ------ ------ ------
     MT_UartCalcFCS               2      0     14
     MT_UartInit                  2      0     29
       -> HalUARTOpen             4      0     58
     MT_UartProcessZToolData      2      0     14
       -> Hal_UART_RxBufLen       0      0     28
       -> HalUARTRead             0      0     28
       -> HalUARTWrite            0      0     28
       -> HalUARTWrite            0      0     28
       -> osal_msg_allocate       0      0     28
       -> Hal_UART_RxBufLen       0      0     28
       -> HalUARTRead             0      0     28
       -> HalUARTRead             0      0     28
       -> MT_UartCalcFCS          0      0     28
       -> osal_msg_send           0      0     28
       -> osal_msg_deallocate     0      0     28
     MT_UartRegisterTaskID        2      0      0


   Segment part sizes:

     Function/Label                  Bytes
     --------------                  -----
     _A_IEN0                            1
     WDCTL                              1
     App_TaskID                         1
     state                              1
     CMD_Token                          2
     LEN_Token                          1
     FSC_Token                          1
     pMsg                               2
     tempDataLen                        1
     CommitiFlag                        1
     MT_UartInit                      108
     ?Subroutine0                       7
     ?Subroutine1                       8
     MT_UartRegisterTaskID             11
     MT_UartCalcFCS                    33
     MT_UartProcessZToolData          626
     ?Subroutine6                       4
     ?Subroutine9                      14
     ?Subroutine5                       4
     ?Subroutine8                      11
     ?Subroutine10                      2
     ??Subroutine11_0                   6
     ?Subroutine4                       8
     ?Subroutine3                      16
     ?Subroutine7                      15
     ?Subroutine2                       6
     ??MT_UartInit?relay                6
     ??MT_UartRegisterTaskID?relay      6
     ??MT_UartCalcFCS?relay             6
     ??MT_UartProcessZToolData?relay    6
     ?<Constant "OKC">                  3
     ?<Constant "W@">                   3

 
 879 bytes in segment BANKED_CODE
  24 bytes in segment BANK_RELAYS
   2 bytes in segment SFR_AN
   6 bytes in segment XDATA_ROM_C
  10 bytes in segment XDATA_Z
 
 903 bytes of CODE  memory
   6 bytes of CONST memory
   0 bytes of DATA  memory (+ 2 bytes shared)
  10 bytes of XDATA memory

Errors: none
Warnings: none
