###############################################################################
#                                                                             #
# IAR C/C++ Compiler V8.10.3.10338/W32 for 8051         26/Aug/2016  18:41:06 #
# Copyright 2004-2011 IAR Systems AB.                                         #
#                                                                             #
#    Core               =  plain                                              #
#    Code model         =  banked                                             #
#    Data model         =  large                                              #
#    Calling convention =  xdata reentrant                                    #
#    Constant location  =  data_rom                                           #
#    Dptr setup         =  1,16                                               #
#    Source file        =  C:\Users\icecreamco\Desktop\GAP-1.0\Coordinator\Pr #
#                          ojects\zstack\Samples\SampleApp\Source\SampleApp.c #
#    Command line       =  -f C:\Users\icecreamco\Desktop\GAP-1.0\Coordinator #
#                          \Projects\zstack\Samples\SampleApp\CC2530DB\..\..\ #
#                          ..\Tools\CC2530DB\f8wCoord.cfg (-DCPU32MHZ         #
#                          -DROOT=__near_func -DMAC_CFG_APP_PENDING_QUEUE=TRU #
#                          E -DMAC_CFG_TX_DATA_MAX=5 -DMAC_CFG_TX_MAX=8       #
#                          -DMAC_CFG_RX_MAX=5 -DZDO_COORDINATOR -DRTR_NWK)    #
#                          -f C:\Users\icecreamco\Desktop\GAP-1.0\Coordinator #
#                          \Projects\zstack\Samples\SampleApp\CC2530DB\..\..\ #
#                          ..\Tools\CC2530DB\f8wConfig.cfg (-DZIGBEEPRO       #
#                          -DSECURE=0 -DZG_SECURE_DYNAMIC=0 -DREFLECTOR       #
#                          -DDEFAULT_CHANLIST=0x00000800                      #
#                          -DZDAPP_CONFIG_PAN_ID=0x0101                       #
#                          -DNWK_START_DELAY=100 -DEXTENDED_JOINING_RANDOM_MA #
#                          SK=0x007F -DBEACON_REQUEST_DELAY=100               #
#                          -DBEACON_REQ_DELAY_MASK=0x00FF                     #
#                          -DLINK_STATUS_JITTER_MASK=0x007F                   #
#                          -DROUTE_EXPIRY_TIME=30 -DAPSC_ACK_WAIT_DURATION_PO #
#                          LLED=3000 -DNWK_INDIRECT_MSG_TIMEOUT=7             #
#                          -DMAX_RREQ_ENTRIES=8 -DAPSC_MAX_FRAME_RETRIES=3    #
#                          -DNWK_MAX_DATA_RETRIES=2                           #
#                          -DMAX_POLL_FAILURE_RETRIES=2 -DMAX_BCAST=9         #
#                          -DAPS_MAX_GROUPS=16 -DMAX_RTG_ENTRIES=40           #
#                          -DNWK_MAX_BINDING_ENTRIES=4                        #
#                          -DMAX_BINDING_CLUSTER_IDS=4 "-DDEFAULT_KEY={0x01,  #
#                          0x03, 0x05, 0x07, 0x09, 0x0B, 0x0D, 0x0F, 0x00,    #
#                          0x02, 0x04, 0x06, 0x08, 0x0A, 0x0C, 0x0D}"         #
#                          -DMAC_MAX_FRAME_SIZE=116                           #
#                          -DZDNWKMGR_MIN_TRANSMISSIONS=20 "-DCONST=const     #
#                          __code" -DGENERIC=__generic                        #
#                          -DRFD_RCVC_ALWAYS_ON=FALSE -DPOLL_RATE=1000        #
#                          -DQUEUED_POLL_RATE=100 -DRESPONSE_POLL_RATE=100)   #
#                          -DREJOIN_POLL_RATE=440 C:\Users\icecreamco\Desktop #
#                          \GAP-1.0\Coordinator\Projects\zstack\Samples\Sampl #
#                          eApp\Source\SampleApp.c -D ZTOOL_P1 -D             #
#                          HAL_UART=TRUE -D AUTO_RESET -D xMT_TASK -D         #
#                          xMT_SYS_FUNC -D xMT_ZDO_FUNC -D                    #
#                          xLCD_SUPPORTED=DEBUG -lC                           #
#                          C:\Users\icecreamco\Desktop\GAP-1.0\Coordinator\Pr #
#                          ojects\zstack\Samples\SampleApp\CC2530DB\Coordinat #
#                          orEB\List\ -lA C:\Users\icecreamco\Desktop\GAP-1.0 #
#                          \Coordinator\Projects\zstack\Samples\SampleApp\CC2 #
#                          530DB\CoordinatorEB\List\ --diag_suppress          #
#                          Pe001,Pa010 -o C:\Users\icecreamco\Desktop\GAP-1.0 #
#                          \Coordinator\Projects\zstack\Samples\SampleApp\CC2 #
#                          530DB\CoordinatorEB\Obj\ -e --no_code_motion       #
#                          --debug --core=plain --dptr=16,1                   #
#                          --data_model=large --code_model=banked             #
#                          --calling_convention=xdata_reentrant               #
#                          --place_constants=data_rom --nr_virtual_regs 16    #
#                          -I C:\Users\icecreamco\Desktop\GAP-1.0\Coordinator #
#                          \Projects\zstack\Samples\SampleApp\CC2530DB\ -I    #
#                          C:\Users\icecreamco\Desktop\GAP-1.0\Coordinator\Pr #
#                          ojects\zstack\Samples\SampleApp\CC2530DB\..\Source #
#                          \ -I C:\Users\icecreamco\Desktop\GAP-1.0\Coordinat #
#                          or\Projects\zstack\Samples\SampleApp\CC2530DB\..\. #
#                          .\..\ZMain\TI2530DB\ -I C:\Users\icecreamco\Deskto #
#                          p\GAP-1.0\Coordinator\Projects\zstack\Samples\Samp #
#                          leApp\CC2530DB\..\..\..\..\..\Components\hal\inclu #
#                          de\ -I C:\Users\icecreamco\Desktop\GAP-1.0\Coordin #
#                          ator\Projects\zstack\Samples\SampleApp\CC2530DB\.. #
#                          \..\..\..\..\Components\hal\target\CC2530EB\ -I    #
#                          C:\Users\icecreamco\Desktop\GAP-1.0\Coordinator\Pr #
#                          ojects\zstack\Samples\SampleApp\CC2530DB\..\..\..\ #
#                          ..\..\Components\mac\include\ -I                   #
#                          C:\Users\icecreamco\Desktop\GAP-1.0\Coordinator\Pr #
#                          ojects\zstack\Samples\SampleApp\CC2530DB\..\..\..\ #
#                          ..\..\Components\mac\high_level\ -I                #
#                          C:\Users\icecreamco\Desktop\GAP-1.0\Coordinator\Pr #
#                          ojects\zstack\Samples\SampleApp\CC2530DB\..\..\..\ #
#                          ..\..\Components\mac\low_level\srf04\ -I           #
#                          C:\Users\icecreamco\Desktop\GAP-1.0\Coordinator\Pr #
#                          ojects\zstack\Samples\SampleApp\CC2530DB\..\..\..\ #
#                          ..\..\Components\mac\low_level\srf04\single_chip\  #
#                          -I C:\Users\icecreamco\Desktop\GAP-1.0\Coordinator #
#                          \Projects\zstack\Samples\SampleApp\CC2530DB\..\..\ #
#                          ..\..\..\Components\mt\ -I                         #
#                          C:\Users\icecreamco\Desktop\GAP-1.0\Coordinator\Pr #
#                          ojects\zstack\Samples\SampleApp\CC2530DB\..\..\..\ #
#                          ..\..\Components\osal\include\ -I                  #
#                          C:\Users\icecreamco\Desktop\GAP-1.0\Coordinator\Pr #
#                          ojects\zstack\Samples\SampleApp\CC2530DB\..\..\..\ #
#                          ..\..\Components\services\saddr\ -I                #
#                          C:\Users\icecreamco\Desktop\GAP-1.0\Coordinator\Pr #
#                          ojects\zstack\Samples\SampleApp\CC2530DB\..\..\..\ #
#                          ..\..\Components\services\sdata\ -I                #
#                          C:\Users\icecreamco\Desktop\GAP-1.0\Coordinator\Pr #
#                          ojects\zstack\Samples\SampleApp\CC2530DB\..\..\..\ #
#                          ..\..\Components\stack\af\ -I                      #
#                          C:\Users\icecreamco\Desktop\GAP-1.0\Coordinator\Pr #
#                          ojects\zstack\Samples\SampleApp\CC2530DB\..\..\..\ #
#                          ..\..\Components\stack\nwk\ -I                     #
#                          C:\Users\icecreamco\Desktop\GAP-1.0\Coordinator\Pr #
#                          ojects\zstack\Samples\SampleApp\CC2530DB\..\..\..\ #
#                          ..\..\Components\stack\sapi\ -I                    #
#                          C:\Users\icecreamco\Desktop\GAP-1.0\Coordinator\Pr #
#                          ojects\zstack\Samples\SampleApp\CC2530DB\..\..\..\ #
#                          ..\..\Components\stack\sec\ -I                     #
#                          C:\Users\icecreamco\Desktop\GAP-1.0\Coordinator\Pr #
#                          ojects\zstack\Samples\SampleApp\CC2530DB\..\..\..\ #
#                          ..\..\Components\stack\sys\ -I                     #
#                          C:\Users\icecreamco\Desktop\GAP-1.0\Coordinator\Pr #
#                          ojects\zstack\Samples\SampleApp\CC2530DB\..\..\..\ #
#                          ..\..\Components\stack\zdo\ -I                     #
#                          C:\Users\icecreamco\Desktop\GAP-1.0\Coordinator\Pr #
#                          ojects\zstack\Samples\SampleApp\CC2530DB\..\..\..\ #
#                          ..\..\Components\zmac\ -I                          #
#                          C:\Users\icecreamco\Desktop\GAP-1.0\Coordinator\Pr #
#                          ojects\zstack\Samples\SampleApp\CC2530DB\..\..\..\ #
#                          ..\..\Components\zmac\f8w\ -Ohz                    #
#                          --require_prototypes                               #
#    List file          =  C:\Users\icecreamco\Desktop\GAP-1.0\Coordinator\Pr #
#                          ojects\zstack\Samples\SampleApp\CC2530DB\Coordinat #
#                          orEB\List\SampleApp.lst                            #
#    Object file        =  C:\Users\icecreamco\Desktop\GAP-1.0\Coordinator\Pr #
#                          ojects\zstack\Samples\SampleApp\CC2530DB\Coordinat #
#                          orEB\Obj\SampleApp.r51                             #
#                                                                             #
#                                                                             #
###############################################################################

C:\Users\icecreamco\Desktop\GAP-1.0\Coordinator\Projects\zstack\Samples\SampleApp\Source\SampleApp.c
      1          /**************************************************************************************************
      2            Filename:       SampleApp.c
      3            Revised:        $Date: 2009-03-18 15:56:27 -0700 (Wed, 18 Mar 2009) $
      4            Revision:       $Revision: 19453 $
      5          
      6            Description:    Sample Application (no Profile).
      7          
      8          
      9            Copyright 2007 Texas Instruments Incorporated. All rights reserved.
     10          
     11            IMPORTANT: Your use of this Software is limited to those specific rights
     12            granted under the terms of a software license agreement between the user
     13            who downloaded the software, his/her employer (which must be your employer)
     14            and Texas Instruments Incorporated (the "License").  You may not use this
     15            Software unless you agree to abide by the terms of the License. The License
     16            limits your use, and you acknowledge, that the Software may not be modified,
     17            copied or distributed unless embedded on a Texas Instruments microcontroller
     18            or used solely and exclusively in conjunction with a Texas Instruments radio
     19            frequency transceiver, which is integrated into your product.  Other than for
     20            the foregoing purpose, you may not use, reproduce, copy, prepare derivative
     21            works of, modify, distribute, perform, display or sell this Software and/or
     22            its documentation for any purpose.
     23          
     24            YOU FURTHER ACKNOWLEDGE AND AGREE THAT THE SOFTWARE AND DOCUMENTATION ARE
     25            PROVIDED AS IS?WITHOUT WARRANTY OF ANY KIND, EITHER EXPRESS OR IMPLIED,
     26            INCLUDING WITHOUT LIMITATION, ANY WARRANTY OF MERCHANTABILITY, TITLE,
     27            NON-INFRINGEMENT AND FITNESS FOR A PARTICULAR PURPOSE. IN NO EVENT SHALL
     28            TEXAS INSTRUMENTS OR ITS LICENSORS BE LIABLE OR OBLIGATED UNDER CONTRACT,
     29            NEGLIGENCE, STRICT LIABILITY, CONTRIBUTION, BREACH OF WARRANTY, OR OTHER
     30            LEGAL EQUITABLE THEORY ANY DIRECT OR INDIRECT DAMAGES OR EXPENSES
     31            INCLUDING BUT NOT LIMITED TO ANY INCIDENTAL, SPECIAL, INDIRECT, PUNITIVE
     32            OR CONSEQUENTIAL DAMAGES, LOST PROFITS OR LOST DATA, COST OF PROCUREMENT
     33            OF SUBSTITUTE GOODS, TECHNOLOGY, SERVICES, OR ANY CLAIMS BY THIRD PARTIES
     34            (INCLUDING BUT NOT LIMITED TO ANY DEFENSE THEREOF), OR OTHER SIMILAR COSTS.
     35          
     36            Should you have any questions regarding your right to use this Software,
     37            contact Texas Instruments Incorporated at www.TI.com.
     38          **************************************************************************************************/
     39          
     40          /*********************************************************************
     41            This application isn't intended to do anything useful, it is
     42            intended to be a simple example of an application's structure.
     43          
     44            This application sends it's messages either as broadcast or
     45            broadcast filtered group messages.  The other (more normal)
     46            message addressing is unicast.  Most of the other sample
     47            applications are written to support the unicast message model.
     48          
     49            Key control:
     50              SW1:  Sends a flash command to all devices in Group 1.
     51              SW2:  Adds/Removes (toggles) this device in and out
     52                    of Group 1.  This will enable and disable the
     53                    reception of the flash command.
     54          *********************************************************************/
     55          
     56          /*********************************************************************
     57           * INCLUDES
     58           */
     59          #include "OSAL.h"
     60          #include "OSAL_Clock.h"
     61          #include "OSAL_Timers.h"
     62          #include "ZGlobals.h"
     63          #include "mac_radio.h"
     64          #include "AF.h"
     65          #include "aps_groups.h"
     66          #include "ZDApp.h"
     67          
     68          #include "SampleApp.h"
     69          #include "SampleAppHw.h"
     70          
     71          #include "OnBoard.h"
     72          
     73          /* HAL */
     74          #include "hal_lcd.h"
     75          #include "hal_led.h"
     76          #include "hal_key.h"
     77          
     78          #include "MT_UART.h"
     79          #include "hal_uart.h"
     80          #include "Mac_low_level.h"
     81          
     82          /*********************************************************************
     83           * MACROS
     84           */
     85          
     86          /*********************************************************************
     87           * CONSTANTS
     88           */
     89          
     90          /*********************************************************************
     91           * TYPEDEFS
     92           */
     93          
     94          /*********************************************************************
     95           * GLOBAL VARIABLES
     96           */
     97          
     98          // This list should be filled with Application specific Cluster IDs.

   \                                 In  segment XDATA_ROM_C, align 1
     99          const cId_t SampleApp_ClusterList[SAMPLEAPP_MAX_CLUSTERS] =
   \                     SampleApp_ClusterList:
   \   000000   0100         DW 1
   \   000002   0200         DW 2
    100          {
    101            SAMPLEAPP_PERIODIC_CLUSTERID,
    102            SAMPLEAPP_FLASH_CLUSTERID
    103          };
    104          

   \                                 In  segment XDATA_ROM_C, align 1
    105          const SimpleDescriptionFormat_t SampleApp_SimpleDesc =
   \                     SampleApp_SimpleDesc:
   \   000000   14           DB 20
   \   000001   080F         DW 3848
   \   000003   0100         DW 1
   \   000005   00           DB 0
   \   000006   02           DB 2
   \   000007   ....         DW SampleApp_ClusterList
   \   000009   02           DB 2
   \   00000A   ....         DW SampleApp_ClusterList
    106          {
    107            SAMPLEAPP_ENDPOINT,              //  int Endpoint;
    108            SAMPLEAPP_PROFID,                //  uint16 AppProfId[2];
    109            SAMPLEAPP_DEVICEID,              //  uint16 AppDeviceId[2];
    110            SAMPLEAPP_DEVICE_VERSION,        //  int   AppDevVer:4;
    111            SAMPLEAPP_FLAGS,                 //  int   AppFlags:4;
    112            SAMPLEAPP_MAX_CLUSTERS,          //  uint8  AppNumInClusters;
    113            (cId_t *)SampleApp_ClusterList,  //  uint8 *pAppInClusterList;
    114            SAMPLEAPP_MAX_CLUSTERS,          //  uint8  AppNumInClusters;
    115            (cId_t *)SampleApp_ClusterList   //  uint8 *pAppInClusterList;
    116          };
    117          
    118          // This is the Endpoint/Interface description.  It is defined here, but
    119          // filled-in in SampleApp_Init().  Another way to go would be to fill
    120          // in the structure here and make it a "const" (in code space).  The
    121          // way it's defined in this sample app it is define in RAM.

   \                                 In  segment XDATA_Z, align 1, keep-with-next
    122          endPointDesc_t SampleApp_epDesc;
   \                     SampleApp_epDesc:
   \   000000                DS 6
   \   000006                REQUIRE __INIT_XDATA_Z
    123          
    124          /*********************************************************************
    125           * EXTERNAL VARIABLES
    126           */
    127          
    128          /*********************************************************************
    129           * EXTERNAL FUNCTIONS
    130           */
    131          
    132          /*********************************************************************
    133           * LOCAL VARIABLES
    134           */

   \                                 In  segment XDATA_Z, align 1, keep-with-next
    135          uint8 SampleApp_TaskID;   // Task ID for internal task/event processing
   \                     SampleApp_TaskID:
   \   000000                DS 1
   \   000001                REQUIRE __INIT_XDATA_Z
    136                                    // This variable will be received when
    137                                    // SampleApp_Init() is called.

   \                                 In  segment XDATA_Z, align 1, keep-with-next
    138          devStates_t SampleApp_NwkState;
   \                     SampleApp_NwkState:
   \   000000                DS 1
   \   000001                REQUIRE __INIT_XDATA_Z
    139          

   \                                 In  segment XDATA_Z, align 1, keep-with-next
    140          uint8 SampleApp_TransID;  // This is the unique message ID (counter)
   \                     SampleApp_TransID:
   \   000000                DS 1
   \   000001                REQUIRE __INIT_XDATA_Z
    141          

   \                                 In  segment XDATA_Z, align 1, keep-with-next
    142          afAddrType_t SampleApp_Periodic_DstAddr;
   \                     SampleApp_Periodic_DstAddr:
   \   000000                DS 12
   \   00000C                REQUIRE __INIT_XDATA_Z

   \                                 In  segment XDATA_Z, align 1, keep-with-next
    143          afAddrType_t SampleApp_Flash_DstAddr;
   \                     SampleApp_Flash_DstAddr:
   \   000000                DS 12
   \   00000C                REQUIRE __INIT_XDATA_Z

   \                                 In  segment XDATA_Z, align 1, keep-with-next
    144          afAddrType_t SampleApp_P2P_DstAddr;
   \                     SampleApp_P2P_DstAddr:
   \   000000                DS 12
   \   00000C                REQUIRE __INIT_XDATA_Z
    145          

   \                                 In  segment XDATA_Z, align 1, keep-with-next
    146          aps_Group_t SampleApp_Group;
   \                     SampleApp_Group:
   \   000000                DS 18
   \   000012                REQUIRE __INIT_XDATA_Z
    147          

   \                                 In  segment XDATA_Z, align 1, keep-with-next
    148          uint8 SampleAppPeriodicCounter = 0;
   \                     SampleAppPeriodicCounter:
   \   000000                DS 1
   \   000001                REQUIRE __INIT_XDATA_Z

   \                                 In  segment XDATA_Z, align 1, keep-with-next
    149          uint8 SampleAppFlashCounter = 0;
   \                     SampleAppFlashCounter:
   \   000000                DS 1
   \   000001                REQUIRE __INIT_XDATA_Z
    150          
    151          //*****************自定义变量*************************************************//

   \                                 In  segment XDATA_Z, align 1, keep-with-next
    152          uint8 Count=0;                    //节点个数计数
   \                     Count:
   \   000000                DS 1
   \   000001                REQUIRE __INIT_XDATA_Z
    153          #define ABLen 10                  //地址分类的个数

   \                                 In  segment XDATA_I, align 1, keep-with-next
    154          uint32 sleeptime=3600000;         //数据间隔
   \                     sleeptime:
   \   000000                DS 4
   \   000004                REQUIRE `?<Initializer for sleeptime>`
   \   000004                REQUIRE __INIT_XDATA_I
    155          #define Maxtime 64000             //每次最大定时时间

   \                                 In  segment XDATA_Z, align 1, keep-with-next
    156          uint8 DataFlag[30]={0};           //节点在线标志位
   \                     DataFlag:
   \   000000                DS 30
   \   00001E                REQUIRE __INIT_XDATA_Z

   \                                 In  segment XDATA_Z, align 1, keep-with-next
    157          uint8 OnlineDEV[100]={0};         //节点在线表
   \                     OnlineDEV:
   \   000000                DS 100
   \   000064                REQUIRE __INIT_XDATA_Z

   \                                 In  segment XDATA_Z, align 1, keep-with-next
    158          uint8 Timer_Flag=0;               //计算总定时时间标志位
   \                     Timer_Flag:
   \   000000                DS 1
   \   000001                REQUIRE __INIT_XDATA_Z

   \                                 In  segment XDATA_Z, align 1, keep-with-next
    159          uint8 T_Online_Flag=0;            //发送在线表标志位
   \                     T_Online_Flag:
   \   000000                DS 1
   \   000001                REQUIRE __INIT_XDATA_Z

   \                                 In  segment XDATA_Z, align 1, keep-with-next
    160          uint32 Timeout=0;                 //总定时时间
   \                     Timeout:
   \   000000                DS 4
   \   000004                REQUIRE __INIT_XDATA_Z

   \                                 In  segment XDATA_Z, align 1, keep-with-next
    161          uint8 TimeCount=0;                //最大定时时间的个数
   \                     TimeCount:
   \   000000                DS 1
   \   000001                REQUIRE __INIT_XDATA_Z

   \                                 In  segment XDATA_Z, align 1, keep-with-next
    162          uint16 Time_ms=0;                 //每次定时的时间
   \                     Time_ms:
   \   000000                DS 2
   \   000002                REQUIRE __INIT_XDATA_Z
    163          

   \                                 In  segment XDATA_I, align 1, keep-with-next
    164          uint8 Mode='C';                   //工作模式 'C':正常 'M':调试
   \                     Mode:
   \   000000                DS 1
   \   000001                REQUIRE `?<Initializer for Mode>`
   \   000001                REQUIRE __INIT_XDATA_I

   \                                 In  segment XDATA_I, align 1, keep-with-next
    165          uint8 WaitFlag=1;                 //串口数据等待标志
   \                     WaitFlag:
   \   000000                DS 1
   \   000001                REQUIRE `?<Initializer for WaitFlag>`
   \   000001                REQUIRE __INIT_XDATA_I

   \                                 In  segment XDATA_Z, align 1, keep-with-next
    166          uint8 TX_2=0;                     //第二次在线表发送标志
   \                     TX_2:
   \   000000                DS 1
   \   000001                REQUIRE __INIT_XDATA_Z

   \                                 In  segment XDATA_Z, align 1, keep-with-next
    167          uint8 LinkWait=0;                 //建网等待标志
   \                     LinkWait:
   \   000000                DS 1
   \   000001                REQUIRE __INIT_XDATA_Z

   \                                 In  segment XDATA_Z, align 1, keep-with-next
    168          uint8 LinkCount=0;                //建网等待计数
   \                     LinkCount:
   \   000000                DS 1
   \   000001                REQUIRE __INIT_XDATA_Z
    169          
    170          /*********************************************************************
    171           * LOCAL FUNCTIONS
    172           */
    173          void SampleApp_HandleKeys( uint8 shift, uint8 keys );
    174          void SampleApp_MessageMSGCB( afIncomingMSGPacket_t *pckt );
    175          void SampleApp_SendPeriodicMessage(uint8 ADR,uint8 select);
    176          void SampleApp_SendFlashMessage( uint16 flashTime );
    177          void SampleApp_Send_P2P_Message(uint8 dat1,uint8 dat2);
    178          
    179          void Delayus(void);                //10us延时
    180          void Delayms(uint16 Time);         //n ms延时
    181          int isDigit(uint8 *x,uint8 n);     //判断字符串是否为纯数字 是返回1 否则返回0
    182          /*********************************************************************
    183           * NETWORK LAYER CALLBACKS
    184           */
    185          
    186          /*********************************************************************
    187           * PUBLIC FUNCTIONS
    188           */
    189          
    190          /*********************************************************************
    191           * @fn      SampleApp_Init
    192           *
    193           * @brief   Initialization function for the Generic App Task.
    194           *          This is called during initialization and should contain
    195           *          any application specific initialization (ie. hardware
    196           *          initialization/setup, table initialization, power up
    197           *          notificaiton ... ).
    198           *
    199           * @param   task_id - the ID assigned by OSAL.  This ID should be
    200           *                    used to send messages and set timers.
    201           *
    202           * @return  none
    203           */

   \                                 In  segment BANKED_CODE, align 1, keep-with-next
    204          void SampleApp_Init( uint8 task_id )
   \                     SampleApp_Init:
    205          {
   \   000000   74F5         MOV     A,#-0xb
   \   000002   12....       LCALL   ?BANKED_ENTER_XDATA
   \   000005                ; Saved register size: 11
   \   000005                ; Auto size: 0
   \   000005   E9           MOV     A,R1
   \   000006   FE           MOV     R6,A
    206            SampleApp_TaskID = task_id;
   \   000007   90....       MOV     DPTR,#SampleApp_TaskID
   \   00000A   F0           MOVX    @DPTR,A
    207            SampleApp_NwkState = DEV_INIT;
   \   00000B   90....       MOV     DPTR,#SampleApp_NwkState
   \   00000E   7401         MOV     A,#0x1
   \   000010   F0           MOVX    @DPTR,A
    208            SampleApp_TransID = 0;
   \   000011   90....       MOV     DPTR,#SampleApp_TransID
   \   000014   E4           CLR     A
   \   000015   F0           MOVX    @DPTR,A
    209          
    210          //*******************设置无线功率*********************************************//
    211          //  macRadioSetTxPower(0XF5);  
    212            
    213          //*******************初始化并开启串口*****************************************//
    214            MT_UartInit ();
   \   000016                ; Setup parameters for call to function MT_UartInit
   \   000016   12....       LCALL   ??MT_UartInit?relay
    215            MT_UartRegisterTaskID( task_id);
   \   000019                ; Setup parameters for call to function MT_UartRegisterTaskID
   \   000019   EE           MOV     A,R6
   \   00001A   F9           MOV     R1,A
   \   00001B   12....       LCALL   ??MT_UartRegisterTaskID?relay
    216          
    217          //*******************参数初始化***********************************************//  
    218            Timer_Flag=0;                     //计算总定时时间标志位清零 不启动
   \   00001E   90....       MOV     DPTR,#Timer_Flag
   \   000021   E4           CLR     A
   \   000022   F0           MOVX    @DPTR,A
    219            T_Online_Flag=0;                  //发送在线表标志位清零 不发送
   \   000023   90....       MOV     DPTR,#T_Online_Flag
   \   000026   F0           MOVX    @DPTR,A
    220            WaitFlag=1;                       //串口数据等待标志置1 等待
   \   000027   90....       MOV     DPTR,#WaitFlag
   \   00002A   04           INC     A
   \   00002B   F0           MOVX    @DPTR,A
    221            TX_2=0;                           //第二次发送在线表标志位清零 不发送
   \   00002C   90....       MOV     DPTR,#TX_2
   \   00002F   E4           CLR     A
   \   000030   F0           MOVX    @DPTR,A
    222            LinkWait=0;                       //建网等待标志位清零 不等待
   \   000031   90....       MOV     DPTR,#LinkWait
   \   000034   F0           MOVX    @DPTR,A
    223            LinkCount=0;                      //建网等待计数清零
   \   000035   90....       MOV     DPTR,#LinkCount
   \   000038   F0           MOVX    @DPTR,A
    224            
    225            // Device hardware initialization can be added here or in main() (Zmain.c).
    226            // If the hardware is application specific - add it here.
    227            // If the hardware is other parts of the device add it in main().
    228          
    229           #if defined ( BUILD_ALL_DEVICES )
    230            // The "Demo" target is setup to have BUILD_ALL_DEVICES and HOLD_AUTO_START
    231            // We are looking at a jumper (defined in SampleAppHw.c) to be jumpered
    232            // together - if they are - we will start up a coordinator. Otherwise,
    233            // the device will start as a router.
    234            if ( readCoordinatorJumper() )
    235              zgDeviceLogicalType = ZG_DEVICETYPE_COORDINATOR;
    236            else
    237              zgDeviceLogicalType = ZG_DEVICETYPE_ROUTER;
    238          #endif // BUILD_ALL_DEVICES
    239          
    240          #if defined ( HOLD_AUTO_START )
    241            // HOLD_AUTO_START is a compile option that will surpress ZDApp
    242            //  from starting the device and wait for the application to
    243            //  start the device.
    244            ZDOInitDevice(0);
    245          #endif
    246          
    247            // Setup for the periodic message's destination address
    248            // Broadcast to everyone
    249            SampleApp_Periodic_DstAddr.addrMode = (afAddrMode_t)AddrBroadcast;
   \   000039   90....       MOV     DPTR,#SampleApp_Periodic_DstAddr + 8
   \   00003C   740F         MOV     A,#0xf
   \   00003E   F0           MOVX    @DPTR,A
    250            SampleApp_Periodic_DstAddr.endPoint = SAMPLEAPP_ENDPOINT;
   \   00003F   A3           INC     DPTR
   \   000040   7414         MOV     A,#0x14
   \   000042   F0           MOVX    @DPTR,A
    251            SampleApp_Periodic_DstAddr.addr.shortAddr = 0xFFFF;
   \   000043   90....       MOV     DPTR,#SampleApp_Periodic_DstAddr
   \   000046   74FF         MOV     A,#-0x1
   \   000048   F0           MOVX    @DPTR,A
   \   000049   A3           INC     DPTR
   \   00004A   F0           MOVX    @DPTR,A
    252          
    253            // Setup for the flash command's destination address - Group 1
    254            SampleApp_Flash_DstAddr.addrMode = (afAddrMode_t)afAddrGroup;
   \   00004B   90....       MOV     DPTR,#SampleApp_Flash_DstAddr + 8
   \   00004E   7401         MOV     A,#0x1
   \   000050   F0           MOVX    @DPTR,A
    255            SampleApp_Flash_DstAddr.endPoint = SAMPLEAPP_ENDPOINT;
   \   000051   A3           INC     DPTR
   \   000052   7414         MOV     A,#0x14
   \   000054   F0           MOVX    @DPTR,A
    256            SampleApp_Flash_DstAddr.addr.shortAddr = SAMPLEAPP_FLASH_GROUP;
   \   000055   90....       MOV     DPTR,#SampleApp_Flash_DstAddr
   \   000058   7401         MOV     A,#0x1
   \   00005A   F0           MOVX    @DPTR,A
   \   00005B   A3           INC     DPTR
   \   00005C   E4           CLR     A
   \   00005D   F0           MOVX    @DPTR,A
    257          
    258            SampleApp_P2P_DstAddr.addrMode = (afAddrMode_t)Addr16Bit;
   \   00005E   90....       MOV     DPTR,#SampleApp_P2P_DstAddr + 8
   \   000061   7402         MOV     A,#0x2
   \   000063   F0           MOVX    @DPTR,A
    259            SampleApp_P2P_DstAddr.endPoint = SAMPLEAPP_ENDPOINT;
   \   000064   A3           INC     DPTR
   \   000065   7414         MOV     A,#0x14
   \   000067   F0           MOVX    @DPTR,A
    260            SampleApp_P2P_DstAddr.addr.shortAddr = 0x0000;
   \   000068   90....       MOV     DPTR,#SampleApp_P2P_DstAddr
   \   00006B   E4           CLR     A
   \   00006C   F0           MOVX    @DPTR,A
   \   00006D   A3           INC     DPTR
   \   00006E   F0           MOVX    @DPTR,A
    261            
    262            // Fill out the endpoint description.
    263            SampleApp_epDesc.endPoint = SAMPLEAPP_ENDPOINT;
   \   00006F   90....       MOV     DPTR,#SampleApp_epDesc
   \   000072   7414         MOV     A,#0x14
   \   000074   F0           MOVX    @DPTR,A
    264            SampleApp_epDesc.task_id = &SampleApp_TaskID;
   \   000075   A3           INC     DPTR
   \   000076   74..         MOV     A,#SampleApp_TaskID & 0xff
   \   000078   F0           MOVX    @DPTR,A
   \   000079   A3           INC     DPTR
   \   00007A   74..         MOV     A,#(SampleApp_TaskID >> 8) & 0xff
   \   00007C   F0           MOVX    @DPTR,A
    265            SampleApp_epDesc.simpleDesc
    266                      = (SimpleDescriptionFormat_t *)&SampleApp_SimpleDesc;
   \   00007D   A3           INC     DPTR
   \   00007E   74..         MOV     A,#SampleApp_SimpleDesc & 0xff
   \   000080   F0           MOVX    @DPTR,A
   \   000081   A3           INC     DPTR
   \   000082   74..         MOV     A,#(SampleApp_SimpleDesc >> 8) & 0xff
   \   000084   F0           MOVX    @DPTR,A
    267            SampleApp_epDesc.latencyReq = noLatencyReqs;
   \   000085   A3           INC     DPTR
   \   000086   E4           CLR     A
   \   000087   F0           MOVX    @DPTR,A
    268          
    269            // Register the endpoint description with the AF
    270            afRegister( &SampleApp_epDesc );
   \   000088                ; Setup parameters for call to function afRegister
   \   000088   7A..         MOV     R2,#SampleApp_epDesc & 0xff
   \   00008A   7B..         MOV     R3,#(SampleApp_epDesc >> 8) & 0xff
   \   00008C   12....       LCALL   ??afRegister?relay
    271          
    272            // Register for all key events - This app will handle all key events
    273            RegisterForKeys( SampleApp_TaskID );
   \   00008F                ; Setup parameters for call to function RegisterForKeys
   \   00008F   90....       MOV     DPTR,#SampleApp_TaskID
   \   000092   E0           MOVX    A,@DPTR
   \   000093   F9           MOV     R1,A
   \   000094   12....       LCALL   ??RegisterForKeys?relay
    274          
    275            // By default, all devices start out in Group 1
    276            SampleApp_Group.ID = 0x0001;
   \   000097   90....       MOV     DPTR,#SampleApp_Group
   \   00009A   7401         MOV     A,#0x1
   \   00009C   F0           MOVX    @DPTR,A
   \   00009D   A3           INC     DPTR
   \   00009E   E4           CLR     A
   \   00009F   F0           MOVX    @DPTR,A
    277            osal_memcpy( SampleApp_Group.name, "Group 1", 7  );
   \   0000A0                ; Setup parameters for call to function osal_memcpy
   \   0000A0   75....       MOV     ?V0 + 0,#`?<Constant "Group 1">` & 0xff
   \   0000A3   75....       MOV     ?V0 + 1,#(`?<Constant "Group 1">` >> 8) & 0xff
   \   0000A6   F5..         MOV     ?V0 + 2,A
   \   0000A8   78..         MOV     R0,#?V0 + 0
   \   0000AA   12....       LCALL   ?PUSH_XSTACK_I_THREE
   \   0000AD   7C07         MOV     R4,#0x7
   \   0000AF   7D00         MOV     R5,#0x0
   \   0000B1   7A..         MOV     R2,#(SampleApp_Group + 2) & 0xff
   \   0000B3   7B..         MOV     R3,#((SampleApp_Group + 2) >> 8) & 0xff
   \   0000B5   12....       LCALL   ??Subroutine15_0 & 0xFFFF
   \                     ??CrossCallReturnLabel_33:
   \   0000B8   12....       LCALL   ?DEALLOC_XSTACK8
    278            aps_AddGroup( SAMPLEAPP_ENDPOINT, &SampleApp_Group );
   \   0000BB                ; Setup parameters for call to function aps_AddGroup
   \   0000BB   7A..         MOV     R2,#SampleApp_Group & 0xff
   \   0000BD   7B..         MOV     R3,#(SampleApp_Group >> 8) & 0xff
   \   0000BF   7914         MOV     R1,#0x14
   \   0000C1   12....       LCALL   ??aps_AddGroup?relay
    279          
    280          #if defined ( LCD_SUPPORTED )
    281            HalLcdWriteString( "SampleApp", HAL_LCD_LINE_1 );
    282          #endif
    283            osal_start_timerEx( SampleApp_TaskID, SAMPLEAPP_SEND_PERIODIC_MSG_EVT,
    284                  2000);
   \   0000C4                ; Setup parameters for call to function osal_start_timerEx
   \   0000C4   7CD0         MOV     R4,#-0x30
   \   0000C6   7D07         MOV     R5,#0x7
   \   0000C8   12....       LCALL   ?Subroutine5 & 0xFFFF
    285          }
   \                     ??CrossCallReturnLabel_5:
   \   0000CB                REQUIRE ?Subroutine0
   \   0000CB                ; // Fall through to label ?Subroutine0

   \                                 In  segment BANKED_CODE, align 1, keep-with-next
   \                     ?Subroutine0:
   \   000000   7F03         MOV     R7,#0x3
   \   000002   02....       LJMP    ?BANKED_LEAVE_XDATA

   \                                 In  segment BANKED_CODE, align 1, keep-with-next
   \                     ?Subroutine5:
   \   000000   7A01         MOV     R2,#0x1
   \   000002   7B00         MOV     R3,#0x0
   \   000004   90....       MOV     DPTR,#SampleApp_TaskID
   \   000007   E0           MOVX    A,@DPTR
   \   000008   F9           MOV     R1,A
   \   000009   12....       LCALL   ??osal_start_timerEx?relay
   \   00000C   22           RET

   \                                 In  segment BANKED_CODE, align 1, keep-with-next
   \                     ??Subroutine15_0:
   \   000000   12....       LCALL   ??osal_memcpy?relay
   \   000003   7403         MOV     A,#0x3
   \   000005   22           RET
    286          
    287          /*********************************************************************
    288           * @fn      SampleApp_ProcessEvent
    289           *
    290           * @brief   Generic Application Task event processor.  This function
    291           *          is called to process all events for the task.  Events
    292           *          include timers, messages and any other user defined events.
    293           *
    294           * @param   task_id  - The OSAL assigned task ID.
    295           * @param   events - events to process.  This is a bit map and can
    296           *                   contain more than one event.
    297           *
    298           * @return  none
    299           */

   \                                 In  segment BANKED_CODE, align 1, keep-with-next
    300          uint16 SampleApp_ProcessEvent( uint8 task_id, uint16 events )
   \                     SampleApp_ProcessEvent:
    301          {
   \   000000   74EC         MOV     A,#-0x14
   \   000002   12....       LCALL   ?BANKED_ENTER_XDATA
   \   000005                ; Saved register size: 20
   \   000005                ; Auto size: 0
   \   000005   EA           MOV     A,R2
   \   000006   FE           MOV     R6,A
   \   000007   EB           MOV     A,R3
   \   000008   FF           MOV     R7,A
    302            uint8 i;
    303            afIncomingMSGPacket_t *MSGpkt;
    304            (void)task_id;  // Intentionally unreferenced parameter
    305          
    306            if ( events & SYS_EVENT_MSG )
   \   000009   5480         ANL     A,#0x80
   \   00000B   6079         JZ      ??SampleApp_ProcessEvent_0
    307            {
    308              MSGpkt = (afIncomingMSGPacket_t *)osal_msg_receive( SampleApp_TaskID );
   \   00000D                ; Setup parameters for call to function osal_msg_receive
   \   00000D   802A         SJMP    ??SampleApp_ProcessEvent_1
    309              while ( MSGpkt )
    310              {
    311                switch ( MSGpkt->hdr.event )
    312                {
    313                  // Received when a key is pressed
    314                  case KEY_CHANGE:
    315                    SampleApp_HandleKeys( ((keyChange_t *)MSGpkt)->state, ((keyChange_t *)MSGpkt)->keys );
    316                    break;
    317          
    318                  // Received when a messages is received (OTA) for this endpoint
    319                  case AF_INCOMING_MSG_CMD:
    320                    SampleApp_MessageMSGCB( MSGpkt );
    321                    break;
    322          
    323                  // Received whenever the device changes state in the network
    324                  case ZDO_STATE_CHANGE:
    325                    SampleApp_NwkState = (devStates_t)(MSGpkt->hdr.status);
   \                     ??SampleApp_ProcessEvent_2:
   \   00000F   A3           INC     DPTR
   \   000010   E0           MOVX    A,@DPTR
   \   000011   90....       MOV     DPTR,#SampleApp_NwkState
   \   000014   F0           MOVX    @DPTR,A
    326                    if ( (SampleApp_NwkState == DEV_ZB_COORD)
    327                        || (SampleApp_NwkState == DEV_ROUTER)
    328                          )
   \   000015   6409         XRL     A,#0x9
   \   000017   6005         JZ      ??SampleApp_ProcessEvent_3
   \   000019   E0           MOVX    A,@DPTR
   \   00001A   6407         XRL     A,#0x7
   \   00001C   7014         JNZ     ??CrossCallReturnLabel_6
    329                    { HalUARTWrite(0,"online",6);
   \                     ??SampleApp_ProcessEvent_3:
   \   00001E                ; Setup parameters for call to function HalUARTWrite
   \   00001E   7C06         MOV     R4,#0x6
   \   000020   7D00         MOV     R5,#0x0
   \   000022   7A..         MOV     R2,#`?<Constant "online">` & 0xff
   \   000024   7B..         MOV     R3,#(`?<Constant "online">` >> 8) & 0xff
   \   000026   7900         MOV     R1,#0x0
   \   000028   12....       LCALL   ??HalUARTWrite?relay
    330                      // Start sending the periodic message in a regular interval.
    331          //**********macRadioEnergyDetectStart();**************建网完毕后开始检测信号强度
    332                      osal_start_timerEx( SampleApp_TaskID,
    333                                       SAMPLEAPP_SEND_PERIODIC_MSG_EVT,
    334                                        5000);
   \   00002B                ; Setup parameters for call to function osal_start_timerEx
   \   00002B   7C88         MOV     R4,#-0x78
   \   00002D   7D13         MOV     R5,#0x13
   \   00002F   12....       LCALL   ?Subroutine5 & 0xFFFF
    335                    }
    336                    else
    337                    {
    338                      // Device is no longer in the network
    339                    }
    340                    break;
    341          
    342                  default:
    343                    break;
    344                }
    345          
    346                // Release the memory
    347                osal_msg_deallocate( (uint8 *)MSGpkt );
   \                     ??CrossCallReturnLabel_6:
   \   000032                ; Setup parameters for call to function osal_msg_deallocate
   \   000032   AA..         MOV     R2,?V0 + 0
   \   000034   AB..         MOV     R3,?V0 + 1
   \   000036   12....       LCALL   ??osal_msg_deallocate?relay
    348          
    349                // Next - if one is available
    350                MSGpkt = (afIncomingMSGPacket_t *)osal_msg_receive( SampleApp_TaskID );
   \   000039                ; Setup parameters for call to function osal_msg_receive
   \                     ??SampleApp_ProcessEvent_1:
   \   000039   90....       MOV     DPTR,#SampleApp_TaskID
   \   00003C   E0           MOVX    A,@DPTR
   \   00003D   F9           MOV     R1,A
   \   00003E   12....       LCALL   ??osal_msg_receive?relay
   \   000041   8A..         MOV     ?V0 + 0,R2
   \   000043   8B..         MOV     ?V0 + 1,R3
   \   000045   E5..         MOV     A,?V0 + 0
   \   000047   45..         ORL     A,?V0 + 1
   \   000049   6032         JZ      ??SampleApp_ProcessEvent_4
   \   00004B   85..82       MOV     DPL,?V0 + 0
   \   00004E   85..83       MOV     DPH,?V0 + 1
   \   000051   E0           MOVX    A,@DPTR
   \   000052   24E6         ADD     A,#-0x1a
   \   000054   601E         JZ      ??SampleApp_ProcessEvent_5
   \   000056   245A         ADD     A,#0x5a
   \   000058   6006         JZ      ??SampleApp_ProcessEvent_6
   \   00005A   24EF         ADD     A,#-0x11
   \   00005C   60B1         JZ      ??SampleApp_ProcessEvent_2
   \   00005E   80D2         SJMP    ??CrossCallReturnLabel_6
   \                     ??SampleApp_ProcessEvent_6:
   \   000060                ; Setup parameters for call to function SampleApp_HandleKeys
   \   000060   A3           INC     DPTR
   \   000061   A3           INC     DPTR
   \   000062   A3           INC     DPTR
   \   000063   E0           MOVX    A,@DPTR
   \   000064   FA           MOV     R2,A
   \   000065   85..82       MOV     DPL,?V0 + 0
   \   000068   85..83       MOV     DPH,?V0 + 1
   \   00006B   A3           INC     DPTR
   \   00006C   A3           INC     DPTR
   \   00006D   E0           MOVX    A,@DPTR
   \   00006E   F9           MOV     R1,A
   \   00006F   12....       LCALL   ??SampleApp_HandleKeys?relay
   \   000072   80BE         SJMP    ??CrossCallReturnLabel_6
   \                     ??SampleApp_ProcessEvent_5:
   \   000074                ; Setup parameters for call to function SampleApp_MessageMSGCB
   \   000074   AA..         MOV     R2,?V0 + 0
   \   000076   AB..         MOV     R3,?V0 + 1
   \   000078   12....       LCALL   ??SampleApp_MessageMSGCB?relay
   \   00007B   80B5         SJMP    ??CrossCallReturnLabel_6
    351              }
    352          
    353              // return unprocessed events
    354              return (events ^ SYS_EVENT_MSG);
   \                     ??SampleApp_ProcessEvent_4:
   \   00007D   EE           MOV     A,R6
   \   00007E   FA           MOV     R2,A
   \   00007F   EF           MOV     A,R7
   \   000080   6480         XRL     A,#0x80
   \                     ??SampleApp_ProcessEvent_7:
   \   000082   FB           MOV     R3,A
   \   000083   02....       LJMP    ??SampleApp_ProcessEvent_8 & 0xFFFF
    355            }
    356          
    357            // Send a message out - This event is generated by a timer
    358            //  (setup in SampleApp_Init()).
    359            if ( events & SAMPLEAPP_SEND_PERIODIC_MSG_EVT )
   \                     ??SampleApp_ProcessEvent_0:
   \   000086   EE           MOV     A,R6
   \   000087   A2E0         MOV     C,0xE0 /* A   */.0
   \   000089   4003         JC      $+5
   \   00008B   02....       LJMP    ??SampleApp_ProcessEvent_9 & 0xFFFF
    360            {
    361          /******************************************************************************************
    362          *功能：建网延时
    363          *参数：LinkCount-----循环次数
    364          *      Time_ms-------延时时间
    365          ******************************************************************************************/
    366              if(LinkWait==1)                                   //若建网延时标志位为1 则执行建网延时
   \   00008E   90....       MOV     DPTR,#LinkWait
   \   000091   E0           MOVX    A,@DPTR
   \   000092   6401         XRL     A,#0x1
   \   000094   7046         JNZ     ??SampleApp_ProcessEvent_10
    367              {
    368                LinkCount++;
   \   000096   90....       MOV     DPTR,#LinkCount
   \   000099   E0           MOVX    A,@DPTR
   \   00009A   04           INC     A
   \   00009B   F0           MOVX    @DPTR,A
    369                if(Mode=='M') 
   \   00009C   90....       MOV     DPTR,#Mode
   \   00009F   E0           MOVX    A,@DPTR
   \   0000A0   644D         XRL     A,#0x4d
   \   0000A2   7019         JNZ     ??SampleApp_ProcessEvent_11
    370                {
    371                  if(LinkCount == 1)                               //定时个数为0个
   \   0000A4   90....       MOV     DPTR,#LinkCount
   \   0000A7   E0           MOVX    A,@DPTR
   \   0000A8   6401         XRL     A,#0x1
   \   0000AA   6003         JZ      $+5
   \   0000AC   02....       LJMP    ??CrossCallReturnLabel_7 & 0xFFFF
    372                  {
    373                    LinkCount=0;                                  //延时个数清零
   \                     ??SampleApp_ProcessEvent_12:
   \   0000AF   E4           CLR     A
   \   0000B0   F0           MOVX    @DPTR,A
    374                    LinkWait=0;                                   //延时标志位清零
   \   0000B1   90....       MOV     DPTR,#LinkWait
   \   0000B4   F0           MOVX    @DPTR,A
    375                    ZDOInitDevice( 0 );                           //开启设备建网
   \   0000B5                ; Setup parameters for call to function ZDOInitDevice
   \   0000B5   FA           MOV     R2,A
   \   0000B6   FB           MOV     R3,A
   \   0000B7   12....       LCALL   ??ZDOInitDevice?relay
   \   0000BA   02....       LJMP    ??CrossCallReturnLabel_7 & 0xFFFF
    376                  }
    377                }
    378                else if(Mode=='C')
   \                     ??SampleApp_ProcessEvent_11:
   \   0000BD   E0           MOVX    A,@DPTR
   \   0000BE   6443         XRL     A,#0x43
   \   0000C0   6003         JZ      $+5
   \   0000C2   02....       LJMP    ??CrossCallReturnLabel_7 & 0xFFFF
    379                {
    380                  if(LinkCount == 66)                               //定时个数为65个
   \   0000C5   90....       MOV     DPTR,#LinkCount
   \   0000C8   E0           MOVX    A,@DPTR
   \   0000C9   6442         XRL     A,#0x42
   \   0000CB   60E2         JZ      ??SampleApp_ProcessEvent_12
    381                  {
    382                    LinkCount=0;                                  //延时个数清零
    383                    LinkWait=0;                                   //延时标志位清零
    384                    ZDOInitDevice( 0 );                           //开启设备建网
    385                  }
    386                  else
    387                  {
    388                    Time_ms=60000;                                //每次定时为65S
   \   0000CD   90....       MOV     DPTR,#Time_ms
   \   0000D0   7460         MOV     A,#0x60
   \   0000D2   F0           MOVX    @DPTR,A
   \   0000D3   A3           INC     DPTR
   \   0000D4   74EA         MOV     A,#-0x16
   \   0000D6   F0           MOVX    @DPTR,A
    389                    osal_start_timerEx( SampleApp_TaskID, SAMPLEAPP_SEND_PERIODIC_MSG_EVT,
    390                    Time_ms);                                     //开启定时器
   \   0000D7                ; Setup parameters for call to function osal_start_timerEx
   \   0000D7   7C60         MOV     R4,#0x60
   \   0000D9   02....       LJMP    ??SampleApp_ProcessEvent_13 & 0xFFFF
    391                  }
    392                }  
    393              }
    394          /******************************************************************************************
    395          *功能：定时发送在线表
    396          *参数：TX_2----------------发送次数
    397          *      T_Online_Flag-------发送标志位
    398          ******************************************************************************************/
    399              else                                              //不许建网延时则执行接收-上传数据工作
    400              {
    401                if(TX_2==2)                                     //若第二次发送在线表标志位为2 第二次发送
   \                     ??SampleApp_ProcessEvent_10:
   \   0000DC   90....       MOV     DPTR,#TX_2
   \   0000DF   E0           MOVX    A,@DPTR
   \   0000E0   6402         XRL     A,#0x2
   \   0000E2   7031         JNZ     ??SampleApp_ProcessEvent_14
    402                {
    403          /*****************第二次发送**************************************************************/
    404                  TX_2=0;                                       //标志位清零
   \   0000E4   E4           CLR     A
   \   0000E5   F0           MOVX    @DPTR,A
    405                  Timer_Flag=1;                                 //计算总定时时间标志位置1
   \   0000E6   90....       MOV     DPTR,#Timer_Flag
   \   0000E9   04           INC     A
   \   0000EA   F0           MOVX    @DPTR,A
    406                  HalUARTWrite(0,OnlineDEV,Count*3+2);          //串口发送在线表
   \   0000EB                ; Setup parameters for call to function HalUARTWrite
   \   0000EB   90....       MOV     DPTR,#Count
   \   0000EE   E0           MOVX    A,@DPTR
   \   0000EF   75F003       MOV     B,#0x3
   \   0000F2   A4           MUL     AB
   \   0000F3   2402         ADD     A,#0x2
   \   0000F5   FC           MOV     R4,A
   \   0000F6   E5F0         MOV     A,B
   \   0000F8   12....       LCALL   ?Subroutine9 & 0xFFFF
    407                  osal_memset(DataFlag,0,sizeof(DataFlag));     //将在线标志数组清零
   \                     ??CrossCallReturnLabel_14:
   \   0000FB                ; Setup parameters for call to function osal_memset
   \   0000FB   7C1E         MOV     R4,#0x1e
   \   0000FD   7D00         MOV     R5,#0x0
   \   0000FF   7900         MOV     R1,#0x0
   \   000101   7A..         MOV     R2,#DataFlag & 0xff
   \   000103   7B..         MOV     R3,#(DataFlag >> 8) & 0xff
   \   000105   12....       LCALL   ??osal_memset?relay
    408                  osal_memset(OnlineDEV,0,sizeof(OnlineDEV));   //将在线表清零
   \   000108                ; Setup parameters for call to function osal_memset
   \   000108   7C64         MOV     R4,#0x64
   \   00010A   7D00         MOV     R5,#0x0
   \   00010C   7900         MOV     R1,#0x0
   \   00010E   7A..         MOV     R2,#OnlineDEV & 0xff
   \   000110   7B..         MOV     R3,#(OnlineDEV >> 8) & 0xff
   \   000112   12....       LCALL   ??osal_memset?relay
    409                }
    410                if(T_Online_Flag==1)                            //发送在线表标志为1 第一次发送
   \                     ??SampleApp_ProcessEvent_14:
   \   000115   90....       MOV     DPTR,#T_Online_Flag
   \   000118   E0           MOVX    A,@DPTR
   \   000119   6401         XRL     A,#0x1
   \   00011B   6003         JZ      $+5
   \   00011D   02....       LJMP    ??SampleApp_ProcessEvent_15 & 0xFFFF
    411                {
    412          /*****************第一次发送**************************************************************/
    413                  T_Online_Flag=0;                              //发送在线表标志清零
   \   000120   E4           CLR     A
   \   000121   F0           MOVX    @DPTR,A
    414                  Count=0;                                      //节点个数先清零
   \   000122   90....       MOV     DPTR,#Count
   \   000125   F0           MOVX    @DPTR,A
    415                  OnlineDEV[0]='L';                             //在线表首字母为'L'
   \   000126   90....       MOV     DPTR,#OnlineDEV
   \   000129   744C         MOV     A,#0x4c
   \   00012B   F0           MOVX    @DPTR,A
    416                  for(i=0;i<sizeof(DataFlag);i++)               //循环 填写在线表并计算节点个数
   \   00012C   75..00       MOV     ?V0 + 4,#0x0
    417                  {
    418                    if(DataFlag[i]>0)                           //如果节点在线标志位大于等于1 则在线
   \                     ??SampleApp_ProcessEvent_16:
   \   00012F   85....       MOV     ?V0 + 0,?V0 + 4
   \   000132   74..         MOV     A,#DataFlag & 0xff
   \   000134   25..         ADD     A,?V0 + 0
   \   000136   F582         MOV     DPL,A
   \   000138   74..         MOV     A,#(DataFlag >> 8) & 0xff
   \   00013A   12....       LCALL   ??Subroutine14_0 & 0xFFFF
   \                     ??CrossCallReturnLabel_20:
   \   00013D   6074         JZ      ??SampleApp_ProcessEvent_17
    419                    {
    420                      Count++;                                  //节点个数加1
   \   00013F   90....       MOV     DPTR,#Count
   \   000142   E0           MOVX    A,@DPTR
   \   000143   04           INC     A
   \   000144   F0           MOVX    @DPTR,A
    421                      OnlineDEV[(Count-1)*3+1]=i/ABLen+0x41;    //填在线表,i+1代表节点标号
   \   000145   75F00A       MOV     B,#0xa
   \   000148   E5..         MOV     A,?V0 + 4
   \   00014A   84           DIV     AB
   \   00014B   2441         ADD     A,#0x41
   \   00014D   FC           MOV     R4,A
   \   00014E   12....       LCALL   ?Subroutine6 & 0xFFFF
    422                      OnlineDEV[(Count-1)*3+2]=((i+1)-(OnlineDEV[(Count-1)*3+1]-0X41)*ABLen)/10+0x30;
    423                      OnlineDEV[(Count-1)*3+3]=((i+1)-(OnlineDEV[(Count-1)*3+1]-0X41)*ABLen)%10+0x30;
    424                    }
    425                  }
   \                     ??CrossCallReturnLabel_8:
   \   000151   74..         MOV     A,#OnlineDEV & 0xff
   \   000153   28           ADD     A,R0
   \   000154   F5..         MOV     ?V0 + 0,A
   \   000156   74..         MOV     A,#(OnlineDEV >> 8) & 0xff
   \   000158   39           ADDC    A,R1
   \   000159   F5..         MOV     ?V0 + 1,A
   \   00015B   E5..         MOV     A,?V0 + 0
   \   00015D   24FE         ADD     A,#-0x2
   \   00015F   F582         MOV     DPL,A
   \   000161   E5..         MOV     A,?V0 + 1
   \   000163   34FF         ADDC    A,#-0x1
   \   000165   F583         MOV     DPH,A
   \   000167   EC           MOV     A,R4
   \   000168   F0           MOVX    @DPTR,A
   \   000169   85....       MOV     ?V0 + 2,?V0 + 4
   \   00016C   E5..         MOV     A,?V0 + 2
   \   00016E   2401         ADD     A,#0x1
   \   000170   FA           MOV     R2,A
   \   000171   E4           CLR     A
   \   000172   3400         ADDC    A,#0x0
   \   000174   FB           MOV     R3,A
   \   000175   EC           MOV     A,R4
   \   000176   24BF         ADD     A,#-0x41
   \   000178   F8           MOV     R0,A
   \   000179   12....       LCALL   ?Subroutine11 & 0xFFFF
   \                     ??CrossCallReturnLabel_18:
   \   00017C   ACF0         MOV     R4,B
   \   00017E   75F00A       MOV     B,#0xa
   \   000181   E9           MOV     A,R1
   \   000182   A4           MUL     AB
   \   000183   2C           ADD     A,R4
   \   000184   F9           MOV     R1,A
   \   000185   EA           MOV     A,R2
   \   000186   C3           CLR     C
   \   000187   98           SUBB    A,R0
   \   000188   FC           MOV     R4,A
   \   000189   EB           MOV     A,R3
   \   00018A   12....       LCALL   ?Subroutine10 & 0xFFFF
   \                     ??CrossCallReturnLabel_16:
   \   00018D   12....       LCALL   ?S_DIV_MOD
   \   000190   E8           MOV     A,R0
   \   000191   2430         ADD     A,#0x30
   \   000193   C0E0         PUSH    A
   \   000195   E5..         MOV     A,?V0 + 0
   \   000197   24FF         ADD     A,#-0x1
   \   000199   F582         MOV     DPL,A
   \   00019B   E5..         MOV     A,?V0 + 1
   \   00019D   34FF         ADDC    A,#-0x1
   \   00019F   F583         MOV     DPH,A
   \   0001A1   D0E0         POP     A
   \   0001A3   12....       LCALL   ?Subroutine2 & 0xFFFF
   \                     ??CrossCallReturnLabel_0:
   \   0001A6   12....       LCALL   ?S_DIV_MOD
   \   0001A9   EA           MOV     A,R2
   \   0001AA   2430         ADD     A,#0x30
   \   0001AC   85..82       MOV     DPL,?V0 + 0
   \   0001AF   85..83       MOV     DPH,?V0 + 1
   \   0001B2   F0           MOVX    @DPTR,A
   \                     ??SampleApp_ProcessEvent_17:
   \   0001B3   05..         INC     ?V0 + 4
   \   0001B5   E5..         MOV     A,?V0 + 4
   \   0001B7   C3           CLR     C
   \   0001B8   941E         SUBB    A,#0x1e
   \   0001BA   5003         JNC     $+5
   \   0001BC   02....       LJMP    ??SampleApp_ProcessEvent_16 & 0xFFFF
    426                 OnlineDEV[Count*3+1]='@';                      //在线表末字母为'@'
   \   0001BF   90....       MOV     DPTR,#Count
   \   0001C2   12....       LCALL   ?Subroutine6 & 0xFFFF
   \                     ??CrossCallReturnLabel_9:
   \   0001C5   74..         MOV     A,#(OnlineDEV + 1) & 0xff
   \   0001C7   28           ADD     A,R0
   \   0001C8   F582         MOV     DPL,A
   \   0001CA   74..         MOV     A,#((OnlineDEV + 1) >> 8) & 0xff
   \   0001CC   39           ADDC    A,R1
   \   0001CD   F583         MOV     DPH,A
   \   0001CF   7440         MOV     A,#0x40
   \   0001D1   F0           MOVX    @DPTR,A
    427                 HalUARTWrite(0,OnlineDEV,Count*3+2);           //发送在线表
   \   0001D2                ; Setup parameters for call to function HalUARTWrite
   \   0001D2   E8           MOV     A,R0
   \   0001D3   2402         ADD     A,#0x2
   \   0001D5   FC           MOV     R4,A
   \   0001D6   E9           MOV     A,R1
   \   0001D7   12....       LCALL   ?Subroutine9 & 0xFFFF
    428                 TX_2=1;                                        //将第二次发送标志位置1
   \                     ??CrossCallReturnLabel_15:
   \   0001DA   90....       MOV     DPTR,#TX_2
   \   0001DD   7401         MOV     A,#0x1
   \   0001DF   F0           MOVX    @DPTR,A
    429                }
    430          /*****************计算定时时间************************************************************/
    431               if(Timer_Flag==1)                                //若计算总定时时间标志位为1 计算总时间                     
   \                     ??SampleApp_ProcessEvent_15:
   \   0001E0   90....       MOV     DPTR,#Timer_Flag
   \   0001E3   E0           MOVX    A,@DPTR
   \   0001E4   6401         XRL     A,#0x1
   \   0001E6   6003         JZ      $+5
   \   0001E8   02....       LJMP    ??SampleApp_ProcessEvent_18 & 0xFFFF
    432               {
    433                 Timer_Flag=0;                                  //计算总定时时间标志位清零
   \   0001EB   E4           CLR     A
   \   0001EC   F0           MOVX    @DPTR,A
    434                 
    435                 if(Mode=='M')                                  //调试模式 数据间隔为两分钟
   \   0001ED   90....       MOV     DPTR,#Mode
   \   0001F0   E0           MOVX    A,@DPTR
   \   0001F1   644D         XRL     A,#0x4d
   \   0001F3   7025         JNZ     ??SampleApp_ProcessEvent_19
    436                 {
    437                   sleeptime=120000;
   \   0001F5   90....       MOV     DPTR,#__Constant_1d4c0
   \   0001F8   12....       LCALL   ?XLOAD_R2345
   \   0001FB   90....       MOV     DPTR,#sleeptime
   \   0001FE   12....       LCALL   ?XSTORE_R2345
    438                   Timeout=sleeptime-osal_systemClock%sleeptime+110000; //等待节点数据接收完毕 110s
   \   000201   75..70       MOV     ?V0 + 0,#0x70
   \   000204   75..82       MOV     ?V0 + 1,#-0x7e
   \   000207   75..03       MOV     ?V0 + 2,#0x3
   \   00020A   75..00       MOV     ?V0 + 3,#0x0
   \   00020D   90....       MOV     DPTR,#osal_systemClock
   \   000210   78..         MOV     R0,#?V0 + 4
   \   000212   12....       LCALL   ?L_MOV_X
   \   000215   90....       MOV     DPTR,#__Constant_1d4c0
   \   000218   8028         SJMP    ??SampleApp_ProcessEvent_20
    439                 }
    440                 else if(Mode=='C')                             //正常模式 数据间隔为1小时
   \                     ??SampleApp_ProcessEvent_19:
   \   00021A   E0           MOVX    A,@DPTR
   \   00021B   6443         XRL     A,#0x43
   \   00021D   703E         JNZ     ??SampleApp_ProcessEvent_21
    441                 {
    442                   sleeptime=3600000;
   \   00021F   90....       MOV     DPTR,#__Constant_36ee80
   \   000222   12....       LCALL   ?XLOAD_R2345
   \   000225   90....       MOV     DPTR,#sleeptime
   \   000228   12....       LCALL   ?XSTORE_R2345
    443                   Timeout=sleeptime-osal_systemClock%sleeptime+180000; //等待节点数据接收完毕 180s
   \   00022B   75..A0       MOV     ?V0 + 0,#-0x60
   \   00022E   75..AD       MOV     ?V0 + 1,#-0x53
   \   000231   75..39       MOV     ?V0 + 2,#0x39
   \   000234   75..00       MOV     ?V0 + 3,#0x0
   \   000237   90....       MOV     DPTR,#osal_systemClock
   \   00023A   78..         MOV     R0,#?V0 + 4
   \   00023C   12....       LCALL   ?L_MOV_X
   \   00023F   90....       MOV     DPTR,#__Constant_36ee80
   \                     ??SampleApp_ProcessEvent_20:
   \   000242   78..         MOV     R0,#?V0 + 8
   \   000244   12....       LCALL   ?L_MOV_X
   \   000247   78..         MOV     R0,#?V0 + 4
   \   000249   79..         MOV     R1,#?V0 + 8
   \   00024B   12....       LCALL   ?UL_DIV_MOD
   \   00024E   78..         MOV     R0,#?V0 + 0
   \   000250   79..         MOV     R1,#?V0 + 8
   \   000252   12....       LCALL   ?L_SUB
   \   000255   90....       MOV     DPTR,#Timeout
   \   000258   78..         MOV     R0,#?V0 + 0
   \   00025A   12....       LCALL   ?L_MOV_TO_X
    444                 }
    445                 TimeCount=Timeout/Maxtime;                     //需要最大定时时间的个数
   \                     ??SampleApp_ProcessEvent_21:
   \   00025D   90....       MOV     DPTR,#Timeout
   \   000260   78..         MOV     R0,#?V0 + 0
   \   000262   12....       LCALL   ?L_MOV_X
   \   000265   90....       MOV     DPTR,#__Constant_fa00
   \   000268   78..         MOV     R0,#?V0 + 4
   \   00026A   12....       LCALL   ?L_MOV_X
   \   00026D   78..         MOV     R0,#?V0 + 0
   \   00026F   79..         MOV     R1,#?V0 + 4
   \   000271   12....       LCALL   ?UL_DIV_MOD
   \   000274   E5..         MOV     A,?V0 + 0
   \   000276   90....       MOV     DPTR,#TimeCount
   \   000279   F0           MOVX    @DPTR,A
    446                 Timeout=Timeout%Maxtime;                       //剩余的定时时间
   \   00027A   90....       MOV     DPTR,#Timeout
   \   00027D   78..         MOV     R0,#?V0 + 0
   \   00027F   12....       LCALL   ?L_MOV_X
   \   000282   90....       MOV     DPTR,#__Constant_fa00
   \   000285   78..         MOV     R0,#?V0 + 4
   \   000287   12....       LCALL   ?L_MOV_X
   \   00028A   78..         MOV     R0,#?V0 + 0
   \   00028C   79..         MOV     R1,#?V0 + 4
   \   00028E   12....       LCALL   ?UL_DIV_MOD
   \   000291   90....       MOV     DPTR,#Timeout
   \   000294   78..         MOV     R0,#?V0 + 4
   \   000296   12....       LCALL   ?L_MOV_TO_X
    447               }
    448          /*****************等待网关串口命令******************************************************************/
    449               if(WaitFlag==1)                                  //串口数据等待标志为1
   \                     ??SampleApp_ProcessEvent_18:
   \   000299   90....       MOV     DPTR,#WaitFlag
   \   00029C   E0           MOVX    A,@DPTR
   \   00029D   6401         XRL     A,#0x1
   \   00029F   700B         JNZ     ??SampleApp_ProcessEvent_22
    450               {
    451                 Time_ms=5000;                                  //等待5S
   \   0002A1   90....       MOV     DPTR,#Time_ms
   \   0002A4   7488         MOV     A,#-0x78
   \   0002A6   F0           MOVX    @DPTR,A
   \   0002A7   A3           INC     DPTR
   \   0002A8   7413         MOV     A,#0x13
   \   0002AA   8029         SJMP    ??SampleApp_ProcessEvent_23
    452               }
    453          /******************正常计算每次睡眠的时间*************************************************************/
    454               else
    455               {
    456                 if(TimeCount>0)                                //如果最大定时时间的次数大于等于1
   \                     ??SampleApp_ProcessEvent_22:
   \   0002AC   90....       MOV     DPTR,#TimeCount
   \   0002AF   E0           MOVX    A,@DPTR
   \   0002B0   600C         JZ      ??SampleApp_ProcessEvent_24
    457                 {
    458                   TimeCount--;                                 //次数减1
   \   0002B2   14           DEC     A
   \   0002B3   F0           MOVX    @DPTR,A
    459                   Time_ms=Maxtime;                             //此次定时时间为最大定时时间
   \   0002B4   90....       MOV     DPTR,#Time_ms
   \   0002B7   E4           CLR     A
   \   0002B8   F0           MOVX    @DPTR,A
   \   0002B9   A3           INC     DPTR
   \   0002BA   74FA         MOV     A,#-0x6
   \   0002BC   8017         SJMP    ??SampleApp_ProcessEvent_23
    460                 }
    461                 else                                           //若最大定时时间次数为0
    462                 {
    463                   Time_ms=(uint16)Timeout;                     //此次定时时间为剩余定时时间
   \                     ??SampleApp_ProcessEvent_24:
   \   0002BE   90....       MOV     DPTR,#Timeout
   \   0002C1   78..         MOV     R0,#?V0 + 0
   \   0002C3   12....       LCALL   ?L_MOV_X
   \   0002C6   90....       MOV     DPTR,#Time_ms
   \   0002C9   E5..         MOV     A,?V0 + 0
   \   0002CB   F0           MOVX    @DPTR,A
   \   0002CC   A3           INC     DPTR
   \   0002CD   E5..         MOV     A,?V0 + 1
   \   0002CF   F0           MOVX    @DPTR,A
    464                   T_Online_Flag=1;                             //在线表发送标志位置1
   \   0002D0   90....       MOV     DPTR,#T_Online_Flag
   \   0002D3   7401         MOV     A,#0x1
   \                     ??SampleApp_ProcessEvent_23:
   \   0002D5   F0           MOVX    @DPTR,A
    465                 }
    466               }
    467          /*****************第二次发送在线表延时**************************************************************/
    468                if(TX_2==1)                                     //若第一次在线表发送成功
   \   0002D6   90....       MOV     DPTR,#TX_2
   \   0002D9   E0           MOVX    A,@DPTR
   \   0002DA   6401         XRL     A,#0x1
   \   0002DC   7012         JNZ     ??SampleApp_ProcessEvent_25
    469                {
    470                 TX_2=2;                                        //第二次发送标志位置2
   \   0002DE   7402         MOV     A,#0x2
   \   0002E0   F0           MOVX    @DPTR,A
    471                 T_Online_Flag=0;                               //发送标志位清零                            
   \   0002E1   90....       MOV     DPTR,#T_Online_Flag
   \   0002E4   E4           CLR     A
   \   0002E5   F0           MOVX    @DPTR,A
    472                 Time_ms=3000;                                  //间隔3S
   \   0002E6   90....       MOV     DPTR,#Time_ms
   \   0002E9   74B8         MOV     A,#-0x48
   \   0002EB   F0           MOVX    @DPTR,A
   \   0002EC   A3           INC     DPTR
   \   0002ED   740B         MOV     A,#0xb
   \   0002EF   F0           MOVX    @DPTR,A
    473                }
    474                
    475          //********************开启定时器**********************************************//
    476              osal_start_timerEx( SampleApp_TaskID, SAMPLEAPP_SEND_PERIODIC_MSG_EVT,
    477                  Time_ms);
   \                     ??SampleApp_ProcessEvent_25:
   \   0002F0                ; Setup parameters for call to function osal_start_timerEx
   \   0002F0   90....       MOV     DPTR,#Time_ms
   \   0002F3   E0           MOVX    A,@DPTR
   \   0002F4   FC           MOV     R4,A
   \   0002F5   A3           INC     DPTR
   \   0002F6   E0           MOVX    A,@DPTR
   \                     ??SampleApp_ProcessEvent_13:
   \   0002F7   FD           MOV     R5,A
    478              }
   \   0002F8   12....       LCALL   ?Subroutine5 & 0xFFFF
    479              // return unprocessed events
    480              return (events ^ SAMPLEAPP_SEND_PERIODIC_MSG_EVT);
   \                     ??CrossCallReturnLabel_7:
   \   0002FB   EE           MOV     A,R6
   \   0002FC   6401         XRL     A,#0x1
   \   0002FE   FA           MOV     R2,A
   \   0002FF   EF           MOV     A,R7
   \   000300   02....       LJMP    ??SampleApp_ProcessEvent_7 & 0xFFFF
    481            }
    482          
    483            // Discard unknown events
    484            return 0;
   \                     ??SampleApp_ProcessEvent_9:
   \   000303   7A00         MOV     R2,#0x0
   \   000305   7B00         MOV     R3,#0x0
   \                     ??SampleApp_ProcessEvent_8:
   \   000307   7F0C         MOV     R7,#0xc
   \   000309   02....       LJMP    ?BANKED_LEAVE_XDATA
    485          }

   \                                 In  segment BANKED_CODE, align 1, keep-with-next
   \                     ?Subroutine9:
   \   000000   3400         ADDC    A,#0x0
   \   000002   FD           MOV     R5,A
   \   000003   7A..         MOV     R2,#OnlineDEV & 0xff
   \   000005   7B..         MOV     R3,#(OnlineDEV >> 8) & 0xff
   \   000007   7900         MOV     R1,#0x0
   \   000009   12....       LCALL   ??HalUARTWrite?relay
   \   00000C   22           RET

   \                                 In  segment BANKED_CODE, align 1, keep-with-next
   \                     ?Subroutine6:
   \   000000   E0           MOVX    A,@DPTR
   \   000001   75F003       MOV     B,#0x3
   \   000004   A4           MUL     AB
   \   000005   F8           MOV     R0,A
   \   000006   A9F0         MOV     R1,B
   \   000008   22           RET

   \                                 In  segment BANKED_CODE, align 1, keep-with-next
   \                     ??Subroutine14_0:
   \   000000   3400         ADDC    A,#0x0
   \   000002   F583         MOV     DPH,A
   \   000004   E0           MOVX    A,@DPTR
   \   000005   22           RET

   \                                 In  segment BANKED_CODE, align 1, keep-with-next
   \                     ?Subroutine11:
   \   000000   E4           CLR     A
   \   000001   34FF         ADDC    A,#-0x1
   \   000003   F9           MOV     R1,A
   \   000004   E8           MOV     A,R0
   \   000005   75F00A       MOV     B,#0xa
   \   000008   A4           MUL     AB
   \   000009   F8           MOV     R0,A
   \   00000A   22           RET

   \                                 In  segment BANKED_CODE, align 1, keep-with-next
   \                     ?Subroutine10:
   \   000000   99           SUBB    A,R1
   \   000001   FD           MOV     R5,A
   \   000002   EC           MOV     A,R4
   \   000003   F8           MOV     R0,A
   \   000004   ED           MOV     A,R5
   \   000005   F9           MOV     R1,A
   \   000006   7A0A         MOV     R2,#0xa
   \   000008   7B00         MOV     R3,#0x0
   \   00000A   22           RET

   \                                 In  segment BANKED_CODE, align 1, keep-with-next
   \                     ?Subroutine2:
   \   000000   F0           MOVX    @DPTR,A
   \   000001   EC           MOV     A,R4
   \   000002   F8           MOV     R0,A
   \   000003   ED           MOV     A,R5
   \   000004   F9           MOV     R1,A
   \   000005   7A0A         MOV     R2,#0xa
   \   000007   7B00         MOV     R3,#0x0
   \   000009   22           RET
    486          
    487          /*********************************************************************
    488           * Event Generation Functions
    489           */
    490          /*********************************************************************
    491           * @fn      SampleApp_HandleKeys
    492           *
    493           * @brief   Handles all key events for this device.
    494           *
    495           * @param   shift - true if in shift/alt.
    496           * @param   keys - bit field for key events. Valid entries:
    497           *                 HAL_KEY_SW_2
    498           *                 HAL_KEY_SW_1
    499           *
    500           * @return  none
    501           */

   \                                 In  segment BANKED_CODE, align 1, keep-with-next
    502          void SampleApp_HandleKeys( uint8 shift, uint8 keys )
   \                     SampleApp_HandleKeys:
    503          {
   \   000000   74F6         MOV     A,#-0xa
   \   000002   12....       LCALL   ?BANKED_ENTER_XDATA
   \   000005                ; Saved register size: 10
   \   000005                ; Auto size: 0
   \   000005   EA           MOV     A,R2
   \   000006   FE           MOV     R6,A
    504            (void)shift;  // Intentionally unreferenced parameter
    505            
    506            if ( keys & HAL_KEY_SW_1 )
   \   000007   A2E0         MOV     C,0xE0 /* A   */.0
   \   000009   5007         JNC     ??SampleApp_HandleKeys_0
    507            {
    508              /* This key sends the Flash Command is sent to Group 1.
    509               * This device will not receive the Flash Command from this
    510               * device (even if it belongs to group 1).
    511               */
    512              SampleApp_SendFlashMessage( SAMPLEAPP_FLASH_DURATION );
   \   00000B                ; Setup parameters for call to function SampleApp_SendFlashMessage
   \   00000B   7AE8         MOV     R2,#-0x18
   \   00000D   7B03         MOV     R3,#0x3
   \   00000F   12....       LCALL   ??SampleApp_SendFlashMessage?relay
    513            }
    514          
    515            if ( keys & HAL_KEY_SW_2 )
   \                     ??SampleApp_HandleKeys_0:
   \   000012   EE           MOV     A,R6
   \   000013   A2E1         MOV     C,0xE0 /* A   */.1
   \   000015   5024         JNC     ??SampleApp_HandleKeys_1
    516            {
    517              /* The Flashr Command is sent to Group 1.
    518               * This key toggles this device in and out of group 1.
    519               * If this device doesn't belong to group 1, this application
    520               * will not receive the Flash command sent to group 1.
    521               */
    522              aps_Group_t *grp;
    523              grp = aps_FindGroup( SAMPLEAPP_ENDPOINT, SAMPLEAPP_FLASH_GROUP );
    524              if ( grp )
   \   000017                ; Setup parameters for call to function aps_FindGroup
   \   000017   7A01         MOV     R2,#0x1
   \   000019   7B00         MOV     R3,#0x0
   \   00001B   7914         MOV     R1,#0x14
   \   00001D   12....       LCALL   ??aps_FindGroup?relay
   \   000020   8B..         MOV     ?V0 + 1,R3
   \   000022   EA           MOV     A,R2
   \   000023   45..         ORL     A,?V0 + 1
   \   000025   600B         JZ      ??SampleApp_HandleKeys_2
    525              {
    526                // Remove from the group
    527                aps_RemoveGroup( SAMPLEAPP_ENDPOINT, SAMPLEAPP_FLASH_GROUP );
   \   000027                ; Setup parameters for call to function aps_RemoveGroup
   \   000027   7A01         MOV     R2,#0x1
   \   000029   7B00         MOV     R3,#0x0
   \   00002B   7914         MOV     R1,#0x14
   \   00002D   12....       LCALL   ??aps_RemoveGroup?relay
   \   000030   8009         SJMP    ??SampleApp_HandleKeys_1
    528              }
    529              else
    530              {
    531                // Add to the flash group
    532                aps_AddGroup( SAMPLEAPP_ENDPOINT, &SampleApp_Group );
   \                     ??SampleApp_HandleKeys_2:
   \   000032                ; Setup parameters for call to function aps_AddGroup
   \   000032   7A..         MOV     R2,#SampleApp_Group & 0xff
   \   000034   7B..         MOV     R3,#(SampleApp_Group >> 8) & 0xff
   \   000036   7914         MOV     R1,#0x14
   \   000038   12....       LCALL   ??aps_AddGroup?relay
    533              }
    534            }
    535          }
   \                     ??SampleApp_HandleKeys_1:
   \   00003B   80..         SJMP    ??Subroutine12_0

   \                                 In  segment BANKED_CODE, align 1, keep-with-next
   \                     ??Subroutine12_0:
   \   000000   7F02         MOV     R7,#0x2
   \   000002   02....       LJMP    ?BANKED_LEAVE_XDATA
    536          /******************************************************************************
    537          //判断字符串函数
    538          //返回1：纯数字或数字前面为空格  返回0：包含字母
    539          ******************************************************************************/

   \                                 In  segment BANKED_CODE, align 1, keep-with-next
    540          int isDigit(uint8 *x,uint8 n)
   \                     isDigit:
    541          {
   \   000000   74F6         MOV     A,#-0xa
   \   000002   12....       LCALL   ?BANKED_ENTER_XDATA
   \   000005                ; Saved register size: 10
   \   000005                ; Auto size: 0
    542            //检测数字字符串
    543            //如果字符串只含数字或者数字前面是空格，则返回1
    544            //否则返回0
    545            uint8 i,flag=0;
   \   000005   7C00         MOV     R4,#0x0
    546            for(i=0;i<n;i++)
   \   000007   7800         MOV     R0,#0x0
   \   000009   801D         SJMP    ??isDigit_0
    547              if(x[i]==' ' && flag==0)
   \                     ??isDigit_1:
   \   00000B   88..         MOV     ?V0 + 0,R0
   \   00000D   EA           MOV     A,R2
   \   00000E   25..         ADD     A,?V0 + 0
   \   000010   F582         MOV     DPL,A
   \   000012   EB           MOV     A,R3
   \   000013   12....       LCALL   ??Subroutine14_0 & 0xFFFF
   \                     ??CrossCallReturnLabel_21:
   \   000016   6420         XRL     A,#0x20
   \   000018   7003         JNZ     ??isDigit_2
   \   00001A   EC           MOV     A,R4
   \   00001B   600A         JZ      ??isDigit_3
    548                flag=0;
    549              else if(x[i]>='0' && x[i]<='9')
   \                     ??isDigit_2:
   \   00001D   E0           MOVX    A,@DPTR
   \   00001E   24D0         ADD     A,#-0x30
   \   000020   C3           CLR     C
   \   000021   940A         SUBB    A,#0xa
   \   000023   5010         JNC     ??isDigit_4
    550                flag=1;
   \   000025   7C01         MOV     R4,#0x1
   \                     ??isDigit_3:
   \   000027   08           INC     R0
   \                     ??isDigit_0:
   \   000028   E8           MOV     A,R0
   \   000029   C3           CLR     C
   \   00002A   99           SUBB    A,R1
   \   00002B   40DE         JC      ??isDigit_1
    551              else
    552                break;
    553              return (n==i);
   \   00002D   E8           MOV     A,R0
   \   00002E   69           XRL     A,R1
   \   00002F   7004         JNZ     ??isDigit_4
   \   000031   D2F0         SETB    B.0
   \   000033   8002         SJMP    ??isDigit_5
   \                     ??isDigit_4:
   \   000035   C2F0         CLR     B.0
   \                     ??isDigit_5:
   \   000037   A2F0         MOV     C,B.0
   \   000039   E4           CLR     A
   \   00003A   33           RLC     A
   \   00003B   FA           MOV     R2,A
   \   00003C   7B00         MOV     R3,#0x0
   \   00003E   80..         SJMP    ??Subroutine12_0
    554          }
    555          /*********************************************************************
    556           * LOCAL FUNCTIONS
    557           */
    558          
    559          /*********************************************************************
    560           * @fn      SampleApp_MessageMSGCB
    561           *
    562           * @brief   Data message processor callback.  This function processes
    563           *          any incoming data - probably from other devices.  So, based
    564           *          on cluster ID, perform the intended action.
    565           *
    566           * @param   none
    567           *
    568           * @return  none
    569           */

   \                                 In  segment BANKED_CODE, align 1, keep-with-next
   \                     ?Subroutine8:
   \   000000   EE           MOV     A,R6
   \   000001   2422         ADD     A,#0x22
   \   000003                REQUIRE ??Subroutine13_0
   \   000003                ; // Fall through to label ??Subroutine13_0

   \                                 In  segment BANKED_CODE, align 1, keep-with-next
   \                     ??Subroutine13_0:
   \   000000   F582         MOV     DPL,A
   \   000002   EF           MOV     A,R7
   \   000003                REQUIRE ??Subroutine14_0
   \   000003                ; // Fall through to label ??Subroutine14_0

   \                                 In  segment BANKED_CODE, align 1, keep-with-next
    570          void SampleApp_MessageMSGCB( afIncomingMSGPacket_t *pkt )
   \                     SampleApp_MessageMSGCB:
    571          {
   \   000000   74F5         MOV     A,#-0xb
   \   000002   12....       LCALL   ?BANKED_ENTER_XDATA
   \   000005                ; Saved register size: 11
   \   000005                ; Auto size: 25
   \   000005   74E7         MOV     A,#-0x19
   \   000007   12....       LCALL   ?ALLOC_XSTACK8
   \   00000A   EA           MOV     A,R2
   \   00000B   FE           MOV     R6,A
   \   00000C   EB           MOV     A,R3
   \   00000D   FF           MOV     R7,A
    572            uint16 flashTime;
    573            uint8 data[25]={0};                                        //接收数据缓存数组
   \   00000E   85..82       MOV     DPL,?XSP + 0
   \   000011   85..83       MOV     DPH,?XSP + 1
   \   000014   AC82         MOV     R4,DPL
   \   000016   AD83         MOV     R5,DPH
   \   000018   7583..       MOV     DPH,#(`?<Constant {0}>` >> 8) & 0xff
   \   00001B   7582..       MOV     DPL,#`?<Constant {0}>` & 0xff
   \   00001E   7419         MOV     A,#0x19
   \   000020   12....       LCALL   ?MOVE_LONG8_XDATA_XDATA
    574            uint8 addr_i;                                              //**************rssilevel;测强度
    575            int Hvalue;                                                //湿度数值
    576            switch ( pkt->clusterId )
   \   000023   8E82         MOV     DPL,R6
   \   000025   8F83         MOV     DPH,R7
   \   000027   A3           INC     DPTR
   \   000028   A3           INC     DPTR
   \   000029   A3           INC     DPTR
   \   00002A   A3           INC     DPTR
   \   00002B   E0           MOVX    A,@DPTR
   \   00002C   F5..         MOV     ?V0 + 0,A
   \   00002E   A3           INC     DPTR
   \   00002F   E0           MOVX    A,@DPTR
   \   000030   F5..         MOV     ?V0 + 1,A
   \   000032   78..         MOV     R0,#?V0 + 0
   \   000034   12....       LCALL   ?US_SWITCH_DENSE
   \                     `?<Jumptable for SampleApp_MessageMSGCB>_0`:
   \   000037   0200         DW        2
   \   000039   02           DB        2
   \   00003A   ....         DW        ??SampleApp_MessageMSGCB_0
   \   00003C   ....         DW        ??SampleApp_MessageMSGCB_1
   \   00003E   ....         DW        ??SampleApp_MessageMSGCB_0
   \   000040   ....         DW        ??SampleApp_MessageMSGCB_2
    577            {
    578              case SAMPLEAPP_PERIODIC_CLUSTERID:
    579          
    580                break;
    581                
    582              case SAMPLEAPP_P2P_CLUSTERID:
    583                 osal_memcpy(data,pkt->cmd.Data,pkt->cmd.DataLength);  //接收数据放入缓存数组
   \                     ??SampleApp_MessageMSGCB_2:
   \   000042                ; Setup parameters for call to function osal_memcpy
   \   000042   12....       LCALL   ?Subroutine8 & 0xFFFF
   \                     ??CrossCallReturnLabel_25:
   \   000045   F5..         MOV     ?V0 + 0,A
   \   000047   A3           INC     DPTR
   \   000048   E0           MOVX    A,@DPTR
   \   000049   F5..         MOV     ?V0 + 1,A
   \   00004B   75..00       MOV     ?V0 + 2,#0x0
   \   00004E   78..         MOV     R0,#?V0 + 0
   \   000050   12....       LCALL   ?PUSH_XSTACK_I_THREE
   \   000053   EE           MOV     A,R6
   \   000054   2420         ADD     A,#0x20
   \   000056   12....       LCALL   ??Subroutine13_0 & 0xFFFF
   \                     ??CrossCallReturnLabel_23:
   \   000059   FC           MOV     R4,A
   \   00005A   A3           INC     DPTR
   \   00005B   E0           MOVX    A,@DPTR
   \   00005C   FD           MOV     R5,A
   \   00005D   7403         MOV     A,#0x3
   \   00005F   12....       LCALL   ?XSTACK_DISP0_8
   \   000062   12....       LCALL   ?Subroutine4 & 0xFFFF
   \                     ??CrossCallReturnLabel_27:
   \   000065   12....       LCALL   ?DEALLOC_XSTACK8
    584          
    585          //检测信号强度**********************************************************
    586                 //rssilevel=macRadioEnergyDetectStop();               //停止检测 串口输出强度值
    587                 //rssi[0]=rssilevel/100+0x30;
    588                 // rssi[1]=rssilevel%100/10+0x30;
    589                 //rssi[2]=rssilevel%10+0x30;
    590                 //HalUARTWrite(0,rssi ,3);
    591                 //macRadioEnergyDetectStart();                        //再次开始检测
    592                 
    593          //**************************湿度爆表处理***********************************
    594                 if(data[12]==' ')
   \   000068   740C         MOV     A,#0xc
   \   00006A   12....       LCALL   ?XSTACK_DISP0_8
   \   00006D   E0           MOVX    A,@DPTR
   \   00006E   6420         XRL     A,#0x20
   \   000070   700E         JNZ     ??SampleApp_MessageMSGCB_3
    595                 {
    596                   Hvalue=data[13]-0x30;
   \   000072   740D         MOV     A,#0xd
   \   000074   12....       LCALL   ?XSTACK_DISP0_8
   \   000077   E0           MOVX    A,@DPTR
   \   000078   24D0         ADD     A,#-0x30
   \   00007A   F8           MOV     R0,A
   \   00007B   E4           CLR     A
   \   00007C   34FF         ADDC    A,#-0x1
   \   00007E   801C         SJMP    ??SampleApp_MessageMSGCB_4
    597                 }
    598                 else
    599                 {
    600                   Hvalue=(data[12]-0x30)*10+(data[13]-0x30);         
   \                     ??SampleApp_MessageMSGCB_3:
   \   000080   E0           MOVX    A,@DPTR
   \   000081   75F00A       MOV     B,#0xa
   \   000084   A4           MUL     AB
   \   000085   F8           MOV     R0,A
   \   000086   740D         MOV     A,#0xd
   \   000088   12....       LCALL   ?XSTACK_DISP0_8
   \   00008B   E0           MOVX    A,@DPTR
   \   00008C   FA           MOV     R2,A
   \   00008D   E8           MOV     A,R0
   \   00008E   2A           ADD     A,R2
   \   00008F   F8           MOV     R0,A
   \   000090   E5F0         MOV     A,B
   \   000092   3400         ADDC    A,#0x0
   \   000094   F9           MOV     R1,A
   \   000095   E8           MOV     A,R0
   \   000096   24F0         ADD     A,#-0x10
   \   000098   F8           MOV     R0,A
   \   000099   E9           MOV     A,R1
   \   00009A   34FD         ADDC    A,#-0x3
   \                     ??SampleApp_MessageMSGCB_4:
   \   00009C   F9           MOV     R1,A
    601                 }
    602                 if(Hvalue<0)                                         //湿度值小于0 置0
   \   00009D   C3           CLR     C
   \   00009E   E9           MOV     A,R1
   \   00009F   9400         SUBB    A,#0x0
   \   0000A1   A2D2         MOV     C,0xD0 /* PSW */.2
   \   0000A3   65D0         XRL     A,PSW
   \   0000A5   33           RLC     A
   \   0000A6   5011         JNC     ??SampleApp_MessageMSGCB_5
    603                 {
    604                   data[12]=' ';
   \   0000A8   740C         MOV     A,#0xc
   \   0000AA   12....       LCALL   ?XSTACK_DISP0_8
   \   0000AD   7420         MOV     A,#0x20
   \   0000AF   F0           MOVX    @DPTR,A
    605                   data[13]='0';
   \   0000B0   740D         MOV     A,#0xd
   \   0000B2   12....       LCALL   ?XSTACK_DISP0_8
   \   0000B5   7430         MOV     A,#0x30
   \   0000B7   801D         SJMP    ??SampleApp_MessageMSGCB_6
    606                 }
    607                 if(Hvalue>99)                                        //湿度值大于99 置99
   \                     ??SampleApp_MessageMSGCB_5:
   \   0000B9   C3           CLR     C
   \   0000BA   E8           MOV     A,R0
   \   0000BB   9464         SUBB    A,#0x64
   \   0000BD   E9           MOV     A,R1
   \   0000BE   9400         SUBB    A,#0x0
   \   0000C0   A2D2         MOV     C,0xD0 /* PSW */.2
   \   0000C2   65D0         XRL     A,PSW
   \   0000C4   33           RLC     A
   \   0000C5   4010         JC      ??SampleApp_MessageMSGCB_7
    608                 {
    609                   data[12]='9';
   \   0000C7   740C         MOV     A,#0xc
   \   0000C9   12....       LCALL   ?XSTACK_DISP0_8
   \   0000CC   7439         MOV     A,#0x39
   \   0000CE   F0           MOVX    @DPTR,A
    610                   data[13]='9';
   \   0000CF   740D         MOV     A,#0xd
   \   0000D1   12....       LCALL   ?XSTACK_DISP0_8
   \   0000D4   7439         MOV     A,#0x39
   \                     ??SampleApp_MessageMSGCB_6:
   \   0000D6   F0           MOVX    @DPTR,A
    611                 }
    612          //****************************温度范围规范化********************************       
    613          //data:
    614                 //5:' ' or '-'
    615                 //6: 温度十位
    616                 //7:温度各位
    617                 //8:'.'
    618                 //9:温度十分位
    619                 //10:温度百分位
    620                 if((data[5]!=' ' && data[5]!='-') || data[8]!='.' || 
    621                    !isDigit(&data[6],2) || !isDigit(&data[9],2))
   \                     ??SampleApp_MessageMSGCB_7:
   \   0000D7   7405         MOV     A,#0x5
   \   0000D9   12....       LCALL   ?XSTACK_DISP0_8
   \   0000DC   E0           MOVX    A,@DPTR
   \   0000DD   6420         XRL     A,#0x20
   \   0000DF   6005         JZ      ??SampleApp_MessageMSGCB_8
   \   0000E1   E0           MOVX    A,@DPTR
   \   0000E2   642D         XRL     A,#0x2d
   \   0000E4   7022         JNZ     ??SampleApp_MessageMSGCB_9
   \                     ??SampleApp_MessageMSGCB_8:
   \   0000E6   7408         MOV     A,#0x8
   \   0000E8   12....       LCALL   ?XSTACK_DISP0_8
   \   0000EB   E0           MOVX    A,@DPTR
   \   0000EC   642E         XRL     A,#0x2e
   \   0000EE   7018         JNZ     ??SampleApp_MessageMSGCB_9
   \   0000F0                ; Setup parameters for call to function isDigit
   \   0000F0   7902         MOV     R1,#0x2
   \   0000F2   7406         MOV     A,#0x6
   \   0000F4   12....       LCALL   ?XSTACK_DISP0_8
   \   0000F7   12....       LCALL   ?Subroutine7 & 0xFFFF
   \                     ??CrossCallReturnLabel_10:
   \   0000FA   600C         JZ      ??SampleApp_MessageMSGCB_9
   \   0000FC                ; Setup parameters for call to function isDigit
   \   0000FC   7902         MOV     R1,#0x2
   \   0000FE   7409         MOV     A,#0x9
   \   000100   12....       LCALL   ?XSTACK_DISP0_8
   \   000103   12....       LCALL   ?Subroutine7 & 0xFFFF
   \                     ??CrossCallReturnLabel_11:
   \   000106   7019         JNZ     ??SampleApp_MessageMSGCB_10
    622                   osal_memcpy(&data[4],"T-99.88",7);
   \                     ??SampleApp_MessageMSGCB_9:
   \   000108                ; Setup parameters for call to function osal_memcpy
   \   000108   75....       MOV     ?V0 + 0,#`?<Constant "T-99.88">` & 0xff
   \   00010B   75....       MOV     ?V0 + 1,#(`?<Constant "T-99.88">` >> 8) & 0xff
   \   00010E   78..         MOV     R0,#?V0 + 0
   \   000110   12....       LCALL   ?PUSH_XSTACK_I_THREE
   \   000113   7C07         MOV     R4,#0x7
   \   000115   7D00         MOV     R5,#0x0
   \   000117   EC           MOV     A,R4
   \   000118   12....       LCALL   ?XSTACK_DISP0_8
   \   00011B   12....       LCALL   ?Subroutine4 & 0xFFFF
   \                     ??CrossCallReturnLabel_28:
   \   00011E   12....       LCALL   ?DEALLOC_XSTACK8
    623          //****************************湿度范围规范化********************************       
    624          //data:
    625                 //12: 湿度十位
    626                 //13：湿度各位
    627                 if(!isDigit(&data[12],2))
   \                     ??SampleApp_MessageMSGCB_10:
   \   000121                ; Setup parameters for call to function isDigit
   \   000121   7902         MOV     R1,#0x2
   \   000123   740C         MOV     A,#0xc
   \   000125   12....       LCALL   ?XSTACK_DISP0_8
   \   000128   12....       LCALL   ?Subroutine7 & 0xFFFF
   \                     ??CrossCallReturnLabel_12:
   \   00012B   701A         JNZ     ??SampleApp_MessageMSGCB_11
    628                   osal_memcpy(&data[12],"-8",2);
   \   00012D                ; Setup parameters for call to function osal_memcpy
   \   00012D   75....       MOV     ?V0 + 0,#`?<Constant "-8">` & 0xff
   \   000130   75....       MOV     ?V0 + 1,#(`?<Constant "-8">` >> 8) & 0xff
   \   000133   78..         MOV     R0,#?V0 + 0
   \   000135   12....       LCALL   ?PUSH_XSTACK_I_THREE
   \   000138   7C02         MOV     R4,#0x2
   \   00013A   7D00         MOV     R5,#0x0
   \   00013C   740F         MOV     A,#0xf
   \   00013E   12....       LCALL   ?XSTACK_DISP0_8
   \   000141   12....       LCALL   ?Subroutine4 & 0xFFFF
   \                     ??CrossCallReturnLabel_29:
   \   000144   12....       LCALL   ?DEALLOC_XSTACK8
    629          //****************************光照范围规范化********************************       
    630          //data:
    631                 //15: 光照万位
    632                 //16：光照千位
    633                 //17: 光照百位
    634                 //18：光照十位
    635                 //19：光照个位
    636                 if(!isDigit(&data[15],5))
   \                     ??SampleApp_MessageMSGCB_11:
   \   000147                ; Setup parameters for call to function isDigit
   \   000147   7905         MOV     R1,#0x5
   \   000149   740F         MOV     A,#0xf
   \   00014B   12....       LCALL   ?XSTACK_DISP0_8
   \   00014E   12....       LCALL   ?Subroutine7 & 0xFFFF
   \                     ??CrossCallReturnLabel_13:
   \   000151   701A         JNZ     ??SampleApp_MessageMSGCB_12
    637                   osal_memcpy(&data[15],"65528",5);
   \   000153                ; Setup parameters for call to function osal_memcpy
   \   000153   75....       MOV     ?V0 + 0,#`?<Constant "65528">` & 0xff
   \   000156   75....       MOV     ?V0 + 1,#(`?<Constant "65528">` >> 8) & 0xff
   \   000159   78..         MOV     R0,#?V0 + 0
   \   00015B   12....       LCALL   ?PUSH_XSTACK_I_THREE
   \   00015E   7C05         MOV     R4,#0x5
   \   000160   7D00         MOV     R5,#0x0
   \   000162   7412         MOV     A,#0x12
   \   000164   12....       LCALL   ?XSTACK_DISP0_8
   \   000167   12....       LCALL   ?Subroutine4 & 0xFFFF
   \                     ??CrossCallReturnLabel_30:
   \   00016A   12....       LCALL   ?DEALLOC_XSTACK8
    638          //********************错误格式转换*****************************************
    639                 if(data[4]=='E')
   \                     ??SampleApp_MessageMSGCB_12:
   \   00016D   7404         MOV     A,#0x4
   \   00016F   12....       LCALL   ?XSTACK_DISP0_8
   \   000172   E0           MOVX    A,@DPTR
   \   000173   6445         XRL     A,#0x45
   \   000175   701A         JNZ     ??SampleApp_MessageMSGCB_13
    640                 {
    641                   osal_memcpy(&data[4],"T-99.77H-7",10);
   \   000177                ; Setup parameters for call to function osal_memcpy
   \   000177   75....       MOV     ?V0 + 0,#`?<Constant "T-99.77H-7">` & 0xff
   \   00017A   75....       MOV     ?V0 + 1,#(`?<Constant "T-99.77H-7">` >> 8) & 0xff
   \   00017D   78..         MOV     R0,#?V0 + 0
   \   00017F   12....       LCALL   ?PUSH_XSTACK_I_THREE
   \   000182   7C0A         MOV     R4,#0xa
   \   000184   7D00         MOV     R5,#0x0
   \   000186   7407         MOV     A,#0x7
   \   000188   12....       LCALL   ?XSTACK_DISP0_8
   \   00018B   12....       LCALL   ?Subroutine4 & 0xFFFF
    642                 }
   \                     ??CrossCallReturnLabel_31:
   \   00018E   12....       LCALL   ?DEALLOC_XSTACK8
    643                 if(data[14]=='E')
   \                     ??SampleApp_MessageMSGCB_13:
   \   000191   740E         MOV     A,#0xe
   \   000193   12....       LCALL   ?XSTACK_DISP0_8
   \   000196   E0           MOVX    A,@DPTR
   \   000197   6445         XRL     A,#0x45
   \   000199   701A         JNZ     ??SampleApp_MessageMSGCB_14
    644                 {
    645                   osal_memcpy(&data[14],"I65527",6);
   \   00019B                ; Setup parameters for call to function osal_memcpy
   \   00019B   75....       MOV     ?V0 + 0,#`?<Constant "I65527">` & 0xff
   \   00019E   75....       MOV     ?V0 + 1,#(`?<Constant "I65527">` >> 8) & 0xff
   \   0001A1   78..         MOV     R0,#?V0 + 0
   \   0001A3   12....       LCALL   ?PUSH_XSTACK_I_THREE
   \   0001A6   7C06         MOV     R4,#0x6
   \   0001A8   7D00         MOV     R5,#0x0
   \   0001AA   7411         MOV     A,#0x11
   \   0001AC   12....       LCALL   ?XSTACK_DISP0_8
   \   0001AF   12....       LCALL   ?Subroutine4 & 0xFFFF
    646                 }
   \                     ??CrossCallReturnLabel_32:
   \   0001B2   12....       LCALL   ?DEALLOC_XSTACK8
    647                 
    648          //****************接收数据处理************************************************//
    649                 if((data[0]=='D') && (pkt->cmd.DataLength==21))                 //若数据首字符为'D' 长度为21 为采集数据
   \                     ??SampleApp_MessageMSGCB_14:
   \   0001B5   85..82       MOV     DPL,?XSP + 0
   \   0001B8   85..83       MOV     DPH,?XSP + 1
   \   0001BB   E0           MOVX    A,@DPTR
   \   0001BC   6444         XRL     A,#0x44
   \   0001BE   7061         JNZ     ??SampleApp_MessageMSGCB_15
   \   0001C0   EE           MOV     A,R6
   \   0001C1   2420         ADD     A,#0x20
   \   0001C3   12....       LCALL   ??Subroutine13_0 & 0xFFFF
   \                     ??CrossCallReturnLabel_24:
   \   0001C6   6415         XRL     A,#0x15
   \   0001C8   7002         JNZ     ??SampleApp_MessageMSGCB_16
   \   0001CA   A3           INC     DPTR
   \   0001CB   E0           MOVX    A,@DPTR
   \                     ??SampleApp_MessageMSGCB_16:
   \   0001CC   6003         JZ      $+5
   \   0001CE   02....       LJMP    ??SampleApp_MessageMSGCB_0 & 0xFFFF
    650                 {
    651                   HalUARTWrite(0, data, pkt->cmd.DataLength);                   //串口上传接收数据
   \   0001D1                ; Setup parameters for call to function HalUARTWrite
   \   0001D1   7C15         MOV     R4,#0x15
   \   0001D3   7D00         MOV     R5,#0x0
   \   0001D5   85..82       MOV     DPL,?XSP + 0
   \   0001D8   85..83       MOV     DPH,?XSP + 1
   \   0001DB   AA82         MOV     R2,DPL
   \   0001DD   AB83         MOV     R3,DPH
   \   0001DF   7900         MOV     R1,#0x0
   \   0001E1   12....       LCALL   ??HalUARTWrite?relay
    652                   addr_i=(data[1]-0x41)*ABLen+(data[2]-0x30)*10+(data[3]-0x30); //计算节点地址标号
   \   0001E4   7403         MOV     A,#0x3
   \   0001E6   12....       LCALL   ?XSTACK_DISP0_8
   \   0001E9   C082         PUSH    DPL
   \   0001EB   C083         PUSH    DPH
   \   0001ED   75F00A       MOV     B,#0xa
   \   0001F0   7402         MOV     A,#0x2
   \   0001F2   12....       LCALL   ?XSTACK_DISP0_8
   \   0001F5   C082         PUSH    DPL
   \   0001F7   C083         PUSH    DPH
   \   0001F9   7401         MOV     A,#0x1
   \   0001FB   12....       LCALL   ?XSTACK_DISP0_8
   \   0001FE   E0           MOVX    A,@DPTR
   \   0001FF   D083         POP     DPH
   \   000201   D082         POP     DPL
   \   000203   F8           MOV     R0,A
   \   000204   E0           MOVX    A,@DPTR
   \   000205   28           ADD     A,R0
   \   000206   A4           MUL     AB
   \   000207   D083         POP     DPH
   \   000209   D082         POP     DPL
   \   00020B   F8           MOV     R0,A
   \   00020C   E0           MOVX    A,@DPTR
   \   00020D   28           ADD     A,R0
   \   00020E   2466         ADD     A,#0x66
   \   000210   F5..         MOV     ?V0 + 0,A
    653                   DataFlag[addr_i-1]++;                                         //相应地址标号的在线标志位加1
   \   000212   74..         MOV     A,#(DataFlag + 255) & 0xff
   \   000214   25..         ADD     A,?V0 + 0
   \   000216   F582         MOV     DPL,A
   \   000218   74..         MOV     A,#((DataFlag - 1) >> 8) & 0xff
   \   00021A   12....       LCALL   ??Subroutine14_0 & 0xFFFF
    654                 }
   \                     ??CrossCallReturnLabel_22:
   \   00021D   04           INC     A
   \   00021E   F0           MOVX    @DPTR,A
   \   00021F   806B         SJMP    ??SampleApp_MessageMSGCB_0
    655                 else if(data[0]=='T')                                           //若数据首字符为'T' 为时钟同步请求
   \                     ??SampleApp_MessageMSGCB_15:
   \   000221   E0           MOVX    A,@DPTR
   \   000222   6454         XRL     A,#0x54
   \   000224   7066         JNZ     ??SampleApp_MessageMSGCB_0
    656                 {
    657                   SampleApp_SendPeriodicMessage((data[1]-0x41)*ABLen+(data[2]-0x30)*10+(data[3]-0x30),0x01);
   \   000226                ; Setup parameters for call to function SampleApp_SendPeriodicMessage
   \   000226   7A01         MOV     R2,#0x1
   \   000228   7403         MOV     A,#0x3
   \   00022A   12....       LCALL   ?XSTACK_DISP0_8
   \   00022D   C082         PUSH    DPL
   \   00022F   C083         PUSH    DPH
   \   000231   75F00A       MOV     B,#0xa
   \   000234   7402         MOV     A,#0x2
   \   000236   12....       LCALL   ?XSTACK_DISP0_8
   \   000239   C082         PUSH    DPL
   \   00023B   C083         PUSH    DPH
   \   00023D   EA           MOV     A,R2
   \   00023E   12....       LCALL   ?XSTACK_DISP0_8
   \   000241   E0           MOVX    A,@DPTR
   \   000242   D083         POP     DPH
   \   000244   D082         POP     DPL
   \   000246   F8           MOV     R0,A
   \   000247   E0           MOVX    A,@DPTR
   \   000248   28           ADD     A,R0
   \   000249   A4           MUL     AB
   \   00024A   D083         POP     DPH
   \   00024C   D082         POP     DPL
   \   00024E   F8           MOV     R0,A
   \   00024F   E0           MOVX    A,@DPTR
   \   000250   28           ADD     A,R0
   \   000251   2466         ADD     A,#0x66
   \   000253   F9           MOV     R1,A
   \   000254   12....       LCALL   ??SampleApp_SendPeriodicMessage?relay
   \   000257   8033         SJMP    ??SampleApp_MessageMSGCB_0
    658                 }
    659                break;  
    660                
    661              case SAMPLEAPP_FLASH_CLUSTERID:
    662                flashTime = BUILD_UINT16(pkt->cmd.Data[1], pkt->cmd.Data[2] );
    663                HalLedBlink( HAL_LED_4, 4, 50, (flashTime / 4) );
   \                     ??SampleApp_MessageMSGCB_1:
   \   000259   12....       LCALL   ?Subroutine8 & 0xFFFF
   \                     ??CrossCallReturnLabel_26:
   \   00025C   F8           MOV     R0,A
   \   00025D   A3           INC     DPTR
   \   00025E   E0           MOVX    A,@DPTR
   \   00025F   F9           MOV     R1,A
   \   000260                ; Setup parameters for call to function HalLedBlink
   \   000260   8882         MOV     DPL,R0
   \   000262   8983         MOV     DPH,R1
   \   000264   A3           INC     DPTR
   \   000265   E0           MOVX    A,@DPTR
   \   000266   FA           MOV     R2,A
   \   000267   8882         MOV     DPL,R0
   \   000269   8983         MOV     DPH,R1
   \   00026B   A3           INC     DPTR
   \   00026C   A3           INC     DPTR
   \   00026D   E0           MOVX    A,@DPTR
   \   00026E   F9           MOV     R1,A
   \   00026F   EA           MOV     A,R2
   \   000270   2400         ADD     A,#0x0
   \   000272   F5..         MOV     ?V0 + 0,A
   \   000274   E4           CLR     A
   \   000275   39           ADDC    A,R1
   \   000276   F5..         MOV     ?V0 + 1,A
   \   000278   7402         MOV     A,#0x2
   \   00027A   78..         MOV     R0,#?V0 + 0
   \   00027C   12....       LCALL   ?US_SHR
   \   00027F   AC..         MOV     R4,?V0 + 0
   \   000281   AD..         MOV     R5,?V0 + 1
   \   000283   7B32         MOV     R3,#0x32
   \   000285   7A04         MOV     R2,#0x4
   \   000287   7908         MOV     R1,#0x8
   \   000289   12....       LCALL   ??HalLedBlink?relay
    664                break;
    665            }
    666          }
   \                     ??SampleApp_MessageMSGCB_0:
   \   00028C   7419         MOV     A,#0x19
   \   00028E   12....       LCALL   ?DEALLOC_XSTACK8
   \   000291   02....       LJMP    ?Subroutine0 & 0xFFFF

   \                                 In  segment BANKED_CODE, align 1, keep-with-next
   \                     ?Subroutine7:
   \   000000   AA82         MOV     R2,DPL
   \   000002   AB83         MOV     R3,DPH
   \   000004   12....       LCALL   ??isDigit?relay
   \   000007   8B..         MOV     ?V0 + 1,R3
   \   000009   EA           MOV     A,R2
   \   00000A   45..         ORL     A,?V0 + 1
   \   00000C   22           RET

   \                                 In  segment BANKED_CODE, align 1, keep-with-next
   \                     ?Subroutine4:
   \   000000   AA82         MOV     R2,DPL
   \   000002   AB83         MOV     R3,DPH
   \   000004                REQUIRE ??Subroutine15_0
   \   000004                ; // Fall through to label ??Subroutine15_0
    667          
    668          /*********************************************************************
    669           * @fn      SampleApp_SendPeriodicMessage
    670           *
    671           * @brief   Send the periodic message.
    672           *
    673           * @param   none
    674           *
    675           * @return  none
    676           */

   \                                 In  segment BANKED_CODE, align 1, keep-with-next
    677          void SampleApp_SendPeriodicMessage(uint8 ADR,uint8 select)
   \                     SampleApp_SendPeriodicMessage:
    678          {
   \   000000   74F0         MOV     A,#-0x10
   \   000002   12....       LCALL   ?BANKED_ENTER_XDATA
   \   000005                ; Saved register size: 16
   \   000005                ; Auto size: 20
   \   000005   74EC         MOV     A,#-0x14
   \   000007   12....       LCALL   ?ALLOC_XSTACK8
   \   00000A   E9           MOV     A,R1
   \   00000B   FF           MOV     R7,A
   \   00000C   EA           MOV     A,R2
   \   00000D   FE           MOV     R6,A
    679            UTCTime utime;                              //32位时钟数据
    680            uint8 data[20]="D";                         //数据首字母为'D'
   \   00000E   85..82       MOV     DPL,?XSP + 0
   \   000011   85..83       MOV     DPH,?XSP + 1
   \   000014   AC82         MOV     R4,DPL
   \   000016   AD83         MOV     R5,DPH
   \   000018   7583..       MOV     DPH,#(`?<Constant "D">` >> 8) & 0xff
   \   00001B   7582..       MOV     DPL,#`?<Constant "D">` & 0xff
   \   00001E   7414         MOV     A,#0x14
   \   000020   12....       LCALL   ?MOVE_LONG8_XDATA_XDATA
    681            data[1]=(ADR-1)/ABLen+0x41;                 //计算第一位地址 为字母A B C
   \   000023   8F82         MOV     DPL,R7
   \   000025   AC82         MOV     R4,DPL
   \   000027   EC           MOV     A,R4
   \   000028   24FF         ADD     A,#-0x1
   \   00002A   F8           MOV     R0,A
   \   00002B   E4           CLR     A
   \   00002C   34FF         ADDC    A,#-0x1
   \   00002E   F9           MOV     R1,A
   \   00002F   7A0A         MOV     R2,#0xa
   \   000031   7B00         MOV     R3,#0x0
   \   000033   12....       LCALL   ?S_DIV_MOD
   \   000036   E8           MOV     A,R0
   \   000037   2441         ADD     A,#0x41
   \   000039   F5..         MOV     ?V0 + 0,A
   \   00003B   7401         MOV     A,#0x1
   \   00003D   12....       LCALL   ?XSTACK_DISP0_8
   \   000040   E5..         MOV     A,?V0 + 0
   \   000042   F0           MOVX    @DPTR,A
    682            data[2]=(ADR-(data[1]-0X41)*ABLen)/10+0x30; //计算第二位地址 
   \   000043   24BF         ADD     A,#-0x41
   \   000045   12....       LCALL   ?Subroutine11 & 0xFFFF
   \                     ??CrossCallReturnLabel_19:
   \   000048   AAF0         MOV     R2,B
   \   00004A   75F00A       MOV     B,#0xa
   \   00004D   E9           MOV     A,R1
   \   00004E   A4           MUL     AB
   \   00004F   2A           ADD     A,R2
   \   000050   F9           MOV     R1,A
   \   000051   EC           MOV     A,R4
   \   000052   C3           CLR     C
   \   000053   98           SUBB    A,R0
   \   000054   FC           MOV     R4,A
   \   000055   E4           CLR     A
   \   000056   12....       LCALL   ?Subroutine10 & 0xFFFF
   \                     ??CrossCallReturnLabel_17:
   \   000059   12....       LCALL   ?S_DIV_MOD
   \   00005C   E8           MOV     A,R0
   \   00005D   2430         ADD     A,#0x30
   \   00005F   C0E0         PUSH    A
   \   000061   7402         MOV     A,#0x2
   \   000063   12....       LCALL   ?XSTACK_DISP0_8
   \   000066   D0E0         POP     A
   \   000068   12....       LCALL   ?Subroutine2 & 0xFFFF
    683            data[3]=(ADR-(data[1]-0X41)*ABLen)%10+0x30; //计算第三位地址 1-10
   \                     ??CrossCallReturnLabel_1:
   \   00006B   12....       LCALL   ?S_DIV_MOD
   \   00006E   EA           MOV     A,R2
   \   00006F   2430         ADD     A,#0x30
   \   000071   C0E0         PUSH    A
   \   000073   7403         MOV     A,#0x3
   \   000075   12....       LCALL   ?XSTACK_DISP0_8
   \   000078   D0E0         POP     A
   \   00007A   F0           MOVX    @DPTR,A
    684          
    685            if(select==0x01)                            //发送选择为1
   \   00007B   7401         MOV     A,#0x1
   \   00007D   6E           XRL     A,R6
   \   00007E   7072         JNZ     ??SampleApp_SendPeriodicMessage_0
    686            {
    687              utime=osal_GetSystemClock();              //获得定时器数据
   \   000080                ; Setup parameters for call to function osal_GetSystemClock
   \   000080   12....       LCALL   ??osal_GetSystemClock?relay
    688              data[4]=utime>>24;                        //32-25
   \   000083   7404         MOV     A,#0x4
   \   000085   12....       LCALL   ?XSTACK_DISP0_8
   \   000088   ED           MOV     A,R5
   \   000089   F0           MOVX    @DPTR,A
    689              data[5]=utime>>16;                        //24-17
   \   00008A   7405         MOV     A,#0x5
   \   00008C   12....       LCALL   ?XSTACK_DISP0_8
   \   00008F   EC           MOV     A,R4
   \   000090   F0           MOVX    @DPTR,A
    690              data[6]=utime>>8;                         //16-9
   \   000091   7406         MOV     A,#0x6
   \   000093   12....       LCALL   ?XSTACK_DISP0_8
   \   000096   EB           MOV     A,R3
   \   000097   F0           MOVX    @DPTR,A
    691              data[7]=utime;                            //8-1 
   \   000098   7407         MOV     A,#0x7
   \   00009A   12....       LCALL   ?XSTACK_DISP0_8
   \   00009D   EA           MOV     A,R2
   \   00009E   F0           MOVX    @DPTR,A
    692              data[8]=Mode;                             //工作模式
   \   00009F   90....       MOV     DPTR,#Mode
   \   0000A2   E0           MOVX    A,@DPTR
   \   0000A3   C0E0         PUSH    A
   \   0000A5   7408         MOV     A,#0x8
   \   0000A7   12....       LCALL   ?XSTACK_DISP0_8
   \   0000AA   D0E0         POP     A
   \   0000AC   12....       LCALL   ?Subroutine3 & 0xFFFF
    693              if ( AF_DataRequest( &SampleApp_Periodic_DstAddr, &SampleApp_epDesc,
    694                                   SAMPLEAPP_PERIODIC_CLUSTERID,
    695                                   9,
    696                                   data,
    697                                   &SampleApp_TransID,
    698                                   AF_DISCV_ROUTE,
    699                                   AF_DEFAULT_RADIUS ) == afStatus_SUCCESS )
    700              {
    701              }
    702              else
    703              {
    704                  // Error occurred in request to send.
    705              }
    706            }
   \                     ??CrossCallReturnLabel_2:
   \   0000AF   12....       LCALL   ?PUSH_XSTACK_I_ONE
   \   0000B2   75....       MOV     ?V0 + 0,#SampleApp_TransID & 0xff
   \   0000B5   75....       MOV     ?V0 + 1,#(SampleApp_TransID >> 8) & 0xff
   \   0000B8   78..         MOV     R0,#?V0 + 0
   \   0000BA   12....       LCALL   ?PUSH_XSTACK_I_TWO
   \   0000BD   7403         MOV     A,#0x3
   \   0000BF   12....       LCALL   ?XSTACK_DISP0_8
   \   0000C2   8582..       MOV     ?V0 + 0,DPL
   \   0000C5   8583..       MOV     ?V0 + 1,DPH
   \   0000C8   78..         MOV     R0,#?V0 + 0
   \   0000CA   12....       LCALL   ?PUSH_XSTACK_I_TWO
   \   0000CD   75..09       MOV     ?V0 + 0,#0x9
   \   0000D0   75..00       MOV     ?V0 + 1,#0x0
   \   0000D3   78..         MOV     R0,#?V0 + 0
   \   0000D5   12....       LCALL   ?PUSH_XSTACK_I_TWO
   \   0000D8   75..01       MOV     ?V0 + 0,#0x1
   \   0000DB   78..         MOV     R0,#?V0 + 0
   \   0000DD   12....       LCALL   ?PUSH_XSTACK_I_TWO
   \   0000E0   7920         MOV     R1,#0x20
   \   0000E2   7C..         MOV     R4,#SampleApp_epDesc & 0xff
   \   0000E4   7D..         MOV     R5,#(SampleApp_epDesc >> 8) & 0xff
   \   0000E6   7A..         MOV     R2,#SampleApp_Periodic_DstAddr & 0xff
   \   0000E8   7B..         MOV     R3,#(SampleApp_Periodic_DstAddr >> 8) & 0xff
   \   0000EA   12....       LCALL   ??AF_DataRequest?relay
   \   0000ED   7409         MOV     A,#0x9
   \   0000EF   12....       LCALL   ?DEALLOC_XSTACK8
    707          /*  else if(select==0x02)
    708            {
    709              osal_memcpy(&data[4],"ASK",3);
    710              if ( AF_DataRequest( &SampleApp_Periodic_DstAddr, &SampleApp_epDesc,
    711                                   SAMPLEAPP_PERIODIC_CLUSTERID,
    712                                   7,
    713                                   data,
    714                                   &SampleApp_TransID,
    715                                   AF_DISCV_ROUTE,
    716                                   AF_DEFAULT_RADIUS ) == afStatus_SUCCESS )
    717              {
    718              }
    719              else
    720              {
    721                // Error occurred in request to send.
    722              }
    723            }*/
    724          }
   \                     ??SampleApp_SendPeriodicMessage_0:
   \   0000F2   7414         MOV     A,#0x14
   \   0000F4   12....       LCALL   ?DEALLOC_XSTACK8
   \   0000F7   7F08         MOV     R7,#0x8
   \   0000F9   02....       LJMP    ?BANKED_LEAVE_XDATA

   \                                 In  segment BANKED_CODE, align 1, keep-with-next
   \                     ?Subroutine3:
   \   000000   F0           MOVX    @DPTR,A
   \   000001                ; Setup parameters for call to function AF_DataRequest
   \   000001                ; Setup parameters for call to function AF_DataRequest
   \   000001                ; Setup parameters for call to function AF_DataRequest
   \   000001   75..1E       MOV     ?V0 + 0,#0x1e
   \   000004   78..         MOV     R0,#?V0 + 0
   \   000006   22           RET
    725          
    726          /*********************************************************************
    727           * @fn      SampleApp_SendFlashMessage
    728           *
    729           * @brief   Send the flash message to group 1.
    730           *
    731           * @param   flashTime - in milliseconds
    732           *
    733           * @return  none
    734           */

   \                                 In  segment BANKED_CODE, align 1, keep-with-next
   \                     ?Subroutine1:
   \   000000   12....       LCALL   ??AF_DataRequest?relay
   \   000003   7409         MOV     A,#0x9
   \   000005   12....       LCALL   ?DEALLOC_XSTACK8
   \   000008   7403         MOV     A,#0x3
   \   00000A   12....       LCALL   ?DEALLOC_XSTACK8
   \   00000D                REQUIRE ??Subroutine12_0
   \   00000D                ; // Fall through to label ??Subroutine12_0

   \                                 In  segment BANKED_CODE, align 1, keep-with-next
    735          void SampleApp_SendFlashMessage( uint16 flashTime )
   \                     SampleApp_SendFlashMessage:
    736          {
   \   000000   74F6         MOV     A,#-0xa
   \   000002   12....       LCALL   ?BANKED_ENTER_XDATA
   \   000005                ; Saved register size: 10
   \   000005                ; Auto size: 3
   \   000005   74FD         MOV     A,#-0x3
   \   000007   12....       LCALL   ?ALLOC_XSTACK8
    737            uint8 buffer[3];
    738            buffer[0] = (uint8)(SampleAppFlashCounter++);
   \   00000A   90....       MOV     DPTR,#SampleAppFlashCounter
   \   00000D   E0           MOVX    A,@DPTR
   \   00000E   85..82       MOV     DPL,?XSP + 0
   \   000011   85..83       MOV     DPH,?XSP + 1
   \   000014   F0           MOVX    @DPTR,A
   \   000015   90....       MOV     DPTR,#SampleAppFlashCounter
   \   000018   E0           MOVX    A,@DPTR
   \   000019   04           INC     A
   \   00001A   F0           MOVX    @DPTR,A
    739            buffer[1] = LO_UINT16( flashTime );
   \   00001B   7401         MOV     A,#0x1
   \   00001D   12....       LCALL   ?XSTACK_DISP0_8
   \   000020   EA           MOV     A,R2
   \   000021   F0           MOVX    @DPTR,A
    740            buffer[2] = HI_UINT16( flashTime );
   \   000022   7402         MOV     A,#0x2
   \   000024   12....       LCALL   ?XSTACK_DISP0_8
   \   000027   EB           MOV     A,R3
   \   000028   12....       LCALL   ?Subroutine3 & 0xFFFF
    741          
    742            if ( AF_DataRequest( &SampleApp_Flash_DstAddr, &SampleApp_epDesc,
    743                                 SAMPLEAPP_FLASH_CLUSTERID,
    744                                 3,
    745                                 buffer,
    746                                 &SampleApp_TransID,
    747                                 AF_DISCV_ROUTE,
    748                                 AF_DEFAULT_RADIUS ) == afStatus_SUCCESS )
   \                     ??CrossCallReturnLabel_3:
   \   00002B   12....       LCALL   ?PUSH_XSTACK_I_ONE
   \   00002E   75....       MOV     ?V0 + 0,#SampleApp_TransID & 0xff
   \   000031   75....       MOV     ?V0 + 1,#(SampleApp_TransID >> 8) & 0xff
   \   000034   78..         MOV     R0,#?V0 + 0
   \   000036   12....       LCALL   ?PUSH_XSTACK_I_TWO
   \   000039   7403         MOV     A,#0x3
   \   00003B   12....       LCALL   ?XSTACK_DISP0_8
   \   00003E   8582..       MOV     ?V0 + 0,DPL
   \   000041   8583..       MOV     ?V0 + 1,DPH
   \   000044   78..         MOV     R0,#?V0 + 0
   \   000046   12....       LCALL   ?PUSH_XSTACK_I_TWO
   \   000049   75..03       MOV     ?V0 + 0,#0x3
   \   00004C   75..00       MOV     ?V0 + 1,#0x0
   \   00004F   78..         MOV     R0,#?V0 + 0
   \   000051   12....       LCALL   ?PUSH_XSTACK_I_TWO
   \   000054   75..02       MOV     ?V0 + 0,#0x2
   \   000057   78..         MOV     R0,#?V0 + 0
   \   000059   12....       LCALL   ?PUSH_XSTACK_I_TWO
   \   00005C   7920         MOV     R1,#0x20
   \   00005E   7C..         MOV     R4,#SampleApp_epDesc & 0xff
   \   000060   7D..         MOV     R5,#(SampleApp_epDesc >> 8) & 0xff
   \   000062   7A..         MOV     R2,#SampleApp_Flash_DstAddr & 0xff
   \   000064   7B..         MOV     R3,#(SampleApp_Flash_DstAddr >> 8) & 0xff
   \   000066   02....       LJMP    ?Subroutine1 & 0xFFFF
    749            {
    750            }
    751            else
    752            {
    753              // Error occurred in request to send.
    754            }
    755          }
    756          

   \                                 In  segment BANKED_CODE, align 1, keep-with-next
    757          void SampleApp_Send_P2P_Message(uint8 dat1,uint8 dat2) 
   \                     SampleApp_Send_P2P_Message:
    758          { 
   \   000000   74F6         MOV     A,#-0xa
   \   000002   12....       LCALL   ?BANKED_ENTER_XDATA
   \   000005                ; Saved register size: 10
   \   000005                ; Auto size: 3
   \   000005   74FD         MOV     A,#-0x3
   \   000007   12....       LCALL   ?ALLOC_XSTACK8
    759            
    760              uint8 ans[3]="A00";
   \   00000A   85..82       MOV     DPL,?XSP + 0
   \   00000D   85..83       MOV     DPH,?XSP + 1
   \   000010   AC82         MOV     R4,DPL
   \   000012   AD83         MOV     R5,DPH
   \   000014   7583..       MOV     DPH,#(`?<Constant "A00">` >> 8) & 0xff
   \   000017   7582..       MOV     DPL,#`?<Constant "A00">` & 0xff
   \   00001A   7403         MOV     A,#0x3
   \   00001C   12....       LCALL   ?MOVE_LONG8_XDATA_XDATA
    761              ans[1]=dat1;
   \   00001F   7401         MOV     A,#0x1
   \   000021   12....       LCALL   ?XSTACK_DISP0_8
   \   000024   E9           MOV     A,R1
   \   000025   F0           MOVX    @DPTR,A
    762              ans[2]=dat2;
   \   000026   7402         MOV     A,#0x2
   \   000028   12....       LCALL   ?XSTACK_DISP0_8
   \   00002B   EA           MOV     A,R2
   \   00002C   12....       LCALL   ?Subroutine3 & 0xFFFF
    763              
    764            if ( AF_DataRequest( &SampleApp_P2P_DstAddr, &SampleApp_epDesc, 
    765                                  SAMPLEAPP_P2P_CLUSTERID, 
    766                                  3, 
    767                                  ans, 
    768                                  &SampleApp_TransID, 
    769                                  AF_DISCV_ROUTE, 
    770                                  AF_DEFAULT_RADIUS ) == afStatus_SUCCESS ) 
   \                     ??CrossCallReturnLabel_4:
   \   00002F   12....       LCALL   ?PUSH_XSTACK_I_ONE
   \   000032   75....       MOV     ?V0 + 0,#SampleApp_TransID & 0xff
   \   000035   75....       MOV     ?V0 + 1,#(SampleApp_TransID >> 8) & 0xff
   \   000038   78..         MOV     R0,#?V0 + 0
   \   00003A   12....       LCALL   ?PUSH_XSTACK_I_TWO
   \   00003D   7403         MOV     A,#0x3
   \   00003F   12....       LCALL   ?XSTACK_DISP0_8
   \   000042   8582..       MOV     ?V0 + 0,DPL
   \   000045   8583..       MOV     ?V0 + 1,DPH
   \   000048   78..         MOV     R0,#?V0 + 0
   \   00004A   12....       LCALL   ?PUSH_XSTACK_I_TWO
   \   00004D   75..03       MOV     ?V0 + 0,#0x3
   \   000050   75..00       MOV     ?V0 + 1,#0x0
   \   000053   78..         MOV     R0,#?V0 + 0
   \   000055   12....       LCALL   ?PUSH_XSTACK_I_TWO
   \   000058   75..04       MOV     ?V0 + 0,#0x4
   \   00005B   78..         MOV     R0,#?V0 + 0
   \   00005D   12....       LCALL   ?PUSH_XSTACK_I_TWO
   \   000060   7920         MOV     R1,#0x20
   \   000062   7C..         MOV     R4,#SampleApp_epDesc & 0xff
   \   000064   7D..         MOV     R5,#(SampleApp_epDesc >> 8) & 0xff
   \   000066   7A..         MOV     R2,#SampleApp_P2P_DstAddr & 0xff
   \   000068   7B..         MOV     R3,#(SampleApp_P2P_DstAddr >> 8) & 0xff
   \   00006A   02....       LJMP    ?Subroutine1 & 0xFFFF
    771            { 
    772            }
    773          
    774          
    775            else 
    776            { 
    777                // Error occurred in request to send. 
    778            } 
    779          } 
    780          /*********************************************************************
    781          *********************************************************************/

   \                                 In  segment BANKED_CODE, align 1, keep-with-next
    782          void Delayus(void)                      //10 us延时
   \                     Delayus:
    783          {
   \   000000   C082         PUSH    DPL
   \   000002   C083         PUSH    DPH
   \   000004                ; Saved register size: 2
   \   000004                ; Auto size: 0
    784             MicroWait(10);
   \   000004                ; Setup parameters for call to function Onboard_wait
   \   000004   7A0A         MOV     R2,#0xa
   \   000006   7B00         MOV     R3,#0x0
   \   000008   12....       LCALL   ??Onboard_wait?relay
    785          }
   \   00000B   D083         POP     DPH
   \   00000D   D082         POP     DPL
   \   00000F   02....       LJMP    ?BRET
    786          

   \                                 In  segment BANKED_CODE, align 1, keep-with-next
    787          void Delayms(uint16 Time)               //n ms延时
   \                     Delayms:
    788          {
   \   000000   74F7         MOV     A,#-0x9
   \   000002   12....       LCALL   ?BANKED_ENTER_XDATA
   \   000005                ; Saved register size: 9
   \   000005                ; Auto size: 0
   \   000005   EA           MOV     A,R2
   \   000006   FE           MOV     R6,A
   \   000007   EB           MOV     A,R3
   \   000008   FF           MOV     R7,A
    789            unsigned char i;
    790            while(Time--)
   \                     ??Delayms_0:
   \   000009   EE           MOV     A,R6
   \   00000A   F8           MOV     R0,A
   \   00000B   EF           MOV     A,R7
   \   00000C   F9           MOV     R1,A
   \   00000D   E8           MOV     A,R0
   \   00000E   24FF         ADD     A,#-0x1
   \   000010   1E           DEC     R6
   \   000011   E9           MOV     A,R1
   \   000012   34FF         ADDC    A,#-0x1
   \   000014   FF           MOV     R7,A
   \   000015   E8           MOV     A,R0
   \   000016   49           ORL     A,R1
   \   000017   6012         JZ      ??Delayms_1
    791            {
    792              for(i=0;i<100;i++)
   \   000019   75..64       MOV     ?V0 + 0,#0x64
    793               Delayus();
   \                     ??Delayms_2:
   \   00001C                ; Setup parameters for call to function Onboard_wait
   \   00001C   7A0A         MOV     R2,#0xa
   \   00001E   7B00         MOV     R3,#0x0
   \   000020   12....       LCALL   ??Onboard_wait?relay
   \   000023   15..         DEC     ?V0 + 0
   \   000025   E5..         MOV     A,?V0 + 0
   \   000027   60E0         JZ      ??Delayms_0
   \   000029   80F1         SJMP    ??Delayms_2
    794            }
    795          }
   \                     ??Delayms_1:
   \   00002B   7F01         MOV     R7,#0x1
   \   00002D   02....       LJMP    ?BANKED_LEAVE_XDATA

   \                                 In  segment XDATA_ID, align 1, keep-with-next
   \                     `?<Initializer for sleeptime>`:
   \   000000   80EE3600     DD 3600000

   \                                 In  segment XDATA_ID, align 1, keep-with-next
   \                     `?<Initializer for Mode>`:
   \   000000   43           DB 67

   \                                 In  segment XDATA_ID, align 1, keep-with-next
   \                     `?<Initializer for WaitFlag>`:
   \   000000   01           DB 1

   \                                 In  segment BANK_RELAYS, align 1
   \                     ??SampleApp_Init?relay:
   \   000000   12....       LCALL   ?BDISPATCH
   \   000003   ......       DC24    SampleApp_Init

   \                                 In  segment BANK_RELAYS, align 1
   \                     ??SampleApp_ProcessEvent?relay:
   \   000000   12....       LCALL   ?BDISPATCH
   \   000003   ......       DC24    SampleApp_ProcessEvent

   \                                 In  segment BANK_RELAYS, align 1
   \                     ??SampleApp_HandleKeys?relay:
   \   000000   12....       LCALL   ?BDISPATCH
   \   000003   ......       DC24    SampleApp_HandleKeys

   \                                 In  segment BANK_RELAYS, align 1
   \                     ??isDigit?relay:
   \   000000   12....       LCALL   ?BDISPATCH
   \   000003   ......       DC24    isDigit

   \                                 In  segment BANK_RELAYS, align 1
   \                     ??SampleApp_MessageMSGCB?relay:
   \   000000   12....       LCALL   ?BDISPATCH
   \   000003   ......       DC24    SampleApp_MessageMSGCB

   \                                 In  segment BANK_RELAYS, align 1
   \                     ??SampleApp_SendPeriodicMessage?relay:
   \   000000   12....       LCALL   ?BDISPATCH
   \   000003   ......       DC24    SampleApp_SendPeriodicMessage

   \                                 In  segment BANK_RELAYS, align 1
   \                     ??SampleApp_SendFlashMessage?relay:
   \   000000   12....       LCALL   ?BDISPATCH
   \   000003   ......       DC24    SampleApp_SendFlashMessage

   \                                 In  segment BANK_RELAYS, align 1
   \                     ??SampleApp_Send_P2P_Message?relay:
   \   000000   12....       LCALL   ?BDISPATCH
   \   000003   ......       DC24    SampleApp_Send_P2P_Message

   \                                 In  segment BANK_RELAYS, align 1
   \                     ??Delayus?relay:
   \   000000   12....       LCALL   ?BDISPATCH
   \   000003   ......       DC24    Delayus

   \                                 In  segment BANK_RELAYS, align 1
   \                     ??Delayms?relay:
   \   000000   12....       LCALL   ?BDISPATCH
   \   000003   ......       DC24    Delayms

   \                                 In  segment XDATA_ROM_C, align 1
   \                     `?<Constant "Group 1">`:
   \   000000   47726F75     DB "Group 1"
   \            70203100

   \                                 In  segment XDATA_ROM_C, align 1
   \                     `?<Constant "online">`:
   \   000000   6F6E6C69     DB "online"
   \            6E6500  

   \                                 In  segment XDATA_ROM_C, align 1
   \                     `?<Constant {0}>`:
   \   000000   00           DB 0
   \   000001   00000000     DB 0, 0, 0, 0, 0, 0, 0, 0
   \            00000000
   \   000009   00000000     DB 0, 0, 0, 0, 0, 0, 0, 0
   \            00000000
   \   000011   00000000     DB 0, 0, 0, 0, 0, 0, 0, 0
   \            00000000

   \                                 In  segment XDATA_ROM_C, align 1
   \                     `?<Constant "T-99.88">`:
   \   000000   542D3939     DB "T-99.88"
   \            2E383800

   \                                 In  segment XDATA_ROM_C, align 1
   \                     `?<Constant "-8">`:
   \   000000   2D3800       DB "-8"

   \                                 In  segment XDATA_ROM_C, align 1
   \                     `?<Constant "65528">`:
   \   000000   36353532     DB "65528"
   \            3800    

   \                                 In  segment XDATA_ROM_C, align 1
   \                     `?<Constant "T-99.77H-7">`:
   \   000000   542D3939     DB "T-99.77H-7"
   \            2E373748
   \            2D3700  

   \                                 In  segment XDATA_ROM_C, align 1
   \                     `?<Constant "I65527">`:
   \   000000   49363535     DB "I65527"
   \            323700  

   \                                 In  segment XDATA_ROM_C, align 1
   \                     `?<Constant "D">`:
   \   000000   4400         DB "D"
   \   000002   00000000     DB 0, 0, 0, 0, 0, 0, 0, 0
   \            00000000
   \   00000A   00000000     DB 0, 0, 0, 0, 0, 0, 0, 0
   \            00000000
   \   000012   0000         DB 0, 0

   \                                 In  segment XDATA_ROM_C, align 1
   \                     `?<Constant "A00">`:
   \   000000   413030       DB 41H, 30H, 30H

   \                                 In  segment XDATA_ROM_C, align 1
   \                     __Constant_1d4c0:
   \   000000   C0D40100     DD 120000

   \                                 In  segment XDATA_ROM_C, align 1
   \                     __Constant_36ee80:
   \   000000   80EE3600     DD 3600000

   \                                 In  segment XDATA_ROM_C, align 1
   \                     __Constant_fa00:
   \   000000   00FA0000     DD 64000

   Maximum stack usage in bytes:

     Function                       ISTACK PSTACK XSTACK
     --------                       ------ ------ ------
     Delayms                            0      0      9
       -> Onboard_wait                  0      0     18
     Delayus                            2      0      0
       -> Onboard_wait                  4      0      0
     SampleApp_HandleKeys               0      0     30
       -> SampleApp_SendFlashMessage
                                        0      0     20
       -> aps_FindGroup                 0      0     20
       -> aps_RemoveGroup               0      0     20
       -> aps_AddGroup                  0      0     20
     SampleApp_Init                     0      0     14
       -> MT_UartInit                   0      0     22
       -> MT_UartRegisterTaskID         0      0     22
       -> afRegister                    0      0     22
       -> RegisterForKeys               0      0     22
       -> osal_memcpy                   0      0     28
       -> aps_AddGroup                  0      0     22
       -> osal_start_timerEx            0      0     22
     SampleApp_MessageMSGCB             4      0     59
       -> osal_memcpy                   0      0     78
       -> isDigit                       0      0     72
       -> isDigit                       0      0     72
       -> osal_memcpy                   0      0     78
       -> isDigit                       0      0     72
       -> osal_memcpy                   0      0     78
       -> isDigit                       0      0     72
       -> osal_memcpy                   0      0     78
       -> osal_memcpy                   0      0     78
       -> osal_memcpy                   0      0     78
       -> HalUARTWrite                  0      0     72
       -> SampleApp_SendPeriodicMessage
                                        0      0     72
       -> HalLedBlink                   0      0     72
     SampleApp_ProcessEvent             1      0     20
       -> osal_msg_receive              0      0     40
       -> HalUARTWrite                  0      0     40
       -> osal_start_timerEx            0      0     40
       -> osal_msg_deallocate           0      0     40
       -> osal_msg_receive              0      0     40
       -> SampleApp_HandleKeys          0      0     40
       -> SampleApp_MessageMSGCB        0      0     40
       -> ZDOInitDevice                 0      0     40
       -> osal_start_timerEx            0      0     40
       -> HalUARTWrite                  0      0     40
       -> osal_memset                   0      0     40
       -> osal_memset                   0      0     40
       -> HalUARTWrite                  0      0     40
       -> osal_start_timerEx            0      0     40
     SampleApp_SendFlashMessage         1      0     32
       -> AF_DataRequest                0      0     44
     SampleApp_SendPeriodicMessage      2      0     81
       -> osal_GetSystemClock           0      0     72
       -> AF_DataRequest                0      0     90
     SampleApp_Send_P2P_Message         2      0     22
       -> AF_DataRequest                0      0     44
     isDigit                            0      0     46


   Segment part sizes:

     Function/Label                        Bytes
     --------------                        -----
     SampleApp_ClusterList                    4
     SampleApp_SimpleDesc                    12
     SampleApp_epDesc                         6
     SampleApp_TaskID                         1
     SampleApp_NwkState                       1
     SampleApp_TransID                        1
     SampleApp_Periodic_DstAddr              12
     SampleApp_Flash_DstAddr                 12
     SampleApp_P2P_DstAddr                   12
     SampleApp_Group                         18
     SampleAppPeriodicCounter                 1
     SampleAppFlashCounter                    1
     Count                                    1
     sleeptime                                4
     DataFlag                                30
     OnlineDEV                              100
     Timer_Flag                               1
     T_Online_Flag                            1
     Timeout                                  4
     TimeCount                                1
     Time_ms                                  2
     Mode                                     1
     WaitFlag                                 1
     TX_2                                     1
     LinkWait                                 1
     LinkCount                                1
     SampleApp_Init                         203
     ?Subroutine0                             5
     ?Subroutine5                            13
     ??Subroutine15_0                         6
     SampleApp_ProcessEvent                 780
     ?Subroutine9                            13
     ?Subroutine6                             9
     ??Subroutine14_0                         6
     ?Subroutine11                           11
     ?Subroutine10                           11
     ?Subroutine2                            10
     SampleApp_HandleKeys                    61
     ??Subroutine12_0                         5
     isDigit                                 64
     ?Subroutine8                             3
     ??Subroutine13_0                         3
     SampleApp_MessageMSGCB                 660
     ?Subroutine7                            13
     ?Subroutine4                             4
     SampleApp_SendPeriodicMessage          252
     ?Subroutine3                             7
     ?Subroutine1                            13
     SampleApp_SendFlashMessage             105
     SampleApp_Send_P2P_Message             109
     Delayus                                 18
     Delayms                                 48
     ?<Initializer for sleeptime>             4
     ?<Initializer for Mode>                  1
     ?<Initializer for WaitFlag>              1
     ??SampleApp_Init?relay                   6
     ??SampleApp_ProcessEvent?relay           6
     ??SampleApp_HandleKeys?relay             6
     ??isDigit?relay                          6
     ??SampleApp_MessageMSGCB?relay           6
     ??SampleApp_SendPeriodicMessage?relay    6
     ??SampleApp_SendFlashMessage?relay       6
     ??SampleApp_Send_P2P_Message?relay       6
     ??Delayus?relay                          6
     ??Delayms?relay                          6
     ?<Constant "Group 1">                    8
     ?<Constant "online">                     7
     ?<Constant {0}>                         25
     ?<Constant "T-99.88">                    8
     ?<Constant "-8">                         3
     ?<Constant "65528">                      6
     ?<Constant "T-99.77H-7">                11
     ?<Constant "I65527">                     7
     ?<Constant "D">                         20
     ?<Constant "A00">                        3
     __Constant_1d4c0                         4
     __Constant_36ee80                        4
     __Constant_fa00                          4

 
 2 432 bytes in segment BANKED_CODE
    60 bytes in segment BANK_RELAYS
     6 bytes in segment XDATA_I
     6 bytes in segment XDATA_ID
   126 bytes in segment XDATA_ROM_C
   208 bytes in segment XDATA_Z
 
 2 498 bytes of CODE  memory
   114 bytes of CONST memory (+ 12 bytes shared)
   214 bytes of XDATA memory

Errors: none
Warnings: none
